 oracledb

 Timestamp is 596e0ef1 (Tue Jul 18 16:36:49 2017)

 Preferred load address is 0000000180000000

 Start         Length     Name                   Class
 0001:00000000 00000110H .text$di                CODE
 0001:00000110 0004ed30H .text$mn                CODE
 0001:0004ee40 00000020H .text$mn$00             CODE
 0001:0004ee60 00003400H .text$x                 CODE
 0001:00052260 00000260H .text$yd                CODE
 0002:00000000 00000400H .idata$5                DATA
 0002:00000400 00000010H .00cfg                  DATA
 0002:00000410 00000008H .CRT$XCA                DATA
 0002:00000418 00000018H .CRT$XCC                DATA
 0002:00000430 00000010H .CRT$XCL                DATA
 0002:00000440 00000038H .CRT$XCU                DATA
 0002:00000478 00000008H .CRT$XCZ                DATA
 0002:00000480 00000008H .CRT$XIA                DATA
 0002:00000488 00000030H .CRT$XIC                DATA
 0002:000004b8 00000008H .CRT$XIZ                DATA
 0002:000004c0 00000008H .CRT$XLA                DATA
 0002:000004c8 00000008H .CRT$XLZ                DATA
 0002:000004d0 00000008H .CRT$XPA                DATA
 0002:000004d8 00000010H .CRT$XPX                DATA
 0002:000004e8 00000008H .CRT$XPXA               DATA
 0002:000004f0 00000008H .CRT$XPZ                DATA
 0002:000004f8 00000008H .CRT$XTA                DATA
 0002:00000500 00000010H .CRT$XTZ                DATA
 0002:00000508 00000000H .gfids$y                DATA
 0002:00000510 000142b8H .rdata                  DATA
 0002:000147c8 00000028H .rdata$T                DATA
 0002:000147f0 00000884H .rdata$r                DATA
 0002:00015074 0000048cH .rdata$zzzdbg           DATA
 0002:00015500 00000008H .rtc$IAA                DATA
 0002:00015508 00000008H .rtc$IZZ                DATA
 0002:00015510 00000008H .rtc$TAA                DATA
 0002:00015518 00000008H .rtc$TZZ                DATA
 0002:00015520 00007af8H .xdata                  DATA
 0002:0001d018 000002fcH .xdata$x                DATA
 0002:0001d314 00000020H .didat$2                DATA
 0002:0001d334 00000024H .didat$3                DATA
 0002:0001d358 000002b0H .didat$4                DATA
 0002:0001d608 000015b8H .didat$6                DATA
 0002:0001ebc0 000002b0H .didat$7                DATA
 0002:0001ee70 00000054H .edata                  DATA
 0002:0001eec4 00000028H .idata$2                DATA
 0002:0001eeec 00000014H .idata$3                DATA
 0002:0001ef00 00000400H .idata$4                DATA
 0002:0001f300 00000966H .idata$6                DATA
 0003:00000000 00000aa0H .data                   DATA
 0003:00000aa0 00000368H .data$r                 DATA
 0003:00000e08 000002b8H .didat$5                DATA
 0003:000010c0 000018c4H .bss                    DATA
 0004:00000000 00003774H .pdata                  DATA
 0005:00000000 00000004H .tls                    DATA
 0005:00000004 00000004H .tls$                   DATA
 0005:00000008 00000001H .tls$ZZZ                DATA
 0006:00000000 00000060H .rsrc$01                DATA
 0006:00000060 00000180H .rsrc$02                DATA

  Address         Publics by Value              Rva+Base               Lib:Object

 0000:00000000       __dynamic_value_reloc_table 0000000000000000     <absolute>
 0000:00000000       __guard_iat_count          0000000000000000     <absolute>
 0000:00000000       __guard_longjmp_table      0000000000000000     <absolute>
 0000:00000000       __guard_longjmp_count      0000000000000000     <absolute>
 0000:00000000       __guard_iat_table          0000000000000000     <absolute>
 0000:00000000       __guard_fids_count         0000000000000000     <absolute>
 0000:00000000       ___safe_se_handler_table   0000000000000000     <absolute>
 0000:00000000       ___safe_se_handler_count   0000000000000000     <absolute>
 0000:00000000       __guard_fids_table         0000000000000000     <absolute>
 0000:00000100       __guard_flags              0000000000000100     <absolute>
 0000:00000000       __ImageBase                0000000180000000     <linker-defined>
 0001:00000110       __local_stdio_printf_options 0000000180001110 f i njsOracle.obj
 0001:00000120       sprintf_s                  0000000180001120 f i njsOracle.obj
 0001:00000180       ?what@exception@stdext@@UEBAPEBDXZ 0000000180001180 f i njsOracle.obj
 0001:000001a0       ?_Raise@exception@stdext@@QEBAXXZ 00000001800011a0 f i njsOracle.obj
 0001:000001e0       ??1?$_String_alloc@U?$_String_base_types@DV?$allocator@D@std@@@std@@@std@@QEAA@XZ 00000001800011e0 f i njsOracle.obj
 0001:000001e0       _guard_check_icall_nop     00000001800011e0 f i LIBCMT:guard_support.obj
 0001:000001e0       ??$destroy@PEAD@?$_Wrap_alloc@V?$allocator@D@std@@@std@@QEAAXPEAPEAD@Z 00000001800011e0 f i njsOracle.obj
 0001:000001e0       ?_Doraise@exception@stdext@@MEBAXXZ 00000001800011e0 f i njsOracle.obj
 0001:000001e0       ?_Unlock@?$basic_streambuf@DU?$char_traits@D@std@@@std@@UEAAXXZ 00000001800011e0 f i njsOracle.obj
 0001:000001e0       ?_Orphan_all@?$_String_alloc@U?$_String_base_types@DV?$allocator@D@std@@@std@@@std@@QEAAXXZ 00000001800011e0 f i njsOracle.obj
 0001:000001e0       ?lobPrefetchSize@ConnImpl@@UEAAXI@Z 00000001800011e0 f i dpiConnImpl.obj
 0001:000001e0       ?_Lock@?$basic_streambuf@DU?$char_traits@D@std@@@std@@UEAAXXZ 00000001800011e0 f i njsOracle.obj
 0001:000001e0       ?imbue@?$basic_streambuf@DU?$char_traits@D@std@@@std@@MEAAXAEBVlocale@2@@Z 00000001800011e0 f i njsOracle.obj
 0001:000001f0       ??_Gruntime_error@std@@UEAAPEAXI@Z 00000001800011f0 f i njsOracle.obj
 0001:000001f0       ??_Eexception@stdext@@UEAAPEAXI@Z 00000001800011f0 f i * CIL library *:* CIL module *
 0001:000001f0       ??_Gexception@stdext@@UEAAPEAXI@Z 00000001800011f0 f i njsOracle.obj
 0001:000001f0       ??_Eruntime_error@std@@UEAAPEAXI@Z 00000001800011f0 f i * CIL library *:* CIL module *
 0001:000001f0       ??_EException@dpi@@UEAAPEAXI@Z 00000001800011f0 f i * CIL library *:* CIL module *
 0001:000001f0       ??_GException@dpi@@UEAAPEAXI@Z 00000001800011f0 f i dpiEnvImpl.obj
 0001:00000220       ??0runtime_error@std@@QEAA@PEBD@Z 0000000180001220 f i njsOracle.obj
 0001:00000240       ?_Doraise@runtime_error@std@@MEBAXXZ 0000000180001240 f i njsOracle.obj
 0001:00000240       ?_Doraise@system_error@std@@MEBAXXZ 0000000180001240 f i njsOracle.obj
 0001:00000240       ?_Doraise@failure@ios_base@std@@MEBAXXZ 0000000180001240 f i njsOracle.obj
 0001:00000260       ??1runtime_error@std@@UEAA@XZ 0000000180001260 f i njsOracle.obj
 0001:00000260       ??1Exception@dpi@@UEAA@XZ  0000000180001260 f i dpiException.obj
 0001:00000260       ??1failure@ios_base@std@@UEAA@XZ 0000000180001260 f i njsOracle.obj
 0001:00000270       ??1_Locinfo@std@@QEAA@XZ   0000000180001270 f i njsOracle.obj
 0001:00000310       ??_G_Facet_base@std@@UEAAPEAXI@Z 0000000180001310 f i njsOracle.obj
 0001:00000310       ??_E_Facet_base@std@@UEAAPEAXI@Z 0000000180001310 f i * CIL library *:* CIL module *
 0001:00000340       ?_Incref@facet@locale@std@@UEAAXXZ 0000000180001340 f i njsOracle.obj
 0001:00000350       ?_Decref@facet@locale@std@@UEAAPEAV_Facet_base@3@XZ 0000000180001350 f i njsOracle.obj
 0001:00000360       ??1facet@locale@std@@MEAA@XZ 0000000180001360 f i njsOracle.obj
 0001:00000370       ??1locale@std@@QEAA@XZ     0000000180001370 f i njsOracle.obj
 0001:000003a0       ?_Getcat@?$ctype@D@std@@SA_KPEAPEBVfacet@locale@2@PEBV42@@Z 00000001800013a0 f i njsOracle.obj
 0001:000004f0       ?do_tolower@?$ctype@D@std@@MEBADD@Z 00000001800014f0 f i njsOracle.obj
 0001:00000500       ?do_tolower@?$ctype@D@std@@MEBAPEBDPEADPEBD@Z 0000000180001500 f i njsOracle.obj
 0001:00000560       ?do_toupper@?$ctype@D@std@@MEBADD@Z 0000000180001560 f i njsOracle.obj
 0001:00000570       ?do_toupper@?$ctype@D@std@@MEBAPEBDPEADPEBD@Z 0000000180001570 f i njsOracle.obj
 0001:000005d0       ?do_widen@?$ctype@D@std@@MEBADD@Z 00000001800015d0 f i njsOracle.obj
 0001:000005d0       ?do_narrow@?$ctype@D@std@@MEBADDD@Z 00000001800015d0 f i njsOracle.obj
 0001:000005e0       ?do_widen@?$ctype@D@std@@MEBAPEBDPEBD0PEAD@Z 00000001800015e0 f i njsOracle.obj
 0001:00000600       ?do_narrow@?$ctype@D@std@@MEBAPEBDPEBD0DPEAD@Z 0000000180001600 f i njsOracle.obj
 0001:00000620       ??_G?$ctype@D@std@@MEAAPEAXI@Z 0000000180001620 f i njsOracle.obj
 0001:00000620       ??_E?$ctype@D@std@@MEAAPEAXI@Z 0000000180001620 f i * CIL library *:* CIL module *
 0001:00000690       ??_Gerror_category@std@@UEAAPEAXI@Z 0000000180001690 f i njsOracle.obj
 0001:00000690       ??_E_Iostream_error_category@std@@UEAAPEAXI@Z 0000000180001690 f i * CIL library *:* CIL module *
 0001:00000690       ??_G_Iostream_error_category@std@@UEAAPEAXI@Z 0000000180001690 f i njsOracle.obj
 0001:00000690       ??_Eerror_category@std@@UEAAPEAXI@Z 0000000180001690 f i * CIL library *:* CIL module *
 0001:000006c0       ?message@error_code@std@@QEBA?AV?$basic_string@DU?$char_traits@D@std@@V?$allocator@D@2@@2@XZ 00000001800016c0 f i njsOracle.obj
 0001:000006f0       ?default_error_condition@error_category@std@@UEBA?AVerror_condition@2@H@Z 00000001800016f0 f i njsOracle.obj
 0001:00000700       ?equivalent@error_category@std@@UEBA_NHAEBVerror_condition@2@@Z 0000000180001700 f i njsOracle.obj
 0001:00000720       ?equivalent@error_category@std@@UEBA_NAEBVerror_code@2@H@Z 0000000180001720 f i njsOracle.obj
 0001:00000740       ?make_error_code@std@@YA?AVerror_code@1@W4io_errc@1@@Z 0000000180001740 f i njsOracle.obj
 0001:00000770       ?_Makestr@_System_error@std@@CA?AV?$basic_string@DU?$char_traits@D@std@@V?$allocator@D@2@@2@Verror_code@2@V32@@Z 0000000180001770 f i njsOracle.obj
 0001:00000890       ??0_System_error@std@@IEAA@Verror_code@1@AEBV?$basic_string@DU?$char_traits@D@std@@V?$allocator@D@2@@1@@Z 0000000180001890 f i njsOracle.obj
 0001:000009a0       ??_E_System_error@std@@UEAAPEAXI@Z 00000001800019a0 f i * CIL library *:* CIL module *
 0001:000009a0       ??_Gsystem_error@std@@UEAAPEAXI@Z 00000001800019a0 f i njsOracle.obj
 0001:000009a0       ??_G_System_error@std@@UEAAPEAXI@Z 00000001800019a0 f i njsOracle.obj
 0001:000009a0       ??_Efailure@ios_base@std@@UEAAPEAXI@Z 00000001800019a0 f i * CIL library *:* CIL module *
 0001:000009a0       ??_Gfailure@ios_base@std@@UEAAPEAXI@Z 00000001800019a0 f i njsOracle.obj
 0001:000009a0       ??_Esystem_error@std@@UEAAPEAXI@Z 00000001800019a0 f i * CIL library *:* CIL module *
 0001:000009d0       ??0system_error@std@@QEAA@Verror_code@1@PEBD@Z 00000001800019d0 f i njsOracle.obj
 0001:00000ad0       ?message@_Generic_error_category@std@@UEBA?AV?$basic_string@DU?$char_traits@D@std@@V?$allocator@D@2@@2@H@Z 0000000180001ad0 f i njsOracle.obj
 0001:00000b20       ?name@_Iostream_error_category@std@@UEBAPEBDXZ 0000000180001b20 f i njsOracle.obj
 0001:00000b30       ?message@_Iostream_error_category@std@@UEBA?AV?$basic_string@DU?$char_traits@D@std@@V?$allocator@D@2@@2@H@Z 0000000180001b30 f i njsOracle.obj
 0001:00000b80       ??0failure@ios_base@std@@QEAA@PEBDAEBVerror_code@2@@Z 0000000180001b80 f i njsOracle.obj
 0001:00000bc0       ?clear@ios_base@std@@QEAAXH_N@Z 0000000180001bc0 f i njsOracle.obj
 0001:00000c60       ?getloc@ios_base@std@@QEBA?AVlocale@2@XZ 0000000180001c60 f i njsOracle.obj
 0001:00000c90       ?_Init@ios_base@std@@IEAAXXZ 0000000180001c90 f i njsOracle.obj
 0001:00000d10       ??_Gios_base@std@@UEAAPEAXI@Z 0000000180001d10 f i njsOracle.obj
 0001:00000d10       ??_Eios_base@std@@UEAAPEAXI@Z 0000000180001d10 f i * CIL library *:* CIL module *
 0001:00000fd0       ?NewInstance@Nan@@YA?AV?$MaybeLocal@VObject@v8@@@v8@@V?$Local@VFunction@v8@@@3@@Z 0000000180001fd0 f i njsOracle.obj
 0001:00001060       ?NewInstance@Nan@@YA?AV?$MaybeLocal@VObject@v8@@@v8@@V?$Local@VObjectTemplate@v8@@@3@@Z 0000000180002060 f i njsOracle.obj
 0001:000010f0       ?GetFunction@Nan@@YA?AV?$MaybeLocal@VFunction@v8@@@v8@@V?$Local@VFunctionTemplate@v8@@@3@@Z 00000001800020f0 f i njsOracle.obj
 0001:00001180       ?Set@Nan@@YA?AV?$Maybe@_N@v8@@V?$Local@VObject@v8@@@3@V?$Local@VValue@v8@@@3@1@Z 0000000180002180 f i njsOracle.obj
 0001:00001210       ?convert@?$ToFactory@VInteger@v8@@@imp@Nan@@SA?AV?$MaybeLocal@VInteger@v8@@@v8@@V?$Local@VValue@v8@@@5@@Z 0000000180002210 f i njsOracle.obj
 0001:00001290       ?convert@?$ToFactory@I@imp@Nan@@SA?AV?$Maybe@I@v8@@V?$Local@VValue@v8@@@5@@Z 0000000180002290 f i njsOracle.obj
 0001:00001310       ?convert@?$ToFactory@H@imp@Nan@@SA?AV?$Maybe@H@v8@@V?$Local@VValue@v8@@@5@@Z 0000000180002310 f i njsOracle.obj
 0001:00001390       ?New@?$Factory@VFunctionTemplate@v8@@@imp@Nan@@SA?AV?$Local@VFunctionTemplate@v8@@@v8@@P6AXAEBV?$FunctionCallbackInfo@VValue@v8@@@3@@ZV?$Local@VValue@v8@@@5@V?$Local@VSignature@v8@@@5@@Z 0000000180002390 f i njsOracle.obj
 0001:00001500       ?ThrowError@Nan@@YAXPEBD@Z 0000000180002500 f i njsOracle.obj
 0001:000015a0       ??1EscapableHandleScope@Nan@@QEAA@XZ 00000001800025a0 f i njsPool.obj
 0001:000015a0       ??1HandleScope@Nan@@QEAA@XZ 00000001800025a0 f i njsOracle.obj
 0001:000015b0       ??1?$Persistent@VObject@v8@@V?$NonCopyablePersistentTraits@VObject@v8@@@2@@Nan@@QEAA@XZ 00000001800025b0 f i njsOracle.obj
 0001:000015b0       ??1?$Persistent@VFunction@v8@@V?$NonCopyablePersistentTraits@VFunction@v8@@@2@@Nan@@QEAA@XZ 00000001800025b0 f i njsOracle.obj
 0001:000015d0       ?SetPrototypeMethod@Nan@@YAXV?$Local@VFunctionTemplate@v8@@@v8@@PEBDP6AXAEBV?$FunctionCallbackInfo@VValue@v8@@@1@@Z@Z 00000001800025d0 f i njsOracle.obj
 0001:000016c0       ?SetAccessor@Nan@@YAXV?$Local@VObjectTemplate@v8@@@v8@@V?$Local@VString@v8@@@3@P6AX1AEBV?$PropertyCallbackInfo@VValue@v8@@@1@@ZP6AX1V?$Local@VValue@v8@@@3@AEBV?$PropertyCallbackInfo@X@1@@Z4W4AccessControl@3@W4PropertyAttribute@3@V?$Local@VAccessorSignature@v8@@@3@@Z 00000001800026c0 f i njsOracle.obj
 0001:00001840       ??1ObjectWrap@Nan@@UEAA@XZ 0000000180002840 f i njsOracle.obj
 0001:000018c0       ?Wrap@ObjectWrap@Nan@@IEAAXV?$Local@VObject@v8@@@v8@@@Z 00000001800028c0 f i njsOracle.obj
 0001:000019a0       ?Ref@ObjectWrap@Nan@@MEAAXXZ 00000001800029a0 f i njsOracle.obj
 0001:000019e0       ?Unref@ObjectWrap@Nan@@MEAAXXZ 00000001800029e0 f i njsOracle.obj
 0001:00001a90       ?WeakCallback@ObjectWrap@Nan@@CAXAEBV?$WeakCallbackInfo@VObjectWrap@Nan@@@v8@@@Z 0000000180002a90 f i njsOracle.obj
 0001:00001b20       ??_GObjectWrap@Nan@@UEAAPEAXI@Z 0000000180002b20 f i njsOracle.obj
 0001:00001b20       ??_EObjectWrap@Nan@@UEAAPEAXI@Z 0000000180002b20 f i * CIL library *:* CIL module *
 0001:00001b60       ??0connectionBaton@@QEAA@V?$Local@VFunction@v8@@@v8@@V?$Local@VObject@v8@@@2@@Z 0000000180002b60 f i njsOracle.obj
 0001:00001d30       ??1connectionBaton@@QEAA@XZ 0000000180002d30 f i njsOracle.obj
 0001:00001dd0       ??0Oracledb@@AEAA@XZ       0000000180002dd0 f   njsOracle.obj
 0001:00001f50       ??_EOracledb@@EEAAPEAXI@Z  0000000180002f50 f i * CIL library *:* CIL module *
 0001:00001f50       ??_GOracledb@@EEAAPEAXI@Z  0000000180002f50 f i njsOracle.obj
 0001:00001f90       ??1Oracledb@@EEAA@XZ       0000000180002f90 f   njsOracle.obj
 0001:000020d0       ?driverName@Oracledb@@AEBA?BV?$basic_string@DU?$char_traits@D@std@@V?$allocator@D@2@@std@@XZ 00000001800030d0 f   njsOracle.obj
 0001:000021b0       ??_D?$basic_stringstream@DU?$char_traits@D@std@@V?$allocator@D@2@@std@@QEAAXXZ 00000001800031b0 f i njsOracle.obj
 0001:000021e0       ?Init@Oracledb@@SAXV?$Local@VObject@v8@@@v8@@@Z 00000001800031e0 f   njsOracle.obj
 0001:00002b80       ?New@Oracledb@@CAXAEBV?$FunctionCallbackInfo@VValue@v8@@@Nan@@@Z 0000000180003b80 f   njsOracle.obj
 0001:00002c80       ?GetPoolMin@Oracledb@@CAXV?$Local@VString@v8@@@v8@@AEBV?$PropertyCallbackInfo@VValue@v8@@@Nan@@@Z 0000000180003c80 f   njsOracle.obj
 0001:00002db0       ?SetPoolMin@Oracledb@@CAXV?$Local@VString@v8@@@v8@@V?$Local@VValue@v8@@@3@AEBV?$PropertyCallbackInfo@X@Nan@@@Z 0000000180003db0 f   njsOracle.obj
 0001:00002ff0       ?GetPoolMax@Oracledb@@CAXV?$Local@VString@v8@@@v8@@AEBV?$PropertyCallbackInfo@VValue@v8@@@Nan@@@Z 0000000180003ff0 f   njsOracle.obj
 0001:00003120       ?SetPoolMax@Oracledb@@CAXV?$Local@VString@v8@@@v8@@V?$Local@VValue@v8@@@3@AEBV?$PropertyCallbackInfo@X@Nan@@@Z 0000000180004120 f   njsOracle.obj
 0001:00003360       ?GetPoolIncrement@Oracledb@@CAXV?$Local@VString@v8@@@v8@@AEBV?$PropertyCallbackInfo@VValue@v8@@@Nan@@@Z 0000000180004360 f   njsOracle.obj
 0001:000034a0       ?SetPoolIncrement@Oracledb@@CAXV?$Local@VString@v8@@@v8@@V?$Local@VValue@v8@@@3@AEBV?$PropertyCallbackInfo@X@Nan@@@Z 00000001800044a0 f   njsOracle.obj
 0001:000036e0       ?GetPoolTimeout@Oracledb@@CAXV?$Local@VString@v8@@@v8@@AEBV?$PropertyCallbackInfo@VValue@v8@@@Nan@@@Z 00000001800046e0 f   njsOracle.obj
 0001:00003810       ?SetPoolTimeout@Oracledb@@CAXV?$Local@VString@v8@@@v8@@V?$Local@VValue@v8@@@3@AEBV?$PropertyCallbackInfo@X@Nan@@@Z 0000000180004810 f   njsOracle.obj
 0001:00003a50       ?GetMaxRows@Oracledb@@CAXV?$Local@VString@v8@@@v8@@AEBV?$PropertyCallbackInfo@VValue@v8@@@Nan@@@Z 0000000180004a50 f   njsOracle.obj
 0001:00003b90       ?SetMaxRows@Oracledb@@CAXV?$Local@VString@v8@@@v8@@V?$Local@VValue@v8@@@3@AEBV?$PropertyCallbackInfo@X@Nan@@@Z 0000000180004b90 f   njsOracle.obj
 0001:00003e50       ?GetOutFormat@Oracledb@@CAXV?$Local@VString@v8@@@v8@@AEBV?$PropertyCallbackInfo@VValue@v8@@@Nan@@@Z 0000000180004e50 f   njsOracle.obj
 0001:00003f80       ?SetOutFormat@Oracledb@@CAXV?$Local@VString@v8@@@v8@@V?$Local@VValue@v8@@@3@AEBV?$PropertyCallbackInfo@X@Nan@@@Z 0000000180004f80 f   njsOracle.obj
 0001:000041c0       ?GetStmtCacheSize@Oracledb@@CAXV?$Local@VString@v8@@@v8@@AEBV?$PropertyCallbackInfo@VValue@v8@@@Nan@@@Z 00000001800051c0 f   njsOracle.obj
 0001:00004300       ?SetStmtCacheSize@Oracledb@@CAXV?$Local@VString@v8@@@v8@@V?$Local@VValue@v8@@@3@AEBV?$PropertyCallbackInfo@X@Nan@@@Z 0000000180005300 f   njsOracle.obj
 0001:00004540       ?GetPrefetchRows@Oracledb@@CAXV?$Local@VString@v8@@@v8@@AEBV?$PropertyCallbackInfo@VValue@v8@@@Nan@@@Z 0000000180005540 f   njsOracle.obj
 0001:00004670       ?SetPrefetchRows@Oracledb@@CAXV?$Local@VString@v8@@@v8@@V?$Local@VValue@v8@@@3@AEBV?$PropertyCallbackInfo@X@Nan@@@Z 0000000180005670 f   njsOracle.obj
 0001:000048b0       ?GetAutoCommit@Oracledb@@CAXV?$Local@VString@v8@@@v8@@AEBV?$PropertyCallbackInfo@VValue@v8@@@Nan@@@Z 00000001800058b0 f   njsOracle.obj
 0001:000049e0       ?SetAutoCommit@Oracledb@@CAXV?$Local@VString@v8@@@v8@@V?$Local@VValue@v8@@@3@AEBV?$PropertyCallbackInfo@X@Nan@@@Z 00000001800059e0 f   njsOracle.obj
 0001:00004ad0       ?GetExtendedMetaData@Oracledb@@CAXV?$Local@VString@v8@@@v8@@AEBV?$PropertyCallbackInfo@VValue@v8@@@Nan@@@Z 0000000180005ad0 f   njsOracle.obj
 0001:00004c00       ?SetExtendedMetaData@Oracledb@@CAXV?$Local@VString@v8@@@v8@@V?$Local@VValue@v8@@@3@AEBV?$PropertyCallbackInfo@X@Nan@@@Z 0000000180005c00 f   njsOracle.obj
 0001:00004cf0       ?GetVersion@Oracledb@@CAXV?$Local@VString@v8@@@v8@@AEBV?$PropertyCallbackInfo@VValue@v8@@@Nan@@@Z 0000000180005cf0 f   njsOracle.obj
 0001:00004d10       ?SetVersion@Oracledb@@CAXV?$Local@VString@v8@@@v8@@V?$Local@VValue@v8@@@3@AEBV?$PropertyCallbackInfo@X@Nan@@@Z 0000000180005d10 f   njsOracle.obj
 0001:00004e70       ?GetConnectionClass@Oracledb@@CAXV?$Local@VString@v8@@@v8@@AEBV?$PropertyCallbackInfo@VValue@v8@@@Nan@@@Z 0000000180005e70 f   njsOracle.obj
 0001:00004fc0       ?SetConnectionClass@Oracledb@@CAXV?$Local@VString@v8@@@v8@@V?$Local@VValue@v8@@@3@AEBV?$PropertyCallbackInfo@X@Nan@@@Z 0000000180005fc0 f   njsOracle.obj
 0001:00005180       ?GetExternalAuth@Oracledb@@CAXV?$Local@VString@v8@@@v8@@AEBV?$PropertyCallbackInfo@VValue@v8@@@Nan@@@Z 0000000180006180 f   njsOracle.obj
 0001:00005290       ?SetExternalAuth@Oracledb@@CAXV?$Local@VString@v8@@@v8@@V?$Local@VValue@v8@@@3@AEBV?$PropertyCallbackInfo@X@Nan@@@Z 0000000180006290 f   njsOracle.obj
 0001:00005380       ?GetLobPrefetchSize@Oracledb@@CAXV?$Local@VString@v8@@@v8@@AEBV?$PropertyCallbackInfo@VValue@v8@@@Nan@@@Z 0000000180006380 f   njsOracle.obj
 0001:000054c0       ?SetLobPrefetchSize@Oracledb@@CAXV?$Local@VString@v8@@@v8@@V?$Local@VValue@v8@@@3@AEBV?$PropertyCallbackInfo@X@Nan@@@Z 00000001800064c0 f   njsOracle.obj
 0001:00005700       ?GetFetchAsString@Oracledb@@CAXV?$Local@VString@v8@@@v8@@AEBV?$PropertyCallbackInfo@VValue@v8@@@Nan@@@Z 0000000180006700 f   njsOracle.obj
 0001:000058e0       ?SetFetchAsString@Oracledb@@CAXV?$Local@VString@v8@@@v8@@V?$Local@VValue@v8@@@3@AEBV?$PropertyCallbackInfo@X@Nan@@@Z 00000001800068e0 f   njsOracle.obj
 0001:00005d50       ?GetFetchAsBuffer@Oracledb@@CAXV?$Local@VString@v8@@@v8@@AEBV?$PropertyCallbackInfo@VValue@v8@@@Nan@@@Z 0000000180006d50 f   njsOracle.obj
 0001:00005f30       ?SetFetchAsBuffer@Oracledb@@CAXV?$Local@VString@v8@@@v8@@V?$Local@VValue@v8@@@3@AEBV?$PropertyCallbackInfo@X@Nan@@@Z 0000000180006f30 f   njsOracle.obj
 0001:000063a0       ?GetOracleClientVersion@Oracledb@@CAXV?$Local@VString@v8@@@v8@@AEBV?$PropertyCallbackInfo@VValue@v8@@@Nan@@@Z 00000001800073a0 f   njsOracle.obj
 0001:000064e0       ?SetOracleClientVersion@Oracledb@@CAXV?$Local@VString@v8@@@v8@@V?$Local@VValue@v8@@@3@AEBV?$PropertyCallbackInfo@X@Nan@@@Z 00000001800074e0 f   njsOracle.obj
 0001:00006640       ?GetPoolPingInterval@Oracledb@@CAXV?$Local@VString@v8@@@v8@@AEBV?$PropertyCallbackInfo@VValue@v8@@@Nan@@@Z 0000000180007640 f   njsOracle.obj
 0001:00006780       ?SetPoolPingInterval@Oracledb@@CAXV?$Local@VString@v8@@@v8@@V?$Local@VValue@v8@@@3@AEBV?$PropertyCallbackInfo@X@Nan@@@Z 0000000180007780 f   njsOracle.obj
 0001:000069c0       ?GetConnection@Oracledb@@CAXAEBV?$FunctionCallbackInfo@VValue@v8@@@Nan@@@Z 00000001800079c0 f   njsOracle.obj
 0001:00007820       ??_GconnectionBaton@@QEAAPEAXI@Z 0000000180008820 f i njsOracle.obj
 0001:00007850       ?Async_GetConnection@Oracledb@@CAXPEAUuv_work_s@@@Z 0000000180008850 f   njsOracle.obj
 0001:00007910       ?Async_AfterGetConnection@Oracledb@@CAXPEAUuv_work_s@@@Z 0000000180008910 f   njsOracle.obj
 0001:00007b60       ??1TryCatch@Nan@@QEAA@XZ   0000000180008b60 f i njsOracle.obj
 0001:00007b70       ?CreatePool@Oracledb@@CAXAEBV?$FunctionCallbackInfo@VValue@v8@@@Nan@@@Z 0000000180008b70 f   njsOracle.obj
 0001:00008f60       ?Async_CreatePool@Oracledb@@CAXPEAUuv_work_s@@@Z 0000000180009f60 f   njsOracle.obj
 0001:00009050       ?Async_AfterCreatePool@Oracledb@@CAXPEAUuv_work_s@@@Z 000000018000a050 f   njsOracle.obj
 0001:000093a0       ?getFetchAsStringTypes@Oracledb@@QEBAPEBW4DataType@@XZ 000000018000a3a0 f   njsOracle.obj
 0001:00009420       ?getFetchAsBufferTypes@Oracledb@@QEBAPEBW4DataType@@XZ 000000018000a420 f   njsOracle.obj
 0001:000094a0       ??1?$_Yarn@D@std@@QEAA@XZ  000000018000a4a0 f i njsOracle.obj
 0001:000094a0       ??1?$_Yarn@_W@std@@QEAA@XZ 000000018000a4a0 f i njsOracle.obj
 0001:000094d0       ??1fetchInfo@@QEAA@XZ      000000018000a4d0 f i njsConnection.obj
 0001:000094d0       ??1MetaInfo@@QEAA@XZ       000000018000a4d0 f i njsConnection.obj
 0001:000094d0       ??1?$basic_string@DU?$char_traits@D@std@@V?$allocator@D@2@@std@@QEAA@XZ 000000018000a4d0 f i njsOracle.obj
 0001:000094e0       ??4?$basic_string@DU?$char_traits@D@std@@V?$allocator@D@2@@std@@QEAAAEAV01@$$QEAV01@@Z 000000018000a4e0 f i njsOracle.obj
 0001:00009530       ??0?$basic_string@DU?$char_traits@D@std@@V?$allocator@D@2@@std@@QEAA@QEBD@Z 000000018000a530 f i njsOracle.obj
 0001:00009570       ??0?$basic_string@DU?$char_traits@D@std@@V?$allocator@D@2@@std@@QEAA@AEBV01@@Z 000000018000a570 f i njsOracle.obj
 0001:000095b0       ?str@?$basic_stringstream@DU?$char_traits@D@std@@V?$allocator@D@2@@std@@QEBA?AV?$basic_string@DU?$char_traits@D@std@@V?$allocator@D@2@@2@XZ 000000018000a5b0 f i njsOracle.obj
 0001:000095e0       ??1?$basic_stringstream@DU?$char_traits@D@std@@V?$allocator@D@2@@std@@UEAA@XZ 000000018000a5e0 f i njsOracle.obj
 0001:00009710       ??0?$basic_stringstream@DU?$char_traits@D@std@@V?$allocator@D@2@@std@@QEAA@H@Z 000000018000a710 f i njsOracle.obj
 0001:000097d0       ?seekpos@?$basic_stringbuf@DU?$char_traits@D@std@@V?$allocator@D@2@@std@@MEAA?AV?$fpos@U_Mbstatet@@@2@V32@H@Z 000000018000a7d0 f i njsOracle.obj
 0001:000098e0       ?seekoff@?$basic_stringbuf@DU?$char_traits@D@std@@V?$allocator@D@2@@std@@MEAA?AV?$fpos@U_Mbstatet@@@2@_JHH@Z 000000018000a8e0 f i njsOracle.obj
 0001:00009a70       ?underflow@?$basic_stringbuf@DU?$char_traits@D@std@@V?$allocator@D@2@@std@@MEAAHXZ 000000018000aa70 f i njsOracle.obj
 0001:00009ad0       ?pbackfail@?$basic_stringbuf@DU?$char_traits@D@std@@V?$allocator@D@2@@std@@MEAAHH@Z 000000018000aad0 f i njsOracle.obj
 0001:00009b20       ?overflow@?$basic_stringbuf@DU?$char_traits@D@std@@V?$allocator@D@2@@std@@MEAAHH@Z 000000018000ab20 f i njsOracle.obj
 0001:00009d90       ??1?$basic_iostream@DU?$char_traits@D@std@@@std@@UEAA@XZ 000000018000ad90 f i njsOracle.obj
 0001:00009e10       ??6?$basic_ostream@DU?$char_traits@D@std@@@std@@QEAAAEAV01@H@Z 000000018000ae10 f i njsOracle.obj
 0001:00009ff0       ??1?$basic_istream@DU?$char_traits@D@std@@@std@@UEAA@XZ 000000018000aff0 f i njsOracle.obj
 0001:0000a020       ?showmanyc@?$basic_streambuf@DU?$char_traits@D@std@@@std@@MEAA_JXZ 000000018000b020 f i njsOracle.obj
 0001:0000a020       ?sync@?$basic_streambuf@DU?$char_traits@D@std@@@std@@MEAAHXZ 000000018000b020 f i njsOracle.obj
 0001:0000a030       ?setbuf@?$basic_streambuf@DU?$char_traits@D@std@@@std@@MEAAPEAV12@PEAD_J@Z 000000018000b030 f i njsOracle.obj
 0001:0000a030       ??0?$_Wrap_alloc@V?$allocator@D@std@@@std@@QEAA@XZ 000000018000b030 f i njsOracle.obj
 0001:0000a040       ?seekpos@?$basic_streambuf@DU?$char_traits@D@std@@@std@@MEAA?AV?$fpos@U_Mbstatet@@@2@V32@H@Z 000000018000b040 f i njsOracle.obj
 0001:0000a040       ?seekoff@?$basic_streambuf@DU?$char_traits@D@std@@@std@@MEAA?AV?$fpos@U_Mbstatet@@@2@_JHH@Z 000000018000b040 f i njsOracle.obj
 0001:0000a060       ?xsputn@?$basic_streambuf@DU?$char_traits@D@std@@@std@@MEAA_JPEBD_J@Z 000000018000b060 f i njsOracle.obj
 0001:0000a120       ?xsgetn@?$basic_streambuf@DU?$char_traits@D@std@@@std@@MEAA_JPEAD_J@Z 000000018000b120 f i njsOracle.obj
 0001:0000a210       ?uflow@?$basic_streambuf@DU?$char_traits@D@std@@@std@@MEAAHXZ 000000018000b210 f i njsOracle.obj
 0001:0000a250       ?overflow@?$basic_streambuf@DU?$char_traits@D@std@@@std@@MEAAHH@Z 000000018000b250 f i njsOracle.obj
 0001:0000a250       ?underflow@?$basic_streambuf@DU?$char_traits@D@std@@@std@@MEAAHXZ 000000018000b250 f i njsOracle.obj
 0001:0000a250       ?pbackfail@?$basic_streambuf@DU?$char_traits@D@std@@@std@@MEAAHH@Z 000000018000b250 f i njsOracle.obj
 0001:0000a260       ??1?$basic_streambuf@DU?$char_traits@D@std@@@std@@UEAA@XZ 000000018000b260 f i njsOracle.obj
 0001:0000a2c0       ??1?$basic_ios@DU?$char_traits@D@std@@@std@@UEAA@XZ 000000018000b2c0 f i njsOracle.obj
 0001:0000a2d0       ??_G?$basic_stringstream@DU?$char_traits@D@std@@V?$allocator@D@2@@std@@UEAAPEAXI@Z 000000018000b2d0 f i njsOracle.obj
 0001:0000a2d0       ??_E?$basic_stringstream@DU?$char_traits@D@std@@V?$allocator@D@2@@std@@UEAAPEAXI@Z 000000018000b2d0 f i * CIL library *:* CIL module *
 0001:0000a320       ??_E?$basic_stringbuf@DU?$char_traits@D@std@@V?$allocator@D@2@@std@@UEAAPEAXI@Z 000000018000b320 f i * CIL library *:* CIL module *
 0001:0000a320       ??_G?$basic_stringbuf@DU?$char_traits@D@std@@V?$allocator@D@2@@std@@UEAAPEAXI@Z 000000018000b320 f i njsOracle.obj
 0001:0000a3b0       ??_G?$basic_iostream@DU?$char_traits@D@std@@@std@@UEAAPEAXI@Z 000000018000b3b0 f i njsOracle.obj
 0001:0000a3b0       ??_E?$basic_iostream@DU?$char_traits@D@std@@@std@@UEAAPEAXI@Z 000000018000b3b0 f i * CIL library *:* CIL module *
 0001:0000a3f0       ??_E?$basic_ostream@DU?$char_traits@D@std@@@std@@UEAAPEAXI@Z 000000018000b3f0 f i * CIL library *:* CIL module *
 0001:0000a3f0       ??_G?$basic_ostream@DU?$char_traits@D@std@@@std@@UEAAPEAXI@Z 000000018000b3f0 f i njsOracle.obj
 0001:0000a460       ??_E?$basic_istream@DU?$char_traits@D@std@@@std@@UEAAPEAXI@Z 000000018000b460 f i * CIL library *:* CIL module *
 0001:0000a460       ??_G?$basic_istream@DU?$char_traits@D@std@@@std@@UEAAPEAXI@Z 000000018000b460 f i njsOracle.obj
 0001:0000a4d0       ??_E?$basic_streambuf@DU?$char_traits@D@std@@@std@@UEAAPEAXI@Z 000000018000b4d0 f i * CIL library *:* CIL module *
 0001:0000a4d0       ??_G?$basic_streambuf@DU?$char_traits@D@std@@@std@@UEAAPEAXI@Z 000000018000b4d0 f i njsOracle.obj
 0001:0000a550       ??_Glocale@std@@QEAAPEAXI@Z 000000018000b550 f i njsOracle.obj
 0001:0000a5b0       ??_G?$basic_ios@DU?$char_traits@D@std@@@std@@UEAAPEAXI@Z 000000018000b5b0 f i njsOracle.obj
 0001:0000a5b0       ??_E?$basic_ios@DU?$char_traits@D@std@@@std@@UEAAPEAXI@Z 000000018000b5b0 f i * CIL library *:* CIL module *
 0001:0000a5f0       ??_D?$basic_iostream@DU?$char_traits@D@std@@@std@@QEAAXXZ 000000018000b5f0 f i njsOracle.obj
 0001:0000a680       ??1sentry@?$basic_ostream@DU?$char_traits@D@std@@@std@@QEAA@XZ 000000018000b680 f i njsOracle.obj
 0001:0000a720       ??0sentry@?$basic_ostream@DU?$char_traits@D@std@@@std@@QEAA@AEAV12@@Z 000000018000b720 f i njsOracle.obj
 0001:0000a7b0       ?do_put@?$num_put@DV?$ostreambuf_iterator@DU?$char_traits@D@std@@@std@@@std@@MEBA?AV?$ostreambuf_iterator@DU?$char_traits@D@std@@@2@V32@AEAVios_base@2@DPEBX@Z 000000018000b7b0 f i njsOracle.obj
 0001:0000a850       ?do_put@?$num_put@DV?$ostreambuf_iterator@DU?$char_traits@D@std@@@std@@@std@@MEBA?AV?$ostreambuf_iterator@DU?$char_traits@D@std@@@2@V32@AEAVios_base@2@DO@Z 000000018000b850 f i njsOracle.obj
 0001:0000ab70       ?do_put@?$num_put@DV?$ostreambuf_iterator@DU?$char_traits@D@std@@@std@@@std@@MEBA?AV?$ostreambuf_iterator@DU?$char_traits@D@std@@@2@V32@AEAVios_base@2@DN@Z 000000018000bb70 f i njsOracle.obj
 0001:0000ae90       ?do_put@?$num_put@DV?$ostreambuf_iterator@DU?$char_traits@D@std@@@std@@@std@@MEBA?AV?$ostreambuf_iterator@DU?$char_traits@D@std@@@2@V32@AEAVios_base@2@D_K@Z 000000018000be90 f i njsOracle.obj
 0001:0000af90       ?do_put@?$num_put@DV?$ostreambuf_iterator@DU?$char_traits@D@std@@@std@@@std@@MEBA?AV?$ostreambuf_iterator@DU?$char_traits@D@std@@@2@V32@AEAVios_base@2@D_J@Z 000000018000bf90 f i njsOracle.obj
 0001:0000b090       ?do_put@?$num_put@DV?$ostreambuf_iterator@DU?$char_traits@D@std@@@std@@@std@@MEBA?AV?$ostreambuf_iterator@DU?$char_traits@D@std@@@2@V32@AEAVios_base@2@DK@Z 000000018000c090 f i njsOracle.obj
 0001:0000b190       ?do_put@?$num_put@DV?$ostreambuf_iterator@DU?$char_traits@D@std@@@std@@@std@@MEBA?AV?$ostreambuf_iterator@DU?$char_traits@D@std@@@2@V32@AEAVios_base@2@DJ@Z 000000018000c190 f i njsOracle.obj
 0001:0000b290       ?do_put@?$num_put@DV?$ostreambuf_iterator@DU?$char_traits@D@std@@@std@@@std@@MEBA?AV?$ostreambuf_iterator@DU?$char_traits@D@std@@@2@V32@AEAVios_base@2@D_N@Z 000000018000c290 f i njsOracle.obj
 0001:0000b6b0       ?_Tidy_deallocate@?$basic_string@DU?$char_traits@D@std@@V?$allocator@D@2@@std@@QEAAXXZ 000000018000c6b0 f i njsOracle.obj
 0001:0000b730       ?assign@?$basic_string@DU?$char_traits@D@std@@V?$allocator@D@2@@std@@QEAAAEAV12@_KD@Z 000000018000c730 f i njsOracle.obj
 0001:0000b810       ?assign@?$basic_string@DU?$char_traits@D@std@@V?$allocator@D@2@@std@@QEAAAEAV12@QEBD_K@Z 000000018000c810 f i njsOracle.obj
 0001:0000b910       ?append@?$basic_string@DU?$char_traits@D@std@@V?$allocator@D@2@@std@@QEAAAEAV12@QEBD_K@Z 000000018000c910 f i njsOracle.obj
 0001:0000ba20       ?append@?$basic_string@DU?$char_traits@D@std@@V?$allocator@D@2@@std@@QEAAAEAV12@AEBV12@_K_K@Z 000000018000ca20 f i njsOracle.obj
 0001:0000bb20       ?_Tidy@?$basic_stringbuf@DU?$char_traits@D@std@@V?$allocator@D@2@@std@@IEAAXXZ 000000018000cb20 f i njsOracle.obj
 0001:0000bbe0       ?str@?$basic_stringbuf@DU?$char_traits@D@std@@V?$allocator@D@2@@std@@QEBA?AV?$basic_string@DU?$char_traits@D@std@@V?$allocator@D@2@@2@XZ 000000018000cbe0 f i njsOracle.obj
 0001:0000bcb0       ?allocate@?$allocator@D@std@@QEAAPEAD_K@Z 000000018000ccb0 f i njsOracle.obj
 0001:0000bd10       ?deallocate@?$allocator@D@std@@QEAAXPEAD_K@Z 000000018000cd10 f i njsOracle.obj
 0001:0000bd70       ??0?$basic_iostream@DU?$char_traits@D@std@@@std@@QEAA@PEAV?$basic_streambuf@DU?$char_traits@D@std@@@1@@Z 000000018000cd70 f i njsOracle.obj
 0001:0000be20       ?_Pnavail@?$basic_streambuf@DU?$char_traits@D@std@@@std@@IEBA_JXZ 000000018000ce20 f i njsOracle.obj
 0001:0000be40       ?_Gnavail@?$basic_streambuf@DU?$char_traits@D@std@@@std@@IEBA_JXZ 000000018000ce40 f i njsOracle.obj
 0001:0000be60       ??_G?$num_put@DV?$ostreambuf_iterator@DU?$char_traits@D@std@@@std@@@std@@MEAAPEAXI@Z 000000018000ce60 f i njsOracle.obj
 0001:0000be60       ??_E?$num_put@DV?$ostreambuf_iterator@DU?$char_traits@D@std@@@std@@@std@@MEAAPEAXI@Z 000000018000ce60 f i * CIL library *:* CIL module *
 0001:0000be90       ?do_truename@?$numpunct@D@std@@MEBA?AV?$basic_string@DU?$char_traits@D@std@@V?$allocator@D@2@@2@XZ 000000018000ce90 f i njsOracle.obj
 0001:0000bed0       ?do_falsename@?$numpunct@D@std@@MEBA?AV?$basic_string@DU?$char_traits@D@std@@V?$allocator@D@2@@2@XZ 000000018000ced0 f i njsOracle.obj
 0001:0000bf10       ?do_grouping@?$numpunct@D@std@@MEBA?AV?$basic_string@DU?$char_traits@D@std@@V?$allocator@D@2@@2@XZ 000000018000cf10 f i njsOracle.obj
 0001:0000bf50       ?do_thousands_sep@?$numpunct@D@std@@MEBADXZ 000000018000cf50 f i njsOracle.obj
 0001:0000bf60       ?do_decimal_point@?$numpunct@D@std@@MEBADXZ 000000018000cf60 f i njsOracle.obj
 0001:0000bf70       ?truename@?$numpunct@D@std@@QEBA?AV?$basic_string@DU?$char_traits@D@std@@V?$allocator@D@2@@2@XZ 000000018000cf70 f i njsOracle.obj
 0001:0000bf90       ?falsename@?$numpunct@D@std@@QEBA?AV?$basic_string@DU?$char_traits@D@std@@V?$allocator@D@2@@2@XZ 000000018000cf90 f i njsOracle.obj
 0001:0000bfb0       ??1_Sentry_base@?$basic_ostream@DU?$char_traits@D@std@@@std@@QEAA@XZ 000000018000cfb0 f i njsOracle.obj
 0001:0000bff0       ?_Iput@?$num_put@DV?$ostreambuf_iterator@DU?$char_traits@D@std@@@std@@@std@@AEBA?AV?$ostreambuf_iterator@DU?$char_traits@D@std@@@2@V32@AEAVios_base@2@DPEAD_K@Z 000000018000cff0 f i njsOracle.obj
 0001:0000c720       ?_Fput@?$num_put@DV?$ostreambuf_iterator@DU?$char_traits@D@std@@@std@@@std@@AEBA?AV?$ostreambuf_iterator@DU?$char_traits@D@std@@@2@V32@AEAVios_base@2@DPEBD_K@Z 000000018000d720 f i njsOracle.obj
 0001:0000cec0       ?_Xlen@?$basic_string@DU?$char_traits@D@std@@V?$allocator@D@2@@std@@SAXXZ 000000018000dec0 f i njsOracle.obj
 0001:0000cee0       ?assign@?$basic_string@DU?$char_traits@D@std@@V?$allocator@D@2@@std@@QEAAAEAV12@AEBV12@_K_K@Z 000000018000dee0 f i njsOracle.obj
 0001:0000cfe0       ?flush@?$basic_ostream@DU?$char_traits@D@std@@@std@@QEAAAEAV12@XZ 000000018000dfe0 f i njsOracle.obj
 0001:0000d100       ??0?$basic_streambuf@DU?$char_traits@D@std@@@std@@IEAA@XZ 000000018000e100 f i njsOracle.obj
 0001:0000d1b0       ??_G?$numpunct@D@std@@MEAAPEAXI@Z 000000018000e1b0 f i njsOracle.obj
 0001:0000d1b0       ??_E?$numpunct@D@std@@MEAAPEAXI@Z 000000018000e1b0 f i * CIL library *:* CIL module *
 0001:0000d210       ?grouping@?$numpunct@D@std@@QEBA?AV?$basic_string@DU?$char_traits@D@std@@V?$allocator@D@2@@2@XZ 000000018000e210 f i njsOracle.obj
 0001:0000d230       ?_Xran@?$basic_string@DU?$char_traits@D@std@@V?$allocator@D@2@@std@@SAXXZ 000000018000e230 f i njsOracle.obj
 0001:0000d250       ?_Copy@?$basic_string@DU?$char_traits@D@std@@V?$allocator@D@2@@std@@QEAAX_K@Z 000000018000e250 f i njsOracle.obj
 0001:0000d3a0       ?erase@?$basic_string@DU?$char_traits@D@std@@V?$allocator@D@2@@std@@QEAAAEAV12@_K0@Z 000000018000e3a0 f i njsOracle.obj
 0001:0000d460       ?init@?$basic_ios@DU?$char_traits@D@std@@@std@@IEAAXPEAV?$basic_streambuf@DU?$char_traits@D@std@@@2@_N@Z 000000018000e460 f i njsOracle.obj
 0001:0000d510       ??$use_facet@V?$ctype@D@std@@@std@@YAAEBV?$ctype@D@0@AEBVlocale@0@@Z 000000018000e510 f i njsOracle.obj
 0001:0000d640       ??$_Immortalize@V_Iostream_error_category@std@@@std@@YAAEAV_Iostream_error_category@0@XZ 000000018000e640 f i njsOracle.obj
 0001:0000d6c0       ??$New@VString@v8@@V?$basic_string@DU?$char_traits@D@std@@V?$allocator@D@2@@std@@@Nan@@YA?AV?$MaybeLocal@VString@v8@@@v8@@V?$basic_string@DU?$char_traits@D@std@@V?$allocator@D@2@@std@@@Z 000000018000e6c0 f i njsOracle.obj
 0001:0000d770       ??$?6U?$char_traits@D@std@@@std@@YAAEAV?$basic_ostream@DU?$char_traits@D@std@@@0@AEAV10@PEBD@Z 000000018000e770 f i njsOracle.obj
 0001:0000da70       ??$Unwrap@VConnection@@@ObjectWrap@Nan@@SAPEAVConnection@@V?$Local@VObject@v8@@@v8@@@Z 000000018000ea70 f i njsOracle.obj
 0001:0000da70       ??$Unwrap@VResultSet@@@ObjectWrap@Nan@@SAPEAVResultSet@@V?$Local@VObject@v8@@@v8@@@Z 000000018000ea70 f i njsConnection.obj
 0001:0000da70       ??$Unwrap@VOracledb@@@ObjectWrap@Nan@@SAPEAVOracledb@@V?$Local@VObject@v8@@@v8@@@Z 000000018000ea70 f i njsOracle.obj
 0001:0000da70       ??$Unwrap@VPool@@@ObjectWrap@Nan@@SAPEAVPool@@V?$Local@VObject@v8@@@v8@@@Z 000000018000ea70 f i njsOracle.obj
 0001:0000da70       ??$Unwrap@VILob@@@ObjectWrap@Nan@@SAPEAVILob@@V?$Local@VObject@v8@@@v8@@@Z 000000018000ea70 f i njsConnection.obj
 0001:0000daf0       ??$use_facet@V?$num_put@DV?$ostreambuf_iterator@DU?$char_traits@D@std@@@std@@@std@@@std@@YAAEBV?$num_put@DV?$ostreambuf_iterator@DU?$char_traits@D@std@@@std@@@0@AEBVlocale@0@@Z 000000018000eaf0 f i njsOracle.obj
 0001:0000dc20       ??$use_facet@V?$numpunct@D@std@@@std@@YAAEBV?$numpunct@D@0@AEBVlocale@0@@Z 000000018000ec20 f i njsOracle.obj
 0001:0000dd50       ?_Getcat@?$numpunct@D@std@@SA_KPEAPEBVfacet@locale@2@PEBV42@@Z 000000018000ed50 f i njsOracle.obj
 0001:0000de90       ?_Getcat@?$num_put@DV?$ostreambuf_iterator@DU?$char_traits@D@std@@@std@@@std@@SA_KPEAPEBVfacet@locale@2@PEBV42@@Z 000000018000ee90 f i njsOracle.obj
 0001:0000dfc0       ?_Init@?$numpunct@D@std@@IEAAXAEBV_Locinfo@2@_N@Z 000000018000efc0 f i njsOracle.obj
 0001:0000e134       ??_E?$basic_ostream@DU?$char_traits@D@std@@@std@@$4PPPPPPPM@A@EAAPEAXI@Z 000000018000f134 f i njsOracle.obj
 0001:0000e140       ??_E?$basic_stringstream@DU?$char_traits@D@std@@V?$allocator@D@2@@std@@$4PPPPPPPM@A@EAAPEAXI@Z 000000018000f140 f i njsOracle.obj
 0001:0000e14c       ??_E?$basic_istream@DU?$char_traits@D@std@@@std@@$4PPPPPPPM@A@EAAPEAXI@Z 000000018000f14c f i njsOracle.obj
 0001:0000e158       ??_E?$basic_iostream@DU?$char_traits@D@std@@@std@@$4PPPPPPPM@A@EAAPEAXI@Z 000000018000f158 f i njsOracle.obj
 0001:0000e170       ??0poolBaton@@QEAA@V?$Local@VFunction@v8@@@v8@@V?$Local@VObject@v8@@@2@@Z 000000018000f170 f i njsPool.obj
 0001:0000e2a0       ??_GPool@@EEAAPEAXI@Z      000000018000f2a0 f i njsPool.obj
 0001:0000e2a0       ??_EPool@@EEAAPEAXI@Z      000000018000f2a0 f i * CIL library *:* CIL module *
 0001:0000e2e0       ??1Pool@@EEAA@XZ           000000018000f2e0 f   njsPool.obj
 0001:0000e2e0       ??1Connection@@EEAA@XZ     000000018000f2e0 f   njsConnection.obj
 0001:0000e360       ?Init@Pool@@SAXV?$Local@VObject@v8@@@v8@@@Z 000000018000f360 f   njsPool.obj
 0001:0000e8e0       ?New@Pool@@CAXAEBV?$FunctionCallbackInfo@VValue@v8@@@Nan@@@Z 000000018000f8e0 f   njsPool.obj
 0001:0000e950       ?getPoolProperty@Pool@@CA?AV?$Local@VPrimitive@v8@@@v8@@PEAV1@I@Z 000000018000f950 f   njsPool.obj
 0001:0000ead0       ?getPoolProperty@Pool@@CA?AV?$Local@VPrimitive@v8@@@v8@@PEAV1@H@Z 000000018000fad0 f   njsPool.obj
 0001:0000ec50       ?GetPoolMin@Pool@@CAXV?$Local@VString@v8@@@v8@@AEBV?$PropertyCallbackInfo@VValue@v8@@@Nan@@@Z 000000018000fc50 f   njsPool.obj
 0001:0000ed60       ?GetPoolMax@Pool@@CAXV?$Local@VString@v8@@@v8@@AEBV?$PropertyCallbackInfo@VValue@v8@@@Nan@@@Z 000000018000fd60 f   njsPool.obj
 0001:0000ee70       ?GetPoolIncrement@Pool@@CAXV?$Local@VString@v8@@@v8@@AEBV?$PropertyCallbackInfo@VValue@v8@@@Nan@@@Z 000000018000fe70 f   njsPool.obj
 0001:0000ef80       ?GetPoolTimeout@Pool@@CAXV?$Local@VString@v8@@@v8@@AEBV?$PropertyCallbackInfo@VValue@v8@@@Nan@@@Z 000000018000ff80 f   njsPool.obj
 0001:0000f090       ?GetConnectionsOpen@Pool@@CAXV?$Local@VString@v8@@@v8@@AEBV?$PropertyCallbackInfo@VValue@v8@@@Nan@@@Z 0000000180010090 f   njsPool.obj
 0001:0000f280       ?GetConnectionsInUse@Pool@@CAXV?$Local@VString@v8@@@v8@@AEBV?$PropertyCallbackInfo@VValue@v8@@@Nan@@@Z 0000000180010280 f   njsPool.obj
 0001:0000f470       ?GetStmtCacheSize@Pool@@CAXV?$Local@VString@v8@@@v8@@AEBV?$PropertyCallbackInfo@VValue@v8@@@Nan@@@Z 0000000180010470 f   njsPool.obj
 0001:0000f580       ?GetPoolPingInterval@Pool@@CAXV?$Local@VString@v8@@@v8@@AEBV?$PropertyCallbackInfo@VValue@v8@@@Nan@@@Z 0000000180010580 f   njsPool.obj
 0001:0000f690       ?setPoolProperty@Pool@@CAXPEAV1@V?$basic_string@DU?$char_traits@D@std@@V?$allocator@D@2@@std@@@Z 0000000180010690 f   njsPool.obj
 0001:0000f990       ?SetPoolMin@Pool@@CAXV?$Local@VString@v8@@@v8@@V?$Local@VValue@v8@@@3@AEBV?$PropertyCallbackInfo@X@Nan@@@Z 0000000180010990 f   njsPool.obj
 0001:0000fa00       ?SetPoolMax@Pool@@CAXV?$Local@VString@v8@@@v8@@V?$Local@VValue@v8@@@3@AEBV?$PropertyCallbackInfo@X@Nan@@@Z 0000000180010a00 f   njsPool.obj
 0001:0000fa70       ?SetPoolIncrement@Pool@@CAXV?$Local@VString@v8@@@v8@@V?$Local@VValue@v8@@@3@AEBV?$PropertyCallbackInfo@X@Nan@@@Z 0000000180010a70 f   njsPool.obj
 0001:0000fae0       ?SetPoolTimeout@Pool@@CAXV?$Local@VString@v8@@@v8@@V?$Local@VValue@v8@@@3@AEBV?$PropertyCallbackInfo@X@Nan@@@Z 0000000180010ae0 f   njsPool.obj
 0001:0000fb50       ?SetConnectionsOpen@Pool@@CAXV?$Local@VString@v8@@@v8@@V?$Local@VValue@v8@@@3@AEBV?$PropertyCallbackInfo@X@Nan@@@Z 0000000180010b50 f   njsPool.obj
 0001:0000fbc0       ?SetConnectionsInUse@Pool@@CAXV?$Local@VString@v8@@@v8@@V?$Local@VValue@v8@@@3@AEBV?$PropertyCallbackInfo@X@Nan@@@Z 0000000180010bc0 f   njsPool.obj
 0001:0000fc30       ?SetStmtCacheSize@Pool@@CAXV?$Local@VString@v8@@@v8@@V?$Local@VValue@v8@@@3@AEBV?$PropertyCallbackInfo@X@Nan@@@Z 0000000180010c30 f   njsPool.obj
 0001:0000fca0       ?SetPoolPingInterval@Pool@@CAXV?$Local@VString@v8@@@v8@@V?$Local@VValue@v8@@@3@AEBV?$PropertyCallbackInfo@X@Nan@@@Z 0000000180010ca0 f   njsPool.obj
 0001:0000fd10       ?GetConnection@Pool@@CAXAEBV?$FunctionCallbackInfo@VValue@v8@@@Nan@@@Z 0000000180010d10 f   njsPool.obj
 0001:00010200       ??_GpoolBaton@@QEAAPEAXI@Z 0000000180011200 f i njsPool.obj
 0001:00010280       ?Async_GetConnection@Pool@@CAXPEAUuv_work_s@@@Z 0000000180011280 f   njsPool.obj
 0001:00010510       ?Async_AfterGetConnection@Pool@@CAXPEAUuv_work_s@@@Z 0000000180011510 f   njsPool.obj
 0001:00010760       ?Terminate@Pool@@CAXAEBV?$FunctionCallbackInfo@VValue@v8@@@Nan@@@Z 0000000180011760 f   njsPool.obj
 0001:00010c30       ?Async_Terminate@Pool@@CAXPEAUuv_work_s@@@Z 0000000180011c30 f   njsPool.obj
 0001:00010c90       ?Async_AfterTerminate@Pool@@CAXPEAUuv_work_s@@@Z 0000000180011c90 f   njsPool.obj
 0001:00010e60       ?Set@Nan@@YA?AV?$Maybe@_N@v8@@V?$Local@VObject@v8@@@3@IV?$Local@VValue@v8@@@3@@Z 0000000180011e60 f i njsConnection.obj
 0001:00010ef0       ?ForceSet@Nan@@YA?AV?$Maybe@_N@v8@@V?$Local@VObject@v8@@@3@V?$Local@VValue@v8@@@3@1W4PropertyAttribute@3@@Z 0000000180011ef0 f i njsConnection.obj
 0001:00010f90       ?New@?$Factory@VDate@v8@@@imp@Nan@@SA?AV?$MaybeLocal@VDate@v8@@@v8@@N@Z 0000000180011f90 f i njsConnection.obj
 0001:00011020       ??1RefCounter@@QEAA@XZ     0000000180012020 f i njsConnection.obj
 0001:00011030       ??0MetaInfo@@QEAA@XZ       0000000180012030 f i njsConnection.obj
 0001:00011080       ??0fetchInfo@@QEAA@XZ      0000000180012080 f i njsConnection.obj
 0001:000110c0       ??0eBaton@@QEAA@AEAIV?$Local@VFunction@v8@@@v8@@V?$Local@VObject@v8@@@2@@Z 00000001800120c0 f i njsConnection.obj
 0001:000112d0       ??1eBaton@@QEAA@XZ         00000001800122d0 f i njsConnection.obj
 0001:00011c00       ??_EMetaInfo@@QEAAPEAXI@Z  0000000180012c00 f i njsConnection.obj
 0001:00011c50       ??_EfetchInfo@@QEAAPEAXI@Z 0000000180012c50 f i njsConnection.obj
 0001:00011ca0       ?GetValueType@Connection@@CA?AW4ValueType@@V?$Local@VValue@v8@@@v8@@@Z 0000000180012ca0 f i njsConnection.obj
 0001:00011dc0       ??_EConnection@@EEAAPEAXI@Z 0000000180012dc0 f i * CIL library *:* CIL module *
 0001:00011dc0       ??_GConnection@@EEAAPEAXI@Z 0000000180012dc0 f i njsConnection.obj
 0001:00011e00       ?setConnection@Connection@@QEAAXPEAVConn@dpi@@PEAVOracledb@@V?$Local@VObject@v8@@@v8@@@Z 0000000180012e00 f   njsConnection.obj
 0001:00011e80       ?Init@Connection@@SAXV?$Local@VObject@v8@@@v8@@@Z 0000000180012e80 f   njsConnection.obj
 0001:00012320       ?New@Connection@@CAXAEBV?$FunctionCallbackInfo@VValue@v8@@@Nan@@@Z 0000000180013320 f   njsConnection.obj
 0001:00012390       ?connectionPropertyException@Connection@@CAXPEAV1@W4NJSErrorType@@V?$basic_string@DU?$char_traits@D@std@@V?$allocator@D@2@@std@@@Z 0000000180013390 f   njsConnection.obj
 0001:000125f0       ?GetStmtCacheSize@Connection@@CAXV?$Local@VString@v8@@@v8@@AEBV?$PropertyCallbackInfo@VValue@v8@@@Nan@@@Z 00000001800135f0 f   njsConnection.obj
 0001:00012800       ?SetStmtCacheSize@Connection@@CAXV?$Local@VString@v8@@@v8@@V?$Local@VValue@v8@@@3@AEBV?$PropertyCallbackInfo@X@Nan@@@Z 0000000180013800 f   njsConnection.obj
 0001:00012910       ?GetClientId@Connection@@CAXV?$Local@VString@v8@@@v8@@AEBV?$PropertyCallbackInfo@VValue@v8@@@Nan@@@Z 0000000180013910 f   njsConnection.obj
 0001:00012910       ?GetAction@Connection@@CAXV?$Local@VString@v8@@@v8@@AEBV?$PropertyCallbackInfo@VValue@v8@@@Nan@@@Z 0000000180013910 f   njsConnection.obj
 0001:00012910       ?GetModule@Connection@@CAXV?$Local@VString@v8@@@v8@@AEBV?$PropertyCallbackInfo@VValue@v8@@@Nan@@@Z 0000000180013910 f   njsConnection.obj
 0001:00012930       ?SetClientId@Connection@@CAXV?$Local@VString@v8@@@v8@@V?$Local@VValue@v8@@@3@AEBV?$PropertyCallbackInfo@X@Nan@@@Z 0000000180013930 f   njsConnection.obj
 0001:00012d30       ?SetModule@Connection@@CAXV?$Local@VString@v8@@@v8@@V?$Local@VValue@v8@@@3@AEBV?$PropertyCallbackInfo@X@Nan@@@Z 0000000180013d30 f   njsConnection.obj
 0001:00013130       ?SetAction@Connection@@CAXV?$Local@VString@v8@@@v8@@V?$Local@VValue@v8@@@3@AEBV?$PropertyCallbackInfo@X@Nan@@@Z 0000000180014130 f   njsConnection.obj
 0001:00013530       ?GetOracleServerVersion@Connection@@CAXV?$Local@VString@v8@@@v8@@AEBV?$PropertyCallbackInfo@VValue@v8@@@Nan@@@Z 0000000180014530 f   njsConnection.obj
 0001:00013770       ?SetOracleServerVersion@Connection@@CAXV?$Local@VString@v8@@@v8@@V?$Local@VValue@v8@@@3@AEBV?$PropertyCallbackInfo@X@Nan@@@Z 0000000180014770 f   njsConnection.obj
 0001:00013880       ?Execute@Connection@@CAXAEBV?$FunctionCallbackInfo@VValue@v8@@@Nan@@@Z 0000000180014880 f   njsConnection.obj
 0001:000140a0       ?ProcessBinds@Connection@@CAXAEBV?$FunctionCallbackInfo@VValue@v8@@@Nan@@IPEAUeBaton@@@Z 00000001800150a0 f   njsConnection.obj
 0001:00014290       ?ProcessOptions@Connection@@CAXAEBV?$FunctionCallbackInfo@VValue@v8@@@Nan@@IPEAUeBaton@@@Z 0000000180015290 f   njsConnection.obj
 0001:000152b0       ?GetBinds@Connection@@CAXV?$Local@VObject@v8@@@v8@@PEAUeBaton@@@Z 00000001800162b0 f   njsConnection.obj
 0001:000157c0       ?GetBinds@Connection@@CAXV?$Local@VArray@v8@@@v8@@PEAUeBaton@@@Z 00000001800167c0 f   njsConnection.obj
 0001:000158e0       ?GetBindUnit@Connection@@CAXV?$Local@VValue@v8@@@v8@@PEAUBind@@_NPEAUeBaton@@@Z 00000001800168e0 f   njsConnection.obj
 0001:00016940       ?GetOutBindParams@Connection@@CAXGPEAUBind@@PEAUeBaton@@@Z 0000000180017940 f   njsConnection.obj
 0001:00016bd0       ?GetInBindParams@Connection@@CAXV?$Local@VValue@v8@@@v8@@PEAUBind@@PEAUeBaton@@@Z 0000000180017bd0 f   njsConnection.obj
 0001:00016c50       ?GetInBindParamsScalar@Connection@@CAXV?$Local@VValue@v8@@@v8@@PEAUBind@@PEAUeBaton@@@Z 0000000180017c50 f   njsConnection.obj
 0001:00017a90       ?GetInBindParamsArray@Connection@@CAXV?$Local@VArray@v8@@@v8@@PEAUBind@@PEAUeBaton@@@Z 0000000180018a90 f   njsConnection.obj
 0001:00018630       ?AllocateBindArray@Connection@@CA_NGPEAUBind@@PEAUeBaton@@PEA_K@Z 0000000180019630 f   njsConnection.obj
 0001:00018a30       ?Async_Execute@Connection@@CAXPEAUuv_work_s@@@Z 0000000180019a30 f   njsConnection.obj
 0001:000197e0       ?LOB2StringOrBuffer@Connection@@CAXPEAUeBaton@@I_K1@Z 000000018001a7e0 f   njsConnection.obj
 0001:00019c20       ?StringOrBuffer2LOB@Connection@@CAXPEAUeBaton@@IE@Z 000000018001ac20 f   njsConnection.obj
 0001:00019e60       ?Descr2StringOrBuffer@Connection@@CAXPEAUeBaton@@@Z 000000018001ae60 f   njsConnection.obj
 0001:0001a090       ?ConvertStringOrBuffer2LOB@Connection@@CAXPEAUeBaton@@I@Z 000000018001b090 f   njsConnection.obj
 0001:0001a150       ?PrepareLOBsForBind@Connection@@CAXPEAUeBaton@@I@Z 000000018001b150 f   njsConnection.obj
 0001:0001a220       ?PrepareAndBind@Connection@@CAXPEAUeBaton@@@Z 000000018001b220 f   njsConnection.obj
 0001:0001a840       ?CopyMetaData@Connection@@SAXPEAUMetaInfo@@PEAUeBaton@@PEBUMetaData@dpi@@I@Z 000000018001b840 f   njsConnection.obj
 0001:0001ae60       ?SourceDBType2TargetDBType@Connection@@CAGI@Z 000000018001be60 f   njsConnection.obj
 0001:0001afa0       ?MapByName@Connection@@CAHPEAUeBaton@@AEAV?$basic_string@DU?$char_traits@D@std@@V?$allocator@D@2@@std@@AEAG@Z 000000018001bfa0 f   njsConnection.obj
 0001:0001b0c0       ?MapByType@Connection@@CAHPEAUeBaton@@AEAG@Z 000000018001c0c0 f   njsConnection.obj
 0001:0001b2c0       ?DoDefines@Connection@@SAXPEAUeBaton@@@Z 000000018001c2c0 f   njsConnection.obj
 0001:0001c390       ?DoFetch@Connection@@SAXPEAUeBaton@@@Z 000000018001d390 f   njsConnection.obj
 0001:0001c5f0       ?Descr2Double@Connection@@CA?AW4NJSErrorType@@PEAUDefine@@II_N@Z 000000018001d5f0 f   njsConnection.obj
 0001:0001c6e0       ?Descr2protoILob@Connection@@CAXPEAUeBaton@@II@Z 000000018001d6e0 f   njsConnection.obj
 0001:0001ca50       ?Async_AfterExecute@Connection@@CAXPEAUuv_work_s@@@Z 000000018001da50 f   njsConnection.obj
 0001:0001d240       ?GetMetaData@Connection@@SA?AV?$Local@VValue@v8@@@v8@@PEBUMetaInfo@@I_N@Z 000000018001e240 f   njsConnection.obj
 0001:0001d810       ?GetRows@Connection@@SA?AV?$Local@VValue@v8@@@v8@@PEAUeBaton@@@Z 000000018001e810 f   njsConnection.obj
 0001:0001db50       ?ToV8Value@Connection@@CA?AV?$Local@VValue@v8@@@v8@@PEAUeBaton@@_NII@Z 000000018001eb50 f   njsConnection.obj
 0001:0001dcb0       ?Bind2V8Value@Connection@@CA?AV?$Local@VValue@v8@@@v8@@PEAUeBaton@@PEAUBind@@I@Z 000000018001ecb0 f   njsConnection.obj
 0001:0001deb0       ?Define2V8Value@Connection@@CA?AV?$Local@VValue@v8@@@v8@@PEAUeBaton@@IIPEAUDefine@@PEAUExtDefine@@@Z 000000018001eeb0 f   njsConnection.obj
 0001:0001e2b0       ?RefCursor2V8Value@Connection@@CA?AV?$Local@VValue@v8@@@v8@@PEAUeBaton@@PEAUBind@@PEAUExtBind@@@Z 000000018001f2b0 f   njsConnection.obj
 0001:0001e3e0       ?Lob2V8Value@Connection@@CA?AV?$Local@VValue@v8@@@v8@@PEAUeBaton@@PEAUBind@@@Z 000000018001f3e0 f   njsConnection.obj
 0001:0001e4b0       ?ToV8ArrayValue@Connection@@CA?AV?$Local@VValue@v8@@@v8@@PEAUeBaton@@PEAUBind@@K@Z 000000018001f4b0 f   njsConnection.obj
 0001:0001e8d0       ?GetOutBinds@Connection@@CA?AV?$Local@VValue@v8@@@v8@@PEAUeBaton@@@Z 000000018001f8d0 f   njsConnection.obj
 0001:0001e970       ?GetOutBindArray@Connection@@CA?AV?$Local@VValue@v8@@@v8@@PEAUeBaton@@@Z 000000018001f970 f   njsConnection.obj
 0001:0001eb80       ?GetOutBindObject@Connection@@CA?AV?$Local@VValue@v8@@@v8@@PEAUeBaton@@@Z 000000018001fb80 f   njsConnection.obj
 0001:0001ee60       ?Release@Connection@@CAXAEBV?$FunctionCallbackInfo@VValue@v8@@@Nan@@@Z 000000018001fe60 f   njsConnection.obj
 0001:0001f550       ?Async_Release@Connection@@CAXPEAUuv_work_s@@@Z 0000000180020550 f   njsConnection.obj
 0001:0001f640       ?Async_AfterRelease@Connection@@CAXPEAUuv_work_s@@@Z 0000000180020640 f   njsConnection.obj
 0001:0001f910       ?Commit@Connection@@CAXAEBV?$FunctionCallbackInfo@VValue@v8@@@Nan@@@Z 0000000180020910 f   njsConnection.obj
 0001:0001fe10       ?Async_Commit@Connection@@CAXPEAUuv_work_s@@@Z 0000000180020e10 f   njsConnection.obj
 0001:0001fea0       ?Async_AfterRollback@Connection@@CAXPEAUuv_work_s@@@Z 0000000180020ea0 f   njsConnection.obj
 0001:0001fea0       ?Async_AfterCommit@Connection@@CAXPEAUuv_work_s@@@Z 0000000180020ea0 f   njsConnection.obj
 0001:0001fea0       ?Async_AfterBreak@Connection@@CAXPEAUuv_work_s@@@Z 0000000180020ea0 f   njsConnection.obj
 0001:00020050       ?Rollback@Connection@@CAXAEBV?$FunctionCallbackInfo@VValue@v8@@@Nan@@@Z 0000000180021050 f   njsConnection.obj
 0001:00020550       ?Async_Rollback@Connection@@CAXPEAUuv_work_s@@@Z 0000000180021550 f   njsConnection.obj
 0001:000205e0       ?Break@Connection@@CAXAEBV?$FunctionCallbackInfo@VValue@v8@@@Nan@@@Z 00000001800215e0 f   njsConnection.obj
 0001:00020ae0       ?Async_Break@Connection@@CAXPEAUuv_work_s@@@Z 0000000180021ae0 f   njsConnection.obj
 0001:00020b70       ?CreateLob@Connection@@CAXAEBV?$FunctionCallbackInfo@VValue@v8@@@Nan@@@Z 0000000180021b70 f   njsConnection.obj
 0001:00021240       ?Async_CreateLob@Connection@@CAXPEAUuv_work_s@@@Z 0000000180022240 f   njsConnection.obj
 0001:000213e0       ?Async_AfterCreateLob@Connection@@CAXPEAUuv_work_s@@@Z 00000001800223e0 f   njsConnection.obj
 0001:00021600       ?v8Date2OraDate@Connection@@CAXV?$Local@VValue@v8@@@v8@@PEAUBind@@@Z 0000000180022600 f   njsConnection.obj
 0001:000216a0       ?UpdateDateValue@Connection@@CAXPEAUeBaton@@PEAUBind@@I@Z 00000001800226a0 f   njsConnection.obj
 0001:000217c0       ?cbDynBufferAllocate@Connection@@CAXPEAX_NII@Z 00000001800227c0 f   njsConnection.obj
 0001:000221c0       ?cbDynBufferGet@Connection@@CAHPEAX_JIKKPEAPEAX22PEAPEAGPEAE@Z 00000001800231c0 f   njsConnection.obj
 0001:00022420       ?cbDynDefine@Connection@@CAHPEAXIPEAPEAXPEAPEAI1PEAPEAG@Z 0000000180023420 f   njsConnection.obj
 0001:00022500       ?NewLob@Connection@@CA?AV?$Local@VValue@v8@@@v8@@PEAUeBaton@@PEAVProtoILob@@_N@Z 0000000180023500 f   njsConnection.obj
 0001:000226c0       ??1?$vector@PEAUBind@@V?$allocator@PEAUBind@@@std@@@std@@QEAA@XZ 00000001800236c0 f i njsConnection.obj
 0001:000226c0       ??1?$vector@PEAV?$Persistent@VObject@v8@@V?$NonCopyablePersistentTraits@VObject@v8@@@2@@Nan@@V?$allocator@PEAV?$Persistent@VObject@v8@@V?$NonCopyablePersistentTraits@VObject@v8@@@2@@Nan@@@std@@@std@@QEAA@XZ 00000001800236c0 f i njsConnection.obj
 0001:000226c0       ??1?$vector@PEAUExtDefine@@V?$allocator@PEAUExtDefine@@@std@@@std@@QEAA@XZ 00000001800236c0 f i njsConnection.obj
 0001:000226c0       ??1?$vector@PEAUExtBind@@V?$allocator@PEAUExtBind@@@std@@@std@@QEAA@XZ 00000001800236c0 f i njsConnection.obj
 0001:00022700       ?deallocate@?$_Wrap_alloc@V?$allocator@PEAUExtBind@@@std@@@std@@QEAAXPEAPEAUExtBind@@_K@Z 0000000180023700 f i njsConnection.obj
 0001:00022700       ?deallocate@?$_Wrap_alloc@V?$allocator@PEAUBind@@@std@@@std@@QEAAXPEAPEAUBind@@_K@Z 0000000180023700 f i njsConnection.obj
 0001:00022700       ?deallocate@?$_Wrap_alloc@V?$allocator@PEAV?$Persistent@VObject@v8@@V?$NonCopyablePersistentTraits@VObject@v8@@@2@@Nan@@@std@@@std@@QEAAXPEAPEAV?$Persistent@VObject@v8@@V?$NonCopyablePersistentTraits@VObject@v8@@@2@@Nan@@_K@Z 0000000180023700 f i njsConnection.obj
 0001:00022700       ?deallocate@?$_Wrap_alloc@V?$allocator@PEAUExtDefine@@@std@@@std@@QEAAXPEAPEAUExtDefine@@_K@Z 0000000180023700 f i njsConnection.obj
 0001:00022770       ?allocate@?$_Wrap_alloc@V?$allocator@PEAUExtDefine@@@std@@@std@@QEAAPEAPEAUExtDefine@@_K@Z 0000000180023770 f i njsConnection.obj
 0001:00022770       ?allocate@?$_Wrap_alloc@V?$allocator@PEAUExtBind@@@std@@@std@@QEAAPEAPEAUExtBind@@_K@Z 0000000180023770 f i njsConnection.obj
 0001:00022770       ?allocate@?$_Wrap_alloc@V?$allocator@PEAUBind@@@std@@@std@@QEAAPEAPEAUBind@@_K@Z 0000000180023770 f i njsConnection.obj
 0001:000227e0       ?_Xlength@?$vector@PEAUBind@@V?$allocator@PEAUBind@@@std@@@std@@CAXXZ 00000001800237e0 f i njsConnection.obj
 0001:000227e0       ?_Xlength@?$vector@PEAV?$Persistent@VObject@v8@@V?$NonCopyablePersistentTraits@VObject@v8@@@2@@Nan@@V?$allocator@PEAV?$Persistent@VObject@v8@@V?$NonCopyablePersistentTraits@VObject@v8@@@2@@Nan@@@std@@@std@@CAXXZ 00000001800237e0 f i njsConnection.obj
 0001:000227e0       ?_Xlength@?$vector@PEAUExtBind@@V?$allocator@PEAUExtBind@@@std@@@std@@CAXXZ 00000001800237e0 f i njsConnection.obj
 0001:000227e0       ?_Xlength@?$vector@PEAUExtDefine@@V?$allocator@PEAUExtDefine@@@std@@@std@@CAXXZ 00000001800237e0 f i njsConnection.obj
 0001:00022800       ??$?HDU?$char_traits@D@std@@V?$allocator@D@1@@std@@YA?AV?$basic_string@DU?$char_traits@D@std@@V?$allocator@D@2@@0@QEBD$$QEAV10@@Z 0000000180023800 f i njsConnection.obj
 0001:00022860       ??$emplace_back@AEBQEAV?$Persistent@VObject@v8@@V?$NonCopyablePersistentTraits@VObject@v8@@@2@@Nan@@@?$vector@PEAV?$Persistent@VObject@v8@@V?$NonCopyablePersistentTraits@VObject@v8@@@2@@Nan@@V?$allocator@PEAV?$Persistent@VObject@v8@@V?$NonCopyablePersistentTraits@VObject@v8@@@2@@Nan@@@std@@@std@@QEAAXAEBQEAV?$Persistent@VObject@v8@@V?$NonCopyablePersistentTraits@VObject@v8@@@2@@Nan@@@Z 0000000180023860 f i njsConnection.obj
 0001:00022b20       ??$emplace_back@AEBQEAUBind@@@?$vector@PEAUBind@@V?$allocator@PEAUBind@@@std@@@std@@QEAAXAEBQEAUBind@@@Z 0000000180023b20 f i njsConnection.obj
 0001:00022b20       ??$emplace_back@PEAUExtBind@@@?$vector@PEAUExtBind@@V?$allocator@PEAUExtBind@@@std@@@std@@QEAAX$$QEAPEAUExtBind@@@Z 0000000180023b20 f i njsConnection.obj
 0001:00022b20       ??$emplace_back@AEBQEAUExtBind@@@?$vector@PEAUExtBind@@V?$allocator@PEAUExtBind@@@std@@@std@@QEAAXAEBQEAUExtBind@@@Z 0000000180023b20 f i njsConnection.obj
 0001:00022c20       ?insert@?$basic_string@DU?$char_traits@D@std@@V?$allocator@D@2@@std@@QEAAAEAV12@_KQEBD0@Z 0000000180023c20 f i njsConnection.obj
 0001:00022d60       ?insert@?$basic_string@DU?$char_traits@D@std@@V?$allocator@D@2@@std@@QEAAAEAV12@_KAEBV12@0_K@Z 0000000180023d60 f i njsConnection.obj
 0001:00022ec0       ??0rsBaton@@QEAA@AEAIV?$Local@VFunction@v8@@@v8@@V?$Local@VObject@v8@@@2@2@Z 0000000180023ec0 f i njsResultSet.obj
 0001:00022fb0       ??_GResultSet@@UEAAPEAXI@Z 0000000180023fb0 f i njsResultSet.obj
 0001:00022fb0       ??_EResultSet@@UEAAPEAXI@Z 0000000180023fb0 f i * CIL library *:* CIL module *
 0001:00023030       ?setResultSet@ResultSet@@QEAAXPEAVStmt@dpi@@PEAUeBaton@@IPEBUMetaInfo@@@Z 0000000180024030 f   njsResultSet.obj
 0001:00023310       ?Init@ResultSet@@SAXV?$Local@VObject@v8@@@v8@@@Z 0000000180024310 f   njsResultSet.obj
 0001:000235c0       ?New@ResultSet@@CAXAEBV?$FunctionCallbackInfo@VValue@v8@@@Nan@@@Z 00000001800245c0 f   njsResultSet.obj
 0001:00023630       ?GetMetaData@ResultSet@@CAXV?$Local@VString@v8@@@v8@@AEBV?$PropertyCallbackInfo@VValue@v8@@@Nan@@@Z 0000000180024630 f   njsResultSet.obj
 0001:00023940       ?SetMetaData@ResultSet@@CAXV?$Local@VString@v8@@@v8@@V?$Local@VValue@v8@@@3@AEBV?$PropertyCallbackInfo@X@Nan@@@Z 0000000180024940 f   njsResultSet.obj
 0001:00023c90       ?GetRow@ResultSet@@CAXAEBV?$FunctionCallbackInfo@VValue@v8@@@Nan@@@Z 0000000180024c90 f   njsResultSet.obj
 0001:00024170       ?GetRows@ResultSet@@CAXAEBV?$FunctionCallbackInfo@VValue@v8@@@Nan@@@Z 0000000180025170 f   njsResultSet.obj
 0001:000247e0       ?GetRowsCommon@ResultSet@@CAXPEAUrsBaton@@@Z 00000001800257e0 f   njsResultSet.obj
 0001:00024a30       ??_GrsBaton@@QEAAPEAXI@Z   0000000180025a30 f i njsResultSet.obj
 0001:00024ac0       ?Async_GetRows@ResultSet@@CAXPEAUuv_work_s@@@Z 0000000180025ac0 f   njsResultSet.obj
 0001:00024db0       ?Async_AfterGetRows@ResultSet@@CAXPEAUuv_work_s@@@Z 0000000180025db0 f   njsResultSet.obj
 0001:00024ff0       ?Close@ResultSet@@CAXAEBV?$FunctionCallbackInfo@VValue@v8@@@Nan@@@Z 0000000180025ff0 f   njsResultSet.obj
 0001:00025600       ?Async_Close@ResultSet@@CAXPEAUuv_work_s@@@Z 0000000180026600 f   njsResultSet.obj
 0001:000256e0       ?Async_AfterClose@ResultSet@@CAXPEAUuv_work_s@@@Z 00000001800266e0 f   njsResultSet.obj
 0001:000258d0       ?clearFetchBuffer@ResultSet@@AEAAXI@Z 00000001800268d0 f   njsResultSet.obj
 0001:00025b60       ?getErrorMsg@NJSMessages@@SA?AV?$basic_string@DU?$char_traits@D@std@@V?$allocator@D@2@@std@@W4NJSErrorType@@ZZ 0000000180026b60 f   njsMessages.obj
 0001:00025c60       ??0LobBaton@@QEAA@AEAIV?$Local@VFunction@v8@@@v8@@V?$Local@VObject@v8@@@2@@Z 0000000180026c60 f i njsIntLob.obj
 0001:00025d90       ??0LobBaton@@QEAA@AEAIV?$Local@VObject@v8@@@v8@@V?$Local@VFunction@v8@@@2@1@Z 0000000180026d90 f i njsIntLob.obj
 0001:00025f00       ??1LobBaton@@QEAA@XZ       0000000180026f00 f i njsIntLob.obj
 0001:00025f90       ??_GILob@@EEAAPEAXI@Z      0000000180026f90 f i njsIntLob.obj
 0001:00025f90       ??_EILob@@EEAAPEAXI@Z      0000000180026f90 f i * CIL library *:* CIL module *
 0001:00025fd0       ??1ILob@@EEAA@XZ           0000000180026fd0 f   njsIntLob.obj
 0001:000260b0       ?cleanupDPI@ILob@@QEAAXXZ  00000001800270b0 f   njsIntLob.obj
 0001:00026160       ?cleanupNJS@ILob@@QEAAXXZ  0000000180027160 f   njsIntLob.obj
 0001:000261c0       ?setILob@ILob@@QEAAXPEAUeBaton@@PEAVProtoILob@@_N@Z 00000001800271c0 f   njsIntLob.obj
 0001:00026350       ?hasILobInstance@ILob@@SA_NV?$Local@VObject@v8@@@v8@@@Z 0000000180027350 f   njsIntLob.obj
 0001:00026490       ?Init@ILob@@SAXV?$Local@VObject@v8@@@v8@@@Z 0000000180027490 f   njsIntLob.obj
 0001:000269e0       ?New@ILob@@CAXAEBV?$FunctionCallbackInfo@VValue@v8@@@Nan@@@Z 00000001800279e0 f   njsIntLob.obj
 0001:00026aa0       ?Release@ILob@@CAXAEBV?$FunctionCallbackInfo@VValue@v8@@@Nan@@@Z 0000000180027aa0 f   njsIntLob.obj
 0001:00026db0       ?Close@ILob@@CAXAEBV?$FunctionCallbackInfo@VValue@v8@@@Nan@@@Z 0000000180027db0 f   njsIntLob.obj
 0001:00027390       ?Async_Close@ILob@@CAXPEAUuv_work_s@@@Z 0000000180028390 f   njsIntLob.obj
 0001:000273c0       ?Async_AfterClose@ILob@@CAXPEAUuv_work_s@@@Z 00000001800283c0 f   njsIntLob.obj
 0001:000275d0       ?lobPropertyException@ILob@@CAXPEAV1@W4NJSErrorType@@V?$basic_string@DU?$char_traits@D@std@@V?$allocator@D@2@@std@@@Z 00000001800285d0 f   njsIntLob.obj
 0001:00027830       ?GetChunkSize@ILob@@CAXV?$Local@VString@v8@@@v8@@AEBV?$PropertyCallbackInfo@VValue@v8@@@Nan@@@Z 0000000180028830 f   njsIntLob.obj
 0001:00027c20       ?SetChunkSize@ILob@@CAXV?$Local@VString@v8@@@v8@@V?$Local@VValue@v8@@@3@AEBV?$PropertyCallbackInfo@X@Nan@@@Z 0000000180028c20 f   njsIntLob.obj
 0001:00027d30       ?GetLength@ILob@@CAXV?$Local@VString@v8@@@v8@@AEBV?$PropertyCallbackInfo@VValue@v8@@@Nan@@@Z 0000000180028d30 f   njsIntLob.obj
 0001:00028120       ?SetLength@ILob@@CAXV?$Local@VString@v8@@@v8@@V?$Local@VValue@v8@@@3@AEBV?$PropertyCallbackInfo@X@Nan@@@Z 0000000180029120 f   njsIntLob.obj
 0001:00028230       ?GetPieceSize@ILob@@CAXV?$Local@VString@v8@@@v8@@AEBV?$PropertyCallbackInfo@VValue@v8@@@Nan@@@Z 0000000180029230 f   njsIntLob.obj
 0001:00028620       ?SetPieceSize@ILob@@CAXV?$Local@VString@v8@@@v8@@V?$Local@VValue@v8@@@3@AEBV?$PropertyCallbackInfo@X@Nan@@@Z 0000000180029620 f   njsIntLob.obj
 0001:00028c00       ?GetOffset@ILob@@CAXV?$Local@VString@v8@@@v8@@AEBV?$PropertyCallbackInfo@VValue@v8@@@Nan@@@Z 0000000180029c00 f   njsIntLob.obj
 0001:00028ff0       ?SetOffset@ILob@@CAXV?$Local@VString@v8@@@v8@@V?$Local@VValue@v8@@@3@AEBV?$PropertyCallbackInfo@X@Nan@@@Z 0000000180029ff0 f   njsIntLob.obj
 0001:000294d0       ?GetType@ILob@@CAXV?$Local@VString@v8@@@v8@@AEBV?$PropertyCallbackInfo@VValue@v8@@@Nan@@@Z 000000018002a4d0 f   njsIntLob.obj
 0001:00029620       ?SetType@ILob@@CAXV?$Local@VString@v8@@@v8@@V?$Local@VValue@v8@@@3@AEBV?$PropertyCallbackInfo@X@Nan@@@Z 000000018002a620 f   njsIntLob.obj
 0001:00029730       ?GetIsAutoCloseLob@ILob@@CAXV?$Local@VString@v8@@@v8@@AEBV?$PropertyCallbackInfo@VValue@v8@@@Nan@@@Z 000000018002a730 f   njsIntLob.obj
 0001:00029860       ?SetIsAutoCloseLob@ILob@@CAXV?$Local@VString@v8@@@v8@@V?$Local@VValue@v8@@@3@AEBV?$PropertyCallbackInfo@X@Nan@@@Z 000000018002a860 f   njsIntLob.obj
 0001:00029970       ?GetIsValid@ILob@@CAXV?$Local@VString@v8@@@v8@@AEBV?$PropertyCallbackInfo@VValue@v8@@@Nan@@@Z 000000018002a970 f   njsIntLob.obj
 0001:00029aa0       ?SetIsValid@ILob@@CAXV?$Local@VString@v8@@@v8@@V?$Local@VValue@v8@@@3@AEBV?$PropertyCallbackInfo@X@Nan@@@Z 000000018002aaa0 f   njsIntLob.obj
 0001:00029bb0       ?Read@ILob@@CAXAEBV?$FunctionCallbackInfo@VValue@v8@@@Nan@@@Z 000000018002abb0 f   njsIntLob.obj
 0001:0002a170       ?Async_Read@ILob@@CAXPEAUuv_work_s@@@Z 000000018002b170 f   njsIntLob.obj
 0001:0002a2d0       ?Async_AfterRead@ILob@@CAXPEAUuv_work_s@@@Z 000000018002b2d0 f   njsIntLob.obj
 0001:0002a530       ?Write@ILob@@CAXAEBV?$FunctionCallbackInfo@VValue@v8@@@Nan@@@Z 000000018002b530 f   njsIntLob.obj
 0001:0002ab40       ?Async_Write@ILob@@CAXPEAUuv_work_s@@@Z 000000018002bb40 f   njsIntLob.obj
 0001:0002ac90       ?Async_AfterWrite@ILob@@CAXPEAUuv_work_s@@@Z 000000018002bc90 f   njsIntLob.obj
 0001:0002ae60       ??0ProtoILob@@QEAA@PEAUeBaton@@PEAUDescriptor@dpi@@G@Z 000000018002be60 f   njsIntLob.obj
 0001:0002b040       ?cleanup@ProtoILob@@AEAAXXZ 000000018002c040 f   njsIntLob.obj
 0001:0002b090       ??_GEnv@dpi@@MEAAPEAXI@Z   000000018002c090 f i dpiEnv.obj
 0001:0002b090       ??_EEnv@dpi@@MEAAPEAXI@Z   000000018002c090 f i * CIL library *:* CIL module *
 0001:0002b0c0       ??1Env@dpi@@MEAA@XZ        000000018002c0c0 f   dpiEnv.obj
 0001:0002b0d0       ??0exception@stdext@@QEAA@AEBV01@@Z 000000018002c0d0 f i dpiEnvImpl.obj
 0001:0002b0f0       ??0EnvImpl@@QEAA@AEBV?$basic_string@DU?$char_traits@D@std@@V?$allocator@D@2@@std@@II@Z 000000018002c0f0 f   dpiEnvImpl.obj
 0001:0002b230       ??_EEnvImpl@@UEAAPEAXI@Z   000000018002c230 f i * CIL library *:* CIL module *
 0001:0002b230       ??_GEnvImpl@@UEAAPEAXI@Z   000000018002c230 f i dpiEnvImpl.obj
 0001:0002b2a0       ??0ExceptionImpl@@QEAA@AEBV0@@Z 000000018002c2a0 f i dpiEnvImpl.obj
 0001:0002b340       ??0Exception@dpi@@QEAA@AEBV01@@Z 000000018002c340 f i dpiEnvImpl.obj
 0001:0002b360       ??_GExceptionImpl@@UEAAPEAXI@Z 000000018002c360 f i dpiEnvImpl.obj
 0001:0002b360       ??_EExceptionImpl@@UEAAPEAXI@Z 000000018002c360 f i * CIL library *:* CIL module *
 0001:0002b3c0       ?terminate@EnvImpl@@UEAAXXZ 000000018002c3c0 f   dpiEnvImpl.obj
 0001:0002b410       ?poolMax@EnvImpl@@UEAAXI@Z 000000018002c410 f   dpiEnvImpl.obj
 0001:0002b420       ?poolMax@EnvImpl@@UEBAIXZ  000000018002c420 f   dpiEnvImpl.obj
 0001:0002b430       ?poolMin@EnvImpl@@UEAAXI@Z 000000018002c430 f   dpiEnvImpl.obj
 0001:0002b440       ?poolMin@EnvImpl@@UEBAIXZ  000000018002c440 f   dpiEnvImpl.obj
 0001:0002b450       ?poolIncrement@EnvImpl@@UEAAXI@Z 000000018002c450 f   dpiEnvImpl.obj
 0001:0002b460       ?poolIncrement@EnvImpl@@UEBAIXZ 000000018002c460 f   dpiEnvImpl.obj
 0001:0002b470       ?poolTimeout@EnvImpl@@UEAAXI@Z 000000018002c470 f   dpiEnvImpl.obj
 0001:0002b480       ?poolTimeout@EnvImpl@@UEBAIXZ 000000018002c480 f   dpiEnvImpl.obj
 0001:0002b490       ?drvName@EnvImpl@@UEAAAEBV?$basic_string@DU?$char_traits@D@std@@V?$allocator@D@2@@std@@XZ 000000018002c490 f   dpiEnvImpl.obj
 0001:0002b4a0       ?externalAuth@EnvImpl@@UEAAX_N@Z 000000018002c4a0 f   dpiEnvImpl.obj
 0001:0002b4b0       ?externalAuth@EnvImpl@@UEBA_NXZ 000000018002c4b0 f   dpiEnvImpl.obj
 0001:0002b4c0       ?isEventEnabled@EnvImpl@@UEAAX_N@Z 000000018002c4c0 f   dpiEnvImpl.obj
 0001:0002b4d0       ?isEventEnabled@EnvImpl@@UEBA_NXZ 000000018002c4d0 f   dpiEnvImpl.obj
 0001:0002b4e0       ?poolMax@PoolImpl@@UEBAHXZ 000000018002c4e0 f   dpiPoolImpl.obj
 0001:0002b4e0       ?getLOBCharExpansionRatio@ConnImpl@@UEAAIXZ 000000018002c4e0 f   dpiConnImpl.obj
 0001:0002b4e0       ?clientcharset@EnvImpl@@UEBAIXZ 000000018002c4e0 f   dpiEnvImpl.obj
 0001:0002b4f0       ?clientncharset@EnvImpl@@UEBAIXZ 000000018002c4f0 f   dpiEnvImpl.obj
 0001:0002b500       ?createPool@EnvImpl@@UEAAPEAVSPool@dpi@@AEBV?$basic_string@DU?$char_traits@D@std@@V?$allocator@D@2@@std@@00HHHHH_N1H@Z 000000018002c500 f   dpiEnvImpl.obj
 0001:0002b610       ?getConnection@EnvImpl@@UEAAPEAVConn@dpi@@AEBV?$basic_string@DU?$char_traits@D@std@@V?$allocator@D@2@@std@@00H0_NW4DBPrivileges@3@@Z 000000018002c610 f   dpiEnvImpl.obj
 0001:0002b6c0       ?terminatePool@EnvImpl@@UEAAXPEAVPoolImpl@@@Z 000000018002c6c0 f   dpiEnvImpl.obj
 0001:0002b6e0       ?releaseConnection@EnvImpl@@UEAAXPEAVConnImpl@@@Z 000000018002c6e0 f   dpiEnvImpl.obj
 0001:0002b6e0       ?releaseConnection@PoolImpl@@UEAAXPEAVConnImpl@@@Z 000000018002c6e0 f   dpiPoolImpl.obj
 0001:0002b700       ?cleanup@EnvImpl@@AEAAXXZ  000000018002c700 f   dpiEnvImpl.obj
 0001:0002b730       ?getDateTimeArray@EnvImpl@@UEBAPEAVDateTimeArray@dpi@@PEAUOCIError@@@Z 000000018002c730 f   dpiEnvImpl.obj
 0001:0002b780       ?releaseDateTimeArray@EnvImpl@@UEBAXPEAVDateTimeArray@dpi@@@Z 000000018002c780 f   dpiEnvImpl.obj
 0001:0002b7a0       ?allocHandle@EnvImpl@@UEAAPEAUDpiHandle@dpi@@W4HandleType@3@@Z 000000018002c7a0 f   dpiEnvImpl.obj
 0001:0002b7f0       ?allocDescriptor@EnvImpl@@UEAAPEAUDescriptor@dpi@@W4DescriptorType@3@@Z 000000018002c7f0 f   dpiEnvImpl.obj
 0001:0002b840       ?allocDescriptorArray@EnvImpl@@UEAAXW4DescriptorType@dpi@@IQEAPEAUDescriptor@3@@Z 000000018002c840 f   dpiEnvImpl.obj
 0001:0002b880       ?envHandle@EnvImpl@@UEBAPEAUDpiHandle@dpi@@XZ 000000018002c880 f   dpiEnvImpl.obj
 0001:0002b890       ??0ExceptionImpl@@QEAA@W4DpiError@dpi@@@Z 000000018002c890 f   dpiExceptionImpl.obj
 0001:0002bab0       ??0ExceptionImpl@@QEAA@PEBDH0@Z 000000018002cab0 f   dpiExceptionImpl.obj
 0001:0002bb60       ??1ExceptionImpl@@UEAA@XZ  000000018002cb60 f   dpiExceptionImpl.obj
 0001:0002bba0       ?what@ExceptionImpl@@UEBAPEBDXZ 000000018002cba0 f   dpiExceptionImpl.obj
 0001:0002bbb0       ?errnum@ExceptionImpl@@UEBAHXZ 000000018002cbb0 f   dpiExceptionImpl.obj
 0001:0002bbc0       ?origin@ExceptionImpl@@UEBAPEBDXZ 000000018002cbc0 f   dpiExceptionImpl.obj
 0001:0002bbd0       ??$_Insert_string@DU?$char_traits@D@std@@_K@std@@YAAEAV?$basic_ostream@DU?$char_traits@D@std@@@0@AEAV10@QEBD_K@Z 000000018002cbd0 f i dpiExceptionImpl.obj
 0001:0002bee0       ??1Conn@dpi@@MEAA@XZ       000000018002cee0 f i dpiConnImpl.obj
 0001:0002bef0       ??_GConn@dpi@@MEAAPEAXI@Z  000000018002cef0 f i dpiConnImpl.obj
 0001:0002bef0       ??_EConn@dpi@@MEAAPEAXI@Z  000000018002cef0 f i * CIL library *:* CIL module *
 0001:0002bf20       ?tagMatched@ConnImpl@@UEAAHXZ 000000018002cf20 f i dpiConnImpl.obj
 0001:0002bf30       ?tag@ConnImpl@@UEAAAEAV?$basic_string@DU?$char_traits@D@std@@V?$allocator@D@2@@std@@XZ 000000018002cf30 f i dpiConnImpl.obj
 0001:0002bf40       ?getSvch@ConnImpl@@UEAAPEAUDpiHandle@dpi@@XZ 000000018002cf40 f i dpiConnImpl.obj
 0001:0002bf50       ?getErrh@ConnImpl@@UEAAPEAUDpiHandle@dpi@@XZ 000000018002cf50 f i dpiConnImpl.obj
 0001:0002bf60       ??0ConnImpl@@QEAA@PEAVEnvImpl@@PEAUOCIEnv@@_NIAEBV?$basic_string@DU?$char_traits@D@std@@V?$allocator@D@2@@std@@333W4DBPrivileges@dpi@@@Z 000000018002cf60 f   dpiConnImpl.obj
 0001:0002c1e0       ??0ConnImpl@@QEAA@PEAVPoolImpl@@PEAUOCIEnv@@_NPEAEIAEBV?$basic_string@DU?$char_traits@D@std@@V?$allocator@D@2@@std@@444HW4DBPrivileges@dpi@@H@Z 000000018002d1e0 f   dpiConnImpl.obj
 0001:0002c360       ??_GConnImpl@@UEAAPEAXI@Z  000000018002d360 f i dpiConnImpl.obj
 0001:0002c360       ??_EConnImpl@@UEAAPEAXI@Z  000000018002d360 f i * CIL library *:* CIL module *
 0001:0002c3e0       ?release@ConnImpl@@UEAAXAEBV?$basic_string@DU?$char_traits@D@std@@V?$allocator@D@2@@std@@H@Z 000000018002d3e0 f   dpiConnImpl.obj
 0001:0002c520       ?releaseStmt@ConnImpl@@UEAAXPEAVStmt@dpi@@@Z 000000018002d520 f   dpiConnImpl.obj
 0001:0002c540       ?stmtCacheSize@ConnImpl@@UEAAXI@Z 000000018002d540 f   dpiConnImpl.obj
 0001:0002c590       ?getVarCharByteExpansionRatio@ConnImpl@@UEAAIXZ 000000018002d590 f   dpiConnImpl.obj
 0001:0002c5a0       ?stmtCacheSize@ConnImpl@@UEBAIXZ 000000018002d5a0 f   dpiConnImpl.obj
 0001:0002c5f0       ?lobPrefetchSize@ConnImpl@@UEBAIXZ 000000018002d5f0 f   dpiConnImpl.obj
 0001:0002c640       ?clientId@ConnImpl@@UEAAXAEBV?$basic_string@DU?$char_traits@D@std@@V?$allocator@D@2@@std@@@Z 000000018002d640 f   dpiConnImpl.obj
 0001:0002c690       ?module@ConnImpl@@UEAAXAEBV?$basic_string@DU?$char_traits@D@std@@V?$allocator@D@2@@std@@@Z 000000018002d690 f   dpiConnImpl.obj
 0001:0002c6e0       ?action@ConnImpl@@UEAAXAEBV?$basic_string@DU?$char_traits@D@std@@V?$allocator@D@2@@std@@@Z 000000018002d6e0 f   dpiConnImpl.obj
 0001:0002c730       ?getStmt@ConnImpl@@UEAAPEAVStmt@dpi@@AEBV?$basic_string@DU?$char_traits@D@std@@V?$allocator@D@2@@std@@@Z 000000018002d730 f   dpiConnImpl.obj
 0001:0002c780       ?commit@ConnImpl@@UEAAXXZ  000000018002d780 f   dpiConnImpl.obj
 0001:0002c7b0       ?rollback@ConnImpl@@UEAAXXZ 000000018002d7b0 f   dpiConnImpl.obj
 0001:0002c7e0       ?breakExecution@ConnImpl@@UEAAXXZ 000000018002d7e0 f   dpiConnImpl.obj
 0001:0002c830       ?setErrState@ConnImpl@@UEAAXH@Z 000000018002d830 f   dpiConnImpl.obj
 0001:0002c870       ?getServerVersion@ConnImpl@@UEAAIXZ 000000018002d870 f   dpiConnImpl.obj
 0001:0002c8f0       ?initConnImpl@ConnImpl@@AEAAX_N0AEBV?$basic_string@DU?$char_traits@D@std@@V?$allocator@D@2@@std@@PEAEI111HAEAV23@AEAHW4DBPrivileges@dpi@@@Z 000000018002d8f0 f   dpiConnImpl.obj
 0001:0002ce50       ?cleanup@ConnImpl@@AEAAXXZ 000000018002de50 f   dpiConnImpl.obj
 0001:0002cf60       ??_GDateTimeArray@dpi@@UEAAPEAXI@Z 000000018002df60 f i dpiDateTimeArrayImpl.obj
 0001:0002cf60       ??_EDateTimeArray@dpi@@UEAAPEAXI@Z 000000018002df60 f i * CIL library *:* CIL module *
 0001:0002cf90       ??_EDateTimeArrayImpl@dpi@@UEAAPEAXI@Z 000000018002df90 f i * CIL library *:* CIL module *
 0001:0002cf90       ??_GDateTimeArrayImpl@dpi@@UEAAPEAXI@Z 000000018002df90 f i dpiDateTimeArrayImpl.obj
 0001:0002cff0       ?init@DateTimeArrayImpl@dpi@@UEAAPEAXH@Z 000000018002dff0 f   dpiDateTimeArrayImpl.obj
 0001:0002d0f0       ?release@DateTimeArrayImpl@dpi@@UEAAXXZ 000000018002e0f0 f   dpiDateTimeArrayImpl.obj
 0001:0002d160       ?getDateTime@DateTimeArrayImpl@dpi@@UEAAOH@Z 000000018002e160 f   dpiDateTimeArrayImpl.obj
 0001:0002d330       ?setDateTime@DateTimeArrayImpl@dpi@@UEAAXHO@Z 000000018002e330 f   dpiDateTimeArrayImpl.obj
 0001:0002d560       ?initBaseDate@DateTimeArrayImpl@dpi@@SAXPEAUOCIEnv@@@Z 000000018002e560 f   dpiDateTimeArrayImpl.obj
 0001:0002d6c0       ??1SPool@dpi@@MEAA@XZ      000000018002e6c0 f i dpiPoolImpl.obj
 0001:0002d6d0       ??_ESPool@dpi@@MEAAPEAXI@Z 000000018002e6d0 f i * CIL library *:* CIL module *
 0001:0002d6d0       ??_GSPool@dpi@@MEAAPEAXI@Z 000000018002e6d0 f i dpiPoolImpl.obj
 0001:0002d700       ??0PoolImpl@@QEAA@PEAVEnvImpl@@PEAUOCIEnv@@AEBV?$basic_string@DU?$char_traits@D@std@@V?$allocator@D@2@@std@@22HHHH_NH3H@Z 000000018002e700 f   dpiPoolImpl.obj
 0001:0002db40       ??_EPoolImpl@@UEAAPEAXI@Z  000000018002eb40 f i * CIL library *:* CIL module *
 0001:0002db40       ??_GPoolImpl@@UEAAPEAXI@Z  000000018002eb40 f i dpiPoolImpl.obj
 0001:0002db90       ?terminate@PoolImpl@@UEAAXXZ 000000018002eb90 f   dpiPoolImpl.obj
 0001:0002dc20       ?poolTimeout@PoolImpl@@UEAAXI@Z 000000018002ec20 f   dpiPoolImpl.obj
 0001:0002dc70       ?stmtCacheSize@PoolImpl@@UEAAXI@Z 000000018002ec70 f   dpiPoolImpl.obj
 0001:0002dcc0       ?connectionsOpen@PoolImpl@@UEBAIXZ 000000018002ecc0 f   dpiPoolImpl.obj
 0001:0002dd10       ?connectionsInUse@PoolImpl@@UEBAIXZ 000000018002ed10 f   dpiPoolImpl.obj
 0001:0002dd60       ?getConnection@PoolImpl@@UEAAPEAVConn@dpi@@AEBV?$basic_string@DU?$char_traits@D@std@@V?$allocator@D@2@@std@@000HW4DBPrivileges@3@@Z 000000018002ed60 f   dpiPoolImpl.obj
 0001:0002de20       ?cleanup@PoolImpl@@AEAAXXZ 000000018002ee20 f   dpiPoolImpl.obj
 0001:0002dea0       ??1Stmt@dpi@@UEAA@XZ       000000018002eea0 f i dpiStmtImpl.obj
 0001:0002deb0       ??_GStmt@dpi@@UEAAPEAXI@Z  000000018002eeb0 f i dpiStmtImpl.obj
 0001:0002deb0       ??_EStmt@dpi@@UEAAPEAXI@Z  000000018002eeb0 f i * CIL library *:* CIL module *
 0001:0002dee0       ?getError@StmtImpl@@UEAAPEAUOCIError@@XZ 000000018002eee0 f i dpiStmtImpl.obj
 0001:0002def0       ??0StmtImpl@@QEAA@PEAUOCIEnv@@PEAVConnImpl@@PEAUOCISvcCtx@@AEBV?$basic_string@DU?$char_traits@D@std@@V?$allocator@D@2@@std@@@Z 000000018002eef0 f   dpiStmtImpl.obj
 0001:0002e020       ??_EStmtImpl@@UEAAPEAXI@Z  000000018002f020 f i * CIL library *:* CIL module *
 0001:0002e020       ??_GStmtImpl@@UEAAPEAXI@Z  000000018002f020 f i dpiStmtImpl.obj
 0001:0002e080       ?stmtType@StmtImpl@@UEBA?AW4DpiStmtType@dpi@@XZ 000000018002f080 f   dpiStmtImpl.obj
 0001:0002e0e0       ?rowsAffected@StmtImpl@@UEBA_KXZ 000000018002f0e0 f   dpiStmtImpl.obj
 0001:0002e140       ?numCols@StmtImpl@@UEAAIXZ 000000018002f140 f   dpiStmtImpl.obj
 0001:0002e1a0       ?prefetchRows@StmtImpl@@UEAAXI@Z 000000018002f1a0 f   dpiStmtImpl.obj
 0001:0002e1f0       ?bind@StmtImpl@@UEAAXIGPEAX_JPEAFPEAII3PEAUDpiBindCallbackCtx@dpi@@@Z 000000018002f1f0 f   dpiStmtImpl.obj
 0001:0002e330       ?bind@StmtImpl@@UEAAXPEBEHIGPEAX_JPEAFPEAII4PEAUDpiBindCallbackCtx@dpi@@@Z 000000018002f330 f   dpiStmtImpl.obj
 0001:0002e490       ?execute@StmtImpl@@UEAAXH_N@Z 000000018002f490 f   dpiStmtImpl.obj
 0001:0002e4e0       ?release@StmtImpl@@UEAAXXZ 000000018002f4e0 f   dpiStmtImpl.obj
 0001:0002e520       ?define@StmtImpl@@UEAAXIGPEAX_JPEAFPEAIPEAUDpiDefineCallbackCtx@dpi@@@Z 000000018002f520 f   dpiStmtImpl.obj
 0001:0002e650       ?fetch@StmtImpl@@UEAAXI@Z  000000018002f650 f   dpiStmtImpl.obj
 0001:0002e6a0       ?rowsFetched@StmtImpl@@UEBAIXZ 000000018002f6a0 f   dpiStmtImpl.obj
 0001:0002e6f0       ?getMetaData@StmtImpl@@UEAAPEBUMetaData@dpi@@_N@Z 000000018002f6f0 f   dpiStmtImpl.obj
 0001:0002ea30       ?cleanup@StmtImpl@@AEAAXXZ 000000018002fa30 f   dpiStmtImpl.obj
 0001:0002ead0       ?inbindCallback@StmtImpl@@SAHPEAXPEAUOCIBind@@IIPEAPEAXPEAIPEAE2@Z 000000018002fad0 f   dpiStmtImpl.obj
 0001:0002eb10       ?outbindCallback@StmtImpl@@SAHPEAXPEAUOCIBind@@IIPEAPEAXPEAPEAIPEAE2PEAPEAG@Z 000000018002fb10 f   dpiStmtImpl.obj
 0001:0002ec30       ?defineCallback@StmtImpl@@SAHPEAXPEAUOCIDefine@@IPEAPEAXPEAPEAIPEAE2PEAPEAG@Z 000000018002fc30 f   dpiStmtImpl.obj
 0001:0002ec80       ?isReturning@StmtImpl@@UEAA_NXZ 000000018002fc80 f   dpiStmtImpl.obj
 0001:0002ed00       ?getState@StmtImpl@@UEAAIXZ 000000018002fd00 f   dpiStmtImpl.obj
 0001:0002ee9c       __imp_load_uv_queue_work   000000018002fe9c f   node:node.exe
 0001:0002eea8       __tailMerge_node_exe       000000018002fea8     node:node.exe
 0001:0002ef21       __imp_load_?Global@Context@v8@@QEAA?AV?$Local@VObject@v8@@@2@XZ 000000018002ff21 f   node:node.exe
 0001:0002ef2d       __imp_load_?Value@External@v8@@QEBAPEAXXZ 000000018002ff2d f   node:node.exe
 0001:0002ef39       __imp_load_?New@External@v8@@SA?AV?$Local@VExternal@v8@@@2@PEAVIsolate@2@PEAX@Z 000000018002ff39 f   node:node.exe
 0001:0002ef45       __imp_load_?NewFromUnsigned@Integer@v8@@SA?AV?$Local@VInteger@v8@@@2@PEAVIsolate@2@I@Z 000000018002ff45 f   node:node.exe
 0001:0002ef51       __imp_load_?New@Integer@v8@@SA?AV?$Local@VInteger@v8@@@2@PEAVIsolate@2@H@Z 000000018002ff51 f   node:node.exe
 0001:0002ef5d       __imp_load_?New@Signature@v8@@SA?AV?$Local@VSignature@v8@@@2@PEAVIsolate@2@V?$Local@VFunctionTemplate@v8@@@2@@Z 000000018002ff5d f   node:node.exe
 0001:0002ef69       __imp_load_?ThrowException@Isolate@v8@@QEAA?AV?$Local@VValue@v8@@@2@V32@@Z 000000018002ff69 f   node:node.exe
 0001:0002ef75       __imp_load_?GetCurrentContext@Isolate@v8@@QEAA?AV?$Local@VContext@v8@@@2@XZ 000000018002ff75 f   node:node.exe
 0001:0002ef81       __imp_load_?GetCurrent@Isolate@v8@@SAPEAV12@XZ 000000018002ff81 f   node:node.exe
 0001:0002ef8d       __imp_load_?CreateHandle@HandleScope@v8@@KAPEAPEAVObject@internal@2@PEAVIsolate@42@PEAV342@@Z 000000018002ff8d f   node:node.exe
 0001:0002ef99       __imp_load_?CreateHandle@HandleScope@v8@@CAPEAPEAVObject@internal@2@PEAVHeapObject@42@PEAV342@@Z 000000018002ff99 f   node:node.exe
 0001:0002efa5       __imp_load_??1HandleScope@v8@@QEAA@XZ 000000018002ffa5 f   node:node.exe
 0001:0002efb1       __imp_load_??0HandleScope@v8@@QEAA@PEAVIsolate@1@@Z 000000018002ffb1 f   node:node.exe
 0001:0002efbd       __imp_load_?Set@Template@v8@@QEAAXV?$Local@VName@v8@@@2@V?$Local@VData@v8@@@2@W4PropertyAttribute@2@@Z 000000018002ffbd f   node:node.exe
 0001:0002efc9       __imp_load_?Error@Exception@v8@@SA?AV?$Local@VValue@v8@@@2@V?$Local@VString@v8@@@2@@Z 000000018002ffc9 f   node:node.exe
 0001:0002efd5       __imp_load_?New@Array@v8@@SA?AV?$Local@VArray@v8@@@2@PEAVIsolate@2@H@Z 000000018002ffd5 f   node:node.exe
 0001:0002efe1       __imp_load_?Length@Array@v8@@QEBAIXZ 000000018002ffe1 f   node:node.exe
 0001:0002efed       __imp_load_?SetClassName@FunctionTemplate@v8@@QEAAXV?$Local@VString@v8@@@2@@Z 000000018002ffed f   node:node.exe
 0001:0002eff9       __imp_load_?PrototypeTemplate@FunctionTemplate@v8@@QEAA?AV?$Local@VObjectTemplate@v8@@@2@XZ 000000018002fff9 f   node:node.exe
 0001:0002f005       __imp_load_?InstanceTemplate@FunctionTemplate@v8@@QEAA?AV?$Local@VObjectTemplate@v8@@@2@XZ 0000000180030005 f   node:node.exe
 0001:0002f011       __imp_load_?GetFunction@FunctionTemplate@v8@@QEAA?AV?$Local@VFunction@v8@@@2@XZ 0000000180030011 f   node:node.exe
 0001:0002f01d       __imp_load_?GetFunction@FunctionTemplate@v8@@QEAA?AV?$MaybeLocal@VFunction@v8@@@2@V?$Local@VContext@v8@@@2@@Z 000000018003001d f   node:node.exe
 0001:0002f029       __imp_load_?New@FunctionTemplate@v8@@SA?AV?$Local@VFunctionTemplate@v8@@@2@PEAVIsolate@2@P6AXAEBV?$FunctionCallbackInfo@VValue@v8@@@2@@ZV?$Local@VValue@v8@@@2@V?$Local@VSignature@v8@@@2@HW4ConstructorBehavior@2@@Z 0000000180030029 f   node:node.exe
 0001:0002f035       __imp_load_?Value@Boolean@v8@@QEBA_NXZ 0000000180030035 f   node:node.exe
 0001:0002f041       __imp_load_?ToLocalEmpty@V8@v8@@CAXXZ 0000000180030041 f   node:node.exe
 0001:0002f04d       __imp_load_?FromJustIsNothing@V8@v8@@CAXXZ 000000018003004d f   node:node.exe
 0001:0002f059       __imp_load_?ClearWeak@V8@v8@@CAPEAXPEAPEAVObject@internal@2@@Z 0000000180030059 f   node:node.exe
 0001:0002f065       __imp_load_?MakeWeak@V8@v8@@CAXPEAPEAVObject@internal@2@PEAXP6AXAEBV?$WeakCallbackInfo@X@2@@ZW4WeakCallbackType@2@@Z 0000000180030065 f   node:node.exe
 0001:0002f071       __imp_load_?DisposeGlobal@V8@v8@@CAXPEAPEAVObject@internal@2@@Z 0000000180030071 f   node:node.exe
 0001:0002f07d       __imp_load_?GlobalizeReference@V8@v8@@CAPEAPEAVObject@internal@2@PEAVIsolate@42@PEAPEAV342@@Z 000000018003007d f   node:node.exe
 0001:0002f089       __imp_load_?Int32Value@Value@v8@@QEBA?AV?$Maybe@H@2@V?$Local@VContext@v8@@@2@@Z 0000000180030089 f   node:node.exe
 0001:0002f095       __imp_load_?Uint32Value@Value@v8@@QEBA?AV?$Maybe@I@2@V?$Local@VContext@v8@@@2@@Z 0000000180030095 f   node:node.exe
 0001:0002f0a1       __imp_load_?ToInteger@Value@v8@@QEBA?AV?$MaybeLocal@VInteger@v8@@@2@V?$Local@VContext@v8@@@2@@Z 00000001800300a1 f   node:node.exe
 0001:0002f0ad       __imp_load_?IsUint32@Value@v8@@QEBA_NXZ 00000001800300ad f   node:node.exe
 0001:0002f0b9       __imp_load_?IsInt32@Value@v8@@QEBA_NXZ 00000001800300b9 f   node:node.exe
 0001:0002f0c5       __imp_load_?IsNumber@Value@v8@@QEBA_NXZ 00000001800300c5 f   node:node.exe
 0001:0002f0d1       __imp_load_?IsObject@Value@v8@@QEBA_NXZ 00000001800300d1 f   node:node.exe
 0001:0002f0dd       __imp_load_?IsArray@Value@v8@@QEBA_NXZ 00000001800300dd f   node:node.exe
 0001:0002f0e9       __imp_load_?IsFunction@Value@v8@@QEBA_NXZ 00000001800300e9 f   node:node.exe
 0001:0002f0f5       __imp_load_?HasCaught@TryCatch@v8@@QEBA_NXZ 00000001800300f5 f   node:node.exe
 0001:0002f101       __imp_load_??1TryCatch@v8@@QEAA@XZ 0000000180030101 f   node:node.exe
 0001:0002f10d       __imp_load_??0TryCatch@v8@@QEAA@PEAVIsolate@1@@Z 000000018003010d f   node:node.exe
 0001:0002f119       __imp_load_?Escape@EscapableHandleScope@v8@@AEAAPEAPEAVObject@internal@2@PEAPEAV342@@Z 0000000180030119 f   node:node.exe
 0001:0002f125       __imp_load_??0EscapableHandleScope@v8@@QEAA@PEAVIsolate@1@@Z 0000000180030125 f   node:node.exe
 0001:0002f131       __imp_load_??1Utf8Value@String@v8@@QEAA@XZ 0000000180030131 f   node:node.exe
 0001:0002f13d       __imp_load_??0Utf8Value@String@v8@@QEAA@V?$Local@VValue@v8@@@2@@Z 000000018003013d f   node:node.exe
 0001:0002f149       __imp_load_?NewFromUtf8@String@v8@@SA?AV?$MaybeLocal@VString@v8@@@2@PEAVIsolate@2@PEBDW4NewStringType@2@H@Z 0000000180030149 f   node:node.exe
 0001:0002f155       __imp_load_?SlowGetAlignedPointerFromInternalField@Object@v8@@AEAAPEAXH@Z 0000000180030155 f   node:node.exe
 0001:0002f161       __imp_load_?SlowGetInternalField@Object@v8@@AEAA?AV?$Local@VValue@v8@@@2@H@Z 0000000180030161 f   node:node.exe
 0001:0002f16d       __imp_load_?SetAlignedPointerInInternalField@Object@v8@@QEAAXHPEAX@Z 000000018003016d f   node:node.exe
 0001:0002f179       __imp_load_?SetInternalField@Object@v8@@QEAAXHV?$Local@VValue@v8@@@2@@Z 0000000180030179 f   node:node.exe
 0001:0002f185       __imp_load_?InternalFieldCount@Object@v8@@QEAAHXZ 0000000180030185 f   node:node.exe
 0001:0002f191       __imp_load_?Get@Object@v8@@QEAA?AV?$Local@VValue@v8@@@2@V32@@Z 0000000180030191 f   node:node.exe
 0001:0002f19d       __imp_load_?Get@Object@v8@@QEAA?AV?$Local@VValue@v8@@@2@I@Z 000000018003019d f   node:node.exe
 0001:0002f1a9       __imp_load_?Set@Object@v8@@QEAA?AV?$Maybe@_N@2@V?$Local@VContext@v8@@@2@V?$Local@VValue@v8@@@2@1@Z 00000001800301a9 f   node:node.exe
 0001:0002f1b5       __imp_load_?Set@Object@v8@@QEAA_NIV?$Local@VValue@v8@@@2@@Z 00000001800301b5 f   node:node.exe
 0001:0002f1c1       __imp_load_?SetInternalFieldCount@ObjectTemplate@v8@@QEAAXH@Z 00000001800301c1 f   node:node.exe
 0001:0002f1cd       __imp_load_?SetAccessor@ObjectTemplate@v8@@QEAAXV?$Local@VName@v8@@@2@P6AX0AEBV?$PropertyCallbackInfo@VValue@v8@@@2@@ZP6AX0V?$Local@VValue@v8@@@2@AEBV?$PropertyCallbackInfo@X@2@@Z3W4AccessControl@2@W4PropertyAttribute@2@V?$Local@VAccessorSignature@v8@@@2@@Z 00000001800301cd f   node:node.exe
 0001:0002f1d9       __imp_load_?NewInstance@ObjectTemplate@v8@@QEAA?AV?$MaybeLocal@VObject@v8@@@2@V?$Local@VContext@v8@@@2@@Z 00000001800301d9 f   node:node.exe
 0001:0002f1e5       __imp_load_?New@ObjectTemplate@v8@@SA?AV?$Local@VObjectTemplate@v8@@@2@PEAVIsolate@2@V?$Local@VFunctionTemplate@v8@@@2@@Z 00000001800301e5 f   node:node.exe
 0001:0002f1f1       __imp_load_?FatalException@node@@YAXPEAVIsolate@v8@@AEBVTryCatch@3@@Z 00000001800301f1 f   node:node.exe
 0001:0002f1fd       __imp_load_node_module_register 00000001800301fd f   node:node.exe
 0001:0002f209       __imp_load_?MakeCallback@node@@YA?AV?$Local@VValue@v8@@@v8@@PEAVIsolate@3@V?$Local@VObject@v8@@@3@V?$Local@VFunction@v8@@@3@HPEAV23@@Z 0000000180030209 f   node:node.exe
 0001:0002f215       __imp_load_uv_default_loop 0000000180030215 f   node:node.exe
 0001:0002f221       __imp_load_?ToObject@Value@v8@@QEBA?AV?$Local@VObject@v8@@@2@XZ 0000000180030221 f   node:node.exe
 0001:0002f22d       __imp_load_?ToString@Value@v8@@QEBA?AV?$Local@VString@v8@@@2@XZ 000000018003022d f   node:node.exe
 0001:0002f239       __imp_load_?ToBoolean@Value@v8@@QEBA?AV?$Local@VBoolean@v8@@@2@XZ 0000000180030239 f   node:node.exe
 0001:0002f245       __imp_load_?NewInstance@Function@v8@@QEBA?AV?$MaybeLocal@VObject@v8@@@2@V?$Local@VContext@v8@@@2@@Z 0000000180030245 f   node:node.exe
 0001:0002f251       __imp_load_??1EscapableHandleScope@v8@@QEAA@XZ 0000000180030251 f   node:node.exe
 0001:0002f25d       __imp_load_?New@Date@v8@@SA?AV?$MaybeLocal@VValue@v8@@@2@V?$Local@VContext@v8@@@2@N@Z 000000018003025d f   node:node.exe
 0001:0002f269       __imp_load_?NumberValue@Value@v8@@QEBANXZ 0000000180030269 f   node:node.exe
 0001:0002f275       __imp_load_?IsDate@Value@v8@@QEBA_NXZ 0000000180030275 f   node:node.exe
 0001:0002f281       __imp_load_?New@Number@v8@@SA?AV?$Local@VNumber@v8@@@2@PEAVIsolate@2@N@Z 0000000180030281 f   node:node.exe
 0001:0002f28d       __imp_load_?New@Object@v8@@SA?AV?$Local@VObject@v8@@@2@PEAVIsolate@2@@Z 000000018003028d f   node:node.exe
 0001:0002f299       __imp_load_?GetOwnPropertyNames@Object@v8@@QEAA?AV?$Local@VArray@v8@@@2@XZ 0000000180030299 f   node:node.exe
 0001:0002f2a5       __imp_load_?ForceSet@Object@v8@@QEAA?AV?$Maybe@_N@2@V?$Local@VContext@v8@@@2@V?$Local@VValue@v8@@@2@1W4PropertyAttribute@2@@Z 00000001800302a5 f   node:node.exe
 0001:0002f2b1       __imp_load_?Set@Object@v8@@QEAA?AV?$Maybe@_N@2@V?$Local@VContext@v8@@@2@IV?$Local@VValue@v8@@@2@@Z 00000001800302b1 f   node:node.exe
 0001:0002f2bd       __imp_load_?Call@Function@v8@@QEAA?AV?$Local@VValue@v8@@@2@V32@HQEAV32@@Z 00000001800302bd f   node:node.exe
 0001:0002f2c9       __imp_load_?HasInstance@Buffer@node@@YA_NV?$Local@VValue@v8@@@v8@@@Z 00000001800302c9 f   node:node.exe
 0001:0002f2d5       __imp_load_?HasInstance@Buffer@node@@YA_NV?$Local@VObject@v8@@@v8@@@Z 00000001800302d5 f   node:node.exe
 0001:0002f2e1       __imp_load_?Data@Buffer@node@@YAPEADV?$Local@VObject@v8@@@v8@@@Z 00000001800302e1 f   node:node.exe
 0001:0002f2ed       __imp_load_?Copy@Buffer@node@@YA?AV?$MaybeLocal@VObject@v8@@@v8@@PEAVIsolate@4@PEBD_K@Z 00000001800302ed f   node:node.exe
 0001:0002f2f9       __imp_load_?Length@Buffer@node@@YA_KV?$Local@VObject@v8@@@v8@@@Z 00000001800302f9 f   node:node.exe
 0001:0002f305       __imp_load_?HasInstance@FunctionTemplate@v8@@QEAA_NV?$Local@VValue@v8@@@2@@Z 0000000180030305 f   node:node.exe
 0001:0002f314       ??0_Init_locks@std@@QEAA@XZ 0000000180030314 f   libcpmt:xlock.obj
 0001:0002f360       ??0_Lockit@std@@QEAA@H@Z   0000000180030360 f   libcpmt:xlock.obj
 0001:0002f39c       ??1_Init_locks@std@@QEAA@XZ 000000018003039c f   libcpmt:xlock.obj
 0001:0002f3e0       ??1_Lockit@std@@QEAA@XZ    00000001800303e0 f   libcpmt:xlock.obj
 0001:0002f414       ??4?$_Yarn@D@std@@QEAAAEAV01@PEBD@Z 0000000180030414 f i libcpmt:locale0.obj
 0001:0002f48c       ??_G_Fac_node@std@@QEAAPEAXI@Z 000000018003048c f i libcpmt:locale0.obj
 0001:0002f518       ??_G_Locimp@locale@std@@MEAAPEAXI@Z 0000000180030518 f i libcpmt:locale0.obj
 0001:0002f518       ??_E_Locimp@locale@std@@MEAAPEAXI@Z 0000000180030518 f i libcpmt:locale0.obj
 0001:0002f584       ?_Facet_Register@std@@YAXPEAV_Facet_base@1@@Z 0000000180030584 f   libcpmt:locale0.obj
 0001:0002f5bc       ?_Getgloballocale@locale@std@@CAPEAV_Locimp@12@XZ 00000001800305bc f   libcpmt:locale0.obj
 0001:0002f5c4       ?_Init@locale@std@@CAPEAV_Locimp@12@_N@Z 00000001800305c4 f   libcpmt:locale0.obj
 0001:0002f680       ?_Locimp_dtor@_Locimp@locale@std@@CAXPEAV123@@Z 0000000180030680 f   libcpmt:locale0.obj
 0001:0002f728       ?_Locinfo_ctor@_Locinfo@std@@SAXPEAV12@PEBD@Z 0000000180030728 f   libcpmt:locale0.obj
 0001:0002f794       ?_Locinfo_dtor@_Locinfo@std@@SAXPEAV12@@Z 0000000180030794 f   libcpmt:locale0.obj
 0001:0002f7b8       ?_New_Locimp@_Locimp@locale@std@@CAPEAV123@_N@Z 00000001800307b8 f   libcpmt:locale0.obj
 0001:0002f828       ?_Setgloballocale@locale@std@@CAXPEAX@Z 0000000180030828 f   libcpmt:locale0.obj
 0001:0002f85c       _Deletegloballocale        000000018003085c f   libcpmt:locale0.obj
 0001:0002f8e4       ??0bad_alloc@std@@QEAA@AEBV01@@Z 00000001800308e4 f i libcpmt:xthrow.obj
 0001:0002f924       ??0bad_alloc@std@@QEAA@XZ  0000000180030924 f i libcpmt:xthrow.obj
 0001:0002f944       ??0exception@std@@QEAA@AEBV01@@Z 0000000180030944 f i libcpmt:xthrow.obj
 0001:0002f97c       ??0length_error@std@@QEAA@AEBV01@@Z 000000018003097c f i libcpmt:xthrow.obj
 0001:0002f9bc       ??0length_error@std@@QEAA@PEBD@Z 00000001800309bc f i libcpmt:xthrow.obj
 0001:0002fa08       ??0logic_error@std@@QEAA@AEBV01@@Z 0000000180030a08 f i libcpmt:xthrow.obj
 0001:0002fa48       ??0out_of_range@std@@QEAA@AEBV01@@Z 0000000180030a48 f i libcpmt:xthrow.obj
 0001:0002fa88       ??0out_of_range@std@@QEAA@PEBD@Z 0000000180030a88 f i libcpmt:xthrow.obj
 0001:0002fad4       ??1out_of_range@std@@UEAA@XZ 0000000180030ad4 f i libcpmt:xthrow.obj
 0001:0002fad4       ??1length_error@std@@UEAA@XZ 0000000180030ad4 f i libcpmt:xthrow.obj
 0001:0002fad4       ??1bad_alloc@std@@UEAA@XZ  0000000180030ad4 f i libcpmt:xthrow.obj
 0001:0002fad4       ??1bad_array_new_length@std@@UEAA@XZ 0000000180030ad4 f i LIBCMT:throw_bad_alloc.obj
 0001:0002fad4       ??1bad_exception@std@@UEAA@XZ 0000000180030ad4 f i libvcruntime:frame.obj
 0001:0002fae8       ??_Eout_of_range@std@@UEAAPEAXI@Z 0000000180030ae8 f i libcpmt:xthrow.obj
 0001:0002fae8       ??_Glength_error@std@@UEAAPEAXI@Z 0000000180030ae8 f i libcpmt:xthrow.obj
 0001:0002fae8       ??_Elength_error@std@@UEAAPEAXI@Z 0000000180030ae8 f i libcpmt:xthrow.obj
 0001:0002fae8       ??_Glogic_error@std@@UEAAPEAXI@Z 0000000180030ae8 f i libcpmt:xthrow.obj
 0001:0002fae8       ??_Eexception@std@@UEAAPEAXI@Z 0000000180030ae8 f i libcpmt:xthrow.obj
 0001:0002fae8       ??_Ebad_array_new_length@std@@UEAAPEAXI@Z 0000000180030ae8 f i LIBCMT:throw_bad_alloc.obj
 0001:0002fae8       ??_Ebad_alloc@std@@UEAAPEAXI@Z 0000000180030ae8 f i libcpmt:xthrow.obj
 0001:0002fae8       ??_Ebad_exception@std@@UEAAPEAXI@Z 0000000180030ae8 f i libvcruntime:frame.obj
 0001:0002fae8       ??_Elogic_error@std@@UEAAPEAXI@Z 0000000180030ae8 f i libcpmt:xthrow.obj
 0001:0002fae8       ??_Gbad_alloc@std@@UEAAPEAXI@Z 0000000180030ae8 f i libcpmt:xthrow.obj
 0001:0002fae8       ??_Gexception@std@@UEAAPEAXI@Z 0000000180030ae8 f i libcpmt:xthrow.obj
 0001:0002fae8       ??_Gbad_array_new_length@std@@UEAAPEAXI@Z 0000000180030ae8 f i LIBCMT:throw_bad_alloc.obj
 0001:0002fae8       ??_Gout_of_range@std@@UEAAPEAXI@Z 0000000180030ae8 f i libcpmt:xthrow.obj
 0001:0002fae8       ??_Gbad_exception@std@@UEAAPEAXI@Z 0000000180030ae8 f i libvcruntime:frame.obj
 0001:0002fb2c       ?_Xbad_alloc@std@@YAXXZ    0000000180030b2c f   libcpmt:xthrow.obj
 0001:0002fb2c       ?__scrt_throw_std_bad_alloc@@YAXXZ 0000000180030b2c f   LIBCMT:throw_bad_alloc.obj
 0001:0002fb4c       ?_Xlength_error@std@@YAXPEBD@Z 0000000180030b4c f   libcpmt:xthrow.obj
 0001:0002fb70       ?_Xout_of_range@std@@YAXPEBD@Z 0000000180030b70 f   libcpmt:xthrow.obj
 0001:0002fb94       ?what@exception@std@@UEBAPEBDXZ 0000000180030b94 f i libcpmt:xthrow.obj
 0001:0002fba8       ?_Ios_base_dtor@ios_base@std@@CAXPEAV12@@Z 0000000180030ba8 f   libcpmt:ios.obj
 0001:0002fbec       ?_Tidy@ios_base@std@@AEAAXXZ 0000000180030bec f i libcpmt:ios.obj
 0001:0002fc7c       ?_Syserror_map@std@@YAPEBDH@Z 0000000180030c7c f   libcpmt:syserror.obj
 0001:0002fca4       _Getctype                  0000000180030ca4 f   libcpmt:_tolower.obj
 0001:0002fd64       _Tolower                   0000000180030d64 f   libcpmt:_tolower.obj
 0001:0002fe8c       _Getcvt                    0000000180030e8c f   libcpmt:xwctomb.obj
 0001:0002ff1c       _Toupper                   0000000180030f1c f   libcpmt:_toupper.obj
 0001:00030054       ?setw@std@@YA?AU?$_Smanip@_J@1@_J@Z 0000000180031054 f   libcpmt:iomanip.obj
 0001:00030070       _Mtxdst                    0000000180031070 f   libcpmt:xmtx.obj
 0001:00030078       _Mtxinit                   0000000180031078 f   libcpmt:xmtx.obj
 0001:00030088       _Mtxlock                   0000000180031088 f   libcpmt:xmtx.obj
 0001:00030090       _Mtxunlock                 0000000180031090 f   libcpmt:xmtx.obj
 0001:00030098       ?_Atexit@@YAXP6AXXZ@Z      0000000180031098 f   libcpmt:iosptrs.obj
 0001:000300d8       __crtLCMapStringA          00000001800310d8 f   libcpmt:StlLCMapStringA.obj
 0001:00030894       __crtInitializeCriticalSectionEx 0000000180031894 f   libcpmt:winapisupp.obj
 0001:000308f4       GetTableIndexFromLocaleName 00000001800318f4 f   libcpmt:winapinls.obj
 0001:00030980       __crtDownlevelLocaleNameToLCID 0000000180031980 f   libcpmt:winapinls.obj
 0001:000309b4       __crtLCMapStringEx         00000001800319b4 f   libcpmt:winapinls.obj
 0001:00030a70       __wcsnicmp_ascii           0000000180031a70 f   libcpmt:winapinls.obj
 0001:00030ae0       __security_check_cookie    0000000180031ae0 f   LIBCMT:_amdsecgs_.obj
 0001:00030b04       ??_V@YAXPEAX@Z             0000000180031b04 f   LIBCMT:delete_array.obj
 0001:00030b04       ??3@YAXPEAX_K@Z            0000000180031b04 f   LIBCMT:delete_scalar_size.obj
 0001:00030c80       _Init_thread_footer        0000000180031c80 f   LIBCMT:thread_safe_statics.obj
 0001:00030ce0       _Init_thread_header        0000000180031ce0 f   LIBCMT:thread_safe_statics.obj
 0001:00030d48       _Init_thread_notify        0000000180031d48 f   LIBCMT:thread_safe_statics.obj
 0001:00030da4       _Init_thread_wait          0000000180031da4 f   LIBCMT:thread_safe_statics.obj
 0001:00030e3c       ??2@YAPEAX_K@Z             0000000180031e3c f   LIBCMT:new_scalar.obj
 0001:00030e78       __scrt_acquire_startup_lock 0000000180031e78 f   LIBCMT:utility.obj
 0001:00030eb4       __scrt_dllmain_after_initialize_c 0000000180031eb4 f   LIBCMT:utility.obj
 0001:00030ee8       __scrt_dllmain_before_initialize_c 0000000180031ee8 f   LIBCMT:utility.obj
 0001:00030f00       __scrt_dllmain_crt_thread_attach 0000000180031f00 f   LIBCMT:utility.obj
 0001:00030f28       __scrt_dllmain_crt_thread_detach 0000000180031f28 f   LIBCMT:utility.obj
 0001:00030f40       __scrt_dllmain_exception_filter 0000000180031f40 f   LIBCMT:utility.obj
 0001:00030fa4       __scrt_dllmain_uninitialize_c 0000000180031fa4 f   LIBCMT:utility.obj
 0001:00030fd4       __scrt_dllmain_uninitialize_critical 0000000180031fd4 f   LIBCMT:utility.obj
 0001:00030fe8       __scrt_initialize_crt      0000000180031fe8 f   LIBCMT:utility.obj
 0001:00031034       __scrt_initialize_onexit_tables 0000000180032034 f   LIBCMT:utility.obj
 0001:00031114       __scrt_is_nonwritable_in_current_image 0000000180032114 f   LIBCMT:utility.obj
 0001:000311b0       __scrt_release_startup_lock 00000001800321b0 f   LIBCMT:utility.obj
 0001:000311d4       __scrt_uninitialize_crt    00000001800321d4 f   LIBCMT:utility.obj
 0001:00031200       _onexit                    0000000180032200 f   LIBCMT:utility.obj
 0001:00031250       atexit                     0000000180032250 f   LIBCMT:utility.obj
 0001:00031268       ??3@YAXPEAX@Z              0000000180032268 f   LIBCMT:delete_scalar.obj
 0001:00031270       ??_Etype_info@@UEAAPEAXI@Z 0000000180032270 f i LIBCMT:std_type_info_static.obj
 0001:00031270       ??_Gtype_info@@UEAAPEAXI@Z 0000000180032270 f i LIBCMT:std_type_info_static.obj
 0001:0003129c       ??_V@YAXPEAX_K@Z           000000018003229c f   LIBCMT:delete_array_size.obj
 0001:000312a4       ??_M@YAXPEAX_K1P6AX0@Z@Z   00000001800322a4 f   LIBCMT:ehvecdtr.obj
 0001:00031310       ?__ArrayUnwind@@YAXPEAX_K1P6AX0@Z@Z 0000000180032310 f   LIBCMT:ehvecdtr.obj
 0001:00031374       ??_U@YAPEAX_K@Z            0000000180032374 f   LIBCMT:new_array.obj
 0001:0003137c       ??_L@YAXPEAX_K1P6AX0@Z2@Z  000000018003237c f   LIBCMT:ehvecctr.obj
 0001:000313ec       __raise_securityfailure    00000001800323ec f   LIBCMT:gs_report.obj
 0001:00031420       __report_gsfailure         0000000180032420 f   LIBCMT:gs_report.obj
 0001:000314f4       __report_rangecheckfailure 00000001800324f4 f   LIBCMT:gs_report.obj
 0001:00031508       __report_securityfailure   0000000180032508 f   LIBCMT:gs_report.obj
 0001:000319c4       _DllMainCRTStartup         00000001800329c4 f   LIBCMT:dll_dllmain.obj
 0001:00031a04       _guard_check_icall         0000000180032a04 f i LIBCMT:checkcfg.obj
 0001:00031a0c       __GSHandlerCheck           0000000180032a0c f   LIBCMT:_gshandler_.obj
 0001:00031a2c       __GSHandlerCheckCommon     0000000180032a2c f   LIBCMT:_gshandler_.obj
 0001:00031a88       __GSHandlerCheck_EH        0000000180032a88 f   LIBCMT:gshandlereh.obj
 0001:00031b20       _alloca_probe              0000000180032b20 f   LIBCMT:_chkstk_.obj
 0001:00031b20       __chkstk                   0000000180032b20 f   LIBCMT:_chkstk_.obj
 0001:00031b74       __crt_debugger_hook        0000000180032b74 f   LIBCMT:utility_desktop.obj
 0001:00031b7c       __scrt_fastfail            0000000180032b7c f   LIBCMT:utility_desktop.obj
 0001:00031cc4       ??0bad_array_new_length@std@@QEAA@AEBV01@@Z 0000000180032cc4 f i LIBCMT:throw_bad_alloc.obj
 0001:00031d04       ??0bad_array_new_length@std@@QEAA@XZ 0000000180032d04 f i LIBCMT:throw_bad_alloc.obj
 0001:00031d24       ?__scrt_throw_std_bad_array_new_length@@YAXXZ 0000000180032d24 f   LIBCMT:throw_bad_alloc.obj
 0001:00031d44       __isa_available_init       0000000180032d44 f   LIBCMT:_cpu_disp_.obj
 0001:00031f00       DllMain                    0000000180032f00 f   LIBCMT:dll_dllmain_stub.obj
 0001:00031f00       _get_startup_argv_mode     0000000180032f00 f   LIBCMT:argv_mode.obj
 0001:00031f08       __scrt_is_ucrt_dll_in_use  0000000180032f08 f   LIBCMT:ucrt_detection.obj
 0001:00031f14       __security_init_cookie     0000000180032f14 f   LIBCMT:gs_support.obj
 0001:00031fc0       ?__scrt_initialize_type_info@@YAXXZ 0000000180032fc0 f   LIBCMT:tncleanup.obj
 0001:00031fd0       ?__scrt_uninitialize_type_info@@YAXXZ 0000000180032fd0 f   LIBCMT:tncleanup.obj
 0001:00031fdc       __local_stdio_scanf_options 0000000180032fdc f i LIBCMT:default_local_stdio_options.obj
 0001:00031fe4       __scrt_initialize_default_local_stdio_options 0000000180032fe4 f   LIBCMT:default_local_stdio_options.obj
 0001:00032000       __scrt_get_dyn_tls_init_callback 0000000180033000 f   LIBCMT:dyn_tls_init.obj
 0001:00032008       _RTC_Initialize            0000000180033008 f   LIBCMT:_initsect_.obj
 0001:00032054       _RTC_Terminate             0000000180033054 f   LIBCMT:_initsect_.obj
 0001:000320a0       ?_ExecutionInCatch@@YAHPEAU_xDISPATCHER_CONTEXT@@PEBU_s_FuncInfo@@@Z 00000001800330a0 f   libvcruntime:trnsctrl.obj
 0001:00032114       ?_GetEstablisherFrame@@YAPEA_KPEA_KPEAU_xDISPATCHER_CONTEXT@@PEBU_s_FuncInfo@@0@Z 0000000180033114 f   libvcruntime:trnsctrl.obj
 0001:000321e0       ?_GetRangeOfTrysToCheck@@YAPEBU_s_TryBlockMapEntry@@PEA_KPEBU_s_FuncInfo@@HHPEAI2PEAU_xDISPATCHER_CONTEXT@@@Z 00000001800331e0 f   libvcruntime:trnsctrl.obj
 0001:0003230c       ?__FrameUnwindToEmptyState@@YAXPEA_KPEAU_xDISPATCHER_CONTEXT@@PEBU_s_FuncInfo@@@Z 000000018003330c f   libvcruntime:trnsctrl.obj
 0001:000323a0       ?__SehTransFilter@@YAHPEAU_EXCEPTION_POINTERS@@PEAUEHExceptionRecord@@PEA_KPEAU_CONTEXT@@PEAU_xDISPATCHER_CONTEXT@@PEBU_s_FuncInfo@@PEAH@Z 00000001800333a0 f   libvcruntime:trnsctrl.obj
 0001:00032438       _CallSETranslator          0000000180033438 f   libvcruntime:trnsctrl.obj
 0001:00032490       _CreateFrameInfo           0000000180033490 f   libvcruntime:trnsctrl.obj
 0001:000324cc       _FindAndUnlinkFrame        00000001800334cc f   libvcruntime:trnsctrl.obj
 0001:00032524       _GetImageBase              0000000180033524 f   libvcruntime:trnsctrl.obj
 0001:00032538       _GetThrowImageBase         0000000180033538 f   libvcruntime:trnsctrl.obj
 0001:0003254c       _IsExceptionObjectToBeDestroyed 000000018003354c f   libvcruntime:trnsctrl.obj
 0001:0003257c       _SetImageBase              000000018003357c f   libvcruntime:trnsctrl.obj
 0001:00032594       _SetThrowImageBase         0000000180033594 f   libvcruntime:trnsctrl.obj
 0001:000325ac       _UnwindNestedFrames        00000001800335ac f   libvcruntime:trnsctrl.obj
 0001:000326d0       __CxxFrameHandler3         00000001800336d0 f   libvcruntime:trnsctrl.obj
 0001:00032760       memcpy                     0000000180033760 f   libvcruntime:memcpy.obj
 0001:00032760       memmove                    0000000180033760 f   libvcruntime:memcpy.obj
 0001:00032b98       _purecall                  0000000180033b98 f   libvcruntime:purevirt.obj
 0001:00032bd0       __DestructExceptionObject  0000000180033bd0 f   libvcruntime:frame.obj
 0001:00032c58       ??0bad_exception@std@@QEAA@AEBV01@@Z 0000000180033c58 f i libvcruntime:frame.obj
 0001:00032c98       ??0bad_exception@std@@QEAA@XZ 0000000180033c98 f i libvcruntime:frame.obj
 0001:00033614       ?_CallMemberFunction0@@YAXPEAXP6AX0@Z@Z 0000000180034614 f i libvcruntime:frame.obj
 0001:00033618       ?_CallMemberFunction1@@YAXPEAXP6AX0@Z0@Z 0000000180034618 f i libvcruntime:frame.obj
 0001:00033624       ?_CallMemberFunction2@@YAXPEAXP6AX0@Z0H@Z 0000000180034624 f i libvcruntime:frame.obj
 0001:00033634       __AdjustPointer            0000000180034634 f   libvcruntime:frame.obj
 0001:00033658       __BuildCatchObject         0000000180034658 f   libvcruntime:frame.obj
 0001:0003371c       __BuildCatchObjectHelper   000000018003471c f   libvcruntime:frame.obj
 0001:000338fc       __CxxCallCatchBlock        00000001800348fc f   libvcruntime:frame.obj
 0001:00033ae8       __FrameUnwindFilter        0000000180034ae8 f   libvcruntime:frame.obj
 0001:00033b34       __FrameUnwindToState       0000000180034b34 f   libvcruntime:frame.obj
 0001:00033cc8       __InternalCxxFrameHandler  0000000180034cc8 f   libvcruntime:frame.obj
 0001:00033f20       __TypeMatch                0000000180034f20 f   libvcruntime:frame.obj
 0001:00034060       __std_terminate            0000000180035060 f   libvcruntime:frame.obj
 0001:0003406c       __std_exception_copy       000000018003506c f   libvcruntime:std_exception.obj
 0001:000340fc       __std_exception_destroy    00000001800350fc f   libvcruntime:std_exception.obj
 0001:00034124       _CxxThrowException         0000000180035124 f   libvcruntime:throw.obj
 0001:00034210       memset                     0000000180035210 f   libvcruntime:memset.obj
 0001:000343c0       memcmp                     00000001800353c0 f   libvcruntime:memcmp.obj
 0001:00034660       __vcrt_FlsAlloc            0000000180035660 f   libvcruntime:winapi_downlevel.obj
 0001:000346b4       __vcrt_FlsFree             00000001800356b4 f   libvcruntime:winapi_downlevel.obj
 0001:00034708       __vcrt_FlsGetValue         0000000180035708 f   libvcruntime:winapi_downlevel.obj
 0001:0003475c       __vcrt_FlsSetValue         000000018003575c f   libvcruntime:winapi_downlevel.obj
 0001:000347c4       __vcrt_InitializeCriticalSectionEx 00000001800357c4 f   libvcruntime:winapi_downlevel.obj
 0001:0003483c       __vcrt_initialize_winapi_thunks 000000018003583c f   libvcruntime:winapi_downlevel.obj
 0001:00034880       __vcrt_uninitialize_winapi_thunks 0000000180035880 f   libvcruntime:winapi_downlevel.obj
 0001:000348c0       __vcrt_initialize          00000001800358c0 f   libvcruntime:initialization.obj
 0001:000348f4       __vcrt_thread_attach       00000001800358f4 f   libvcruntime:initialization.obj
 0001:00034908       __vcrt_thread_detach       0000000180035908 f   libvcruntime:initialization.obj
 0001:0003491c       __vcrt_uninitialize        000000018003591c f   libvcruntime:initialization.obj
 0001:0003493c       __vcrt_uninitialize_critical 000000018003593c f   libvcruntime:initialization.obj
 0001:0003494c       __C_specific_handler       000000018003594c f   libvcruntime:_chandler_.obj
 0001:00034b48       __std_type_info_compare    0000000180035b48 f   libvcruntime:std_type_info.obj
 0001:00034b70       __std_type_info_destroy_list 0000000180035b70 f   libvcruntime:std_type_info.obj
 0001:00034b9c       __vcrt_freefls             0000000180035b9c f   libvcruntime:per_thread_data.obj
 0001:00034bbc       __vcrt_freeptd             0000000180035bbc f   libvcruntime:per_thread_data.obj
 0001:00034c0c       __vcrt_getptd              0000000180035c0c f   libvcruntime:per_thread_data.obj
 0001:00034c28       __vcrt_getptd_noexit       0000000180035c28 f   libvcruntime:per_thread_data.obj
 0001:00034ce0       __vcrt_initialize_ptd      0000000180035ce0 f   libvcruntime:per_thread_data.obj
 0001:00034d20       __vcrt_uninitialize_ptd    0000000180035d20 f   libvcruntime:per_thread_data.obj
 0001:00034d44       ?__GetCurrentState@@YAHPEA_KPEAU_xDISPATCHER_CONTEXT@@PEBU_s_FuncInfo@@@Z 0000000180035d44 f   libvcruntime:ehstate.obj
 0001:00034d6c       ?__GetUnwindTryBlock@@YAHPEA_KPEAU_xDISPATCHER_CONTEXT@@PEBU_s_FuncInfo@@@Z 0000000180035d6c f   libvcruntime:ehstate.obj
 0001:00034d98       ?__SetState@@YAXPEA_KPEAU_xDISPATCHER_CONTEXT@@PEBU_s_FuncInfo@@H@Z 0000000180035d98 f   libvcruntime:ehstate.obj
 0001:00034da4       ?__SetUnwindTryBlock@@YAXPEA_KPEAU_xDISPATCHER_CONTEXT@@PEBU_s_FuncInfo@@H@Z 0000000180035da4 f   libvcruntime:ehstate.obj
 0001:00034de0       ?__StateFromControlPc@@YAHPEBU_s_FuncInfo@@PEAU_xDISPATCHER_CONTEXT@@@Z 0000000180035de0 f   libvcruntime:ehstate.obj
 0001:00034de8       ?__StateFromIp@@YAHPEBU_s_FuncInfo@@PEAU_xDISPATCHER_CONTEXT@@_J@Z 0000000180035de8 f   libvcruntime:ehstate.obj
 0001:00034e54       __vcrt_initialize_pure_virtual_call_handler 0000000180035e54 f   libvcruntime:purevirt_data.obj
 0001:00034e90       _CallSettingFrame          0000000180035e90 f   libvcruntime:handlers.obj
 0001:00034ed0       __except_validate_context_record 0000000180035ed0 f   libvcruntime:jbcxrval.obj
 0001:00034f20       _local_unwind              0000000180035f20 f   libvcruntime:_jmpuwind_.obj
 0001:00034f50       _NLG_Notify                0000000180035f50 f   libvcruntime:_jmpuwind_.obj
 0001:00034f70       __NLG_Dispatch2            0000000180035f70 f   libvcruntime:_jmpuwind_.obj
 0001:00034f80       __NLG_Return2              0000000180035f80 f   libvcruntime:_jmpuwind_.obj
 0001:00034f84       __vcrt_initialize_locks    0000000180035f84 f   libvcruntime:locks.obj
 0001:00034fcc       __vcrt_uninitialize_locks  0000000180035fcc f   libvcruntime:locks.obj
 0001:00035004       abort                      0000000180036004 f   libucrt:abort.obj
 0001:0003505c       calloc                     000000018003605c f   libucrt:calloc.obj
 0001:00035064       __acrt_call_reportfault    0000000180036064 f   libucrt:invalid_parameter.obj
 0001:000351c0       __acrt_initialize_invalid_parameter_handler 00000001800361c0 f   libucrt:invalid_parameter.obj
 0001:000351c8       _invalid_parameter         00000001800361c8 f   libucrt:invalid_parameter.obj
 0001:00035278       _invalid_parameter_noinfo  0000000180036278 f   libucrt:invalid_parameter.obj
 0001:00035298       _invalid_parameter_noinfo_noreturn 0000000180036298 f   libucrt:invalid_parameter.obj
 0001:000352c8       _invoke_watson             00000001800362c8 f   libucrt:invalid_parameter.obj
 0001:00035310       strcspn                    0000000180036310 f   libucrt:strcspn.obj
 0001:0003595c       ??$ensure_buffer_is_big_enough@D@formatting_buffer@__crt_stdio_output@@QEAA_N_K@Z 000000018003695c f i libucrt:output.obj
 0001:00035a08       ??$is_wide_character_specifier@D@__crt_stdio_output@@YA_N_KDW4length_modifier@0@@Z 0000000180036a08 f i libucrt:output.obj
 0001:00035a38       ??$is_wide_character_specifier@_W@__crt_stdio_output@@YA_N_K_WW4length_modifier@0@@Z 0000000180036a38 f i libucrt:output.obj
 0001:00035a78       ??$type_case_integer_parse_into_buffer@I@?$output_processor@DV?$string_output_adapter@D@__crt_stdio_output@@V?$standard_base@DV?$string_output_adapter@D@__crt_stdio_output@@@2@@__crt_stdio_output@@AEAAXII_N@Z 0000000180036a78 f i libucrt:output.obj
 0001:00035a78       ??$type_case_integer_parse_into_buffer@I@?$output_processor@DV?$string_output_adapter@D@__crt_stdio_output@@V?$format_validation_base@DV?$string_output_adapter@D@__crt_stdio_output@@@2@@__crt_stdio_output@@AEAAXII_N@Z 0000000180036a78 f i libucrt:output.obj
 0001:00035b14       ??$type_case_integer_parse_into_buffer@I@?$output_processor@_WV?$string_output_adapter@_W@__crt_stdio_output@@V?$standard_base@_WV?$string_output_adapter@_W@__crt_stdio_output@@@2@@__crt_stdio_output@@AEAAXII_N@Z 0000000180036b14 f i libucrt:output.obj
 0001:00035b14       ??$type_case_integer_parse_into_buffer@I@?$output_processor@_WV?$stream_output_adapter@_W@__crt_stdio_output@@V?$standard_base@_WV?$stream_output_adapter@_W@__crt_stdio_output@@@2@@__crt_stdio_output@@AEAAXII_N@Z 0000000180036b14 f i libucrt:output.obj
 0001:00035bc0       ??$type_case_integer_parse_into_buffer@_K@?$output_processor@DV?$string_output_adapter@D@__crt_stdio_output@@V?$standard_base@DV?$string_output_adapter@D@__crt_stdio_output@@@2@@__crt_stdio_output@@AEAAX_KI_N@Z 0000000180036bc0 f i libucrt:output.obj
 0001:00035bc0       ??$type_case_integer_parse_into_buffer@_K@?$output_processor@DV?$string_output_adapter@D@__crt_stdio_output@@V?$format_validation_base@DV?$string_output_adapter@D@__crt_stdio_output@@@2@@__crt_stdio_output@@AEAAX_KI_N@Z 0000000180036bc0 f i libucrt:output.obj
 0001:00035c5c       ??$type_case_integer_parse_into_buffer@_K@?$output_processor@_WV?$string_output_adapter@_W@__crt_stdio_output@@V?$standard_base@_WV?$string_output_adapter@_W@__crt_stdio_output@@@2@@__crt_stdio_output@@AEAAX_KI_N@Z 0000000180036c5c f i libucrt:output.obj
 0001:00035c5c       ??$type_case_integer_parse_into_buffer@_K@?$output_processor@_WV?$stream_output_adapter@_W@__crt_stdio_output@@V?$standard_base@_WV?$stream_output_adapter@_W@__crt_stdio_output@@@2@@__crt_stdio_output@@AEAAX_KI_N@Z 0000000180036c5c f i libucrt:output.obj
 0001:00035d08       ??$write_multiple_characters@V?$stream_output_adapter@_W@__crt_stdio_output@@D@__crt_stdio_output@@YAXAEBV?$stream_output_adapter@_W@0@DHQEAH@Z 0000000180036d08 f i libucrt:output.obj
 0001:00035d94       ??$write_multiple_characters@V?$string_output_adapter@D@__crt_stdio_output@@D@__crt_stdio_output@@YAXAEBV?$string_output_adapter@D@0@DHQEAH@Z 0000000180036d94 f i libucrt:output.obj
 0001:00035df0       ??$write_multiple_characters@V?$string_output_adapter@_W@__crt_stdio_output@@D@__crt_stdio_output@@YAXAEBV?$string_output_adapter@_W@0@DHQEAH@Z 0000000180036df0 f i libucrt:output.obj
 0001:00035e60       ??0_LocaleUpdate@@QEAA@QEAU__crt_locale_pointers@@@Z 0000000180036e60 f i libucrt:output.obj
 0001:00036024       ?force_decimal_point@__crt_stdio_output@@YAXPEADQEAU__crt_locale_pointers@@@Z 0000000180037024 f i libucrt:output.obj
 0001:00036094       ?parse_int_from_format_string@?$output_processor@DV?$string_output_adapter@D@__crt_stdio_output@@V?$standard_base@DV?$string_output_adapter@D@__crt_stdio_output@@@2@@__crt_stdio_output@@AEAA_NQEAH@Z 0000000180037094 f i libucrt:output.obj
 0001:00036094       ?parse_int_from_format_string@?$output_processor@DV?$string_output_adapter@D@__crt_stdio_output@@V?$format_validation_base@DV?$string_output_adapter@D@__crt_stdio_output@@@2@@__crt_stdio_output@@AEAA_NQEAH@Z 0000000180037094 f i libucrt:output.obj
 0001:00036138       ?parse_int_from_format_string@?$output_processor@_WV?$stream_output_adapter@_W@__crt_stdio_output@@V?$standard_base@_WV?$stream_output_adapter@_W@__crt_stdio_output@@@2@@__crt_stdio_output@@AEAA_NQEAH@Z 0000000180037138 f i libucrt:output.obj
 0001:00036138       ?parse_int_from_format_string@?$output_processor@_WV?$string_output_adapter@_W@__crt_stdio_output@@V?$standard_base@_WV?$string_output_adapter@_W@__crt_stdio_output@@@2@@__crt_stdio_output@@AEAA_NQEAH@Z 0000000180037138 f i libucrt:output.obj
 0001:000361dc       ?process@?$output_processor@DV?$string_output_adapter@D@__crt_stdio_output@@V?$format_validation_base@DV?$string_output_adapter@D@__crt_stdio_output@@@2@@__crt_stdio_output@@QEAAHXZ 00000001800371dc f i libucrt:output.obj
 0001:000363f4       ?process@?$output_processor@DV?$string_output_adapter@D@__crt_stdio_output@@V?$standard_base@DV?$string_output_adapter@D@__crt_stdio_output@@@2@@__crt_stdio_output@@QEAAHXZ 00000001800373f4 f i libucrt:output.obj
 0001:000365fc       ?process@?$output_processor@_WV?$stream_output_adapter@_W@__crt_stdio_output@@V?$standard_base@_WV?$stream_output_adapter@_W@__crt_stdio_output@@@2@@__crt_stdio_output@@QEAAHXZ 00000001800375fc f i libucrt:output.obj
 0001:0003686c       ?process@?$output_processor@_WV?$string_output_adapter@_W@__crt_stdio_output@@V?$standard_base@_WV?$string_output_adapter@_W@__crt_stdio_output@@@2@@__crt_stdio_output@@QEAAHXZ 000000018003786c f i libucrt:output.obj
 0001:00036aec       ?state_case_normal@?$output_processor@DV?$string_output_adapter@D@__crt_stdio_output@@V?$standard_base@DV?$string_output_adapter@D@__crt_stdio_output@@@2@@__crt_stdio_output@@AEAA_NXZ 0000000180037aec f i libucrt:output.obj
 0001:00036aec       ?state_case_normal@?$output_processor@DV?$string_output_adapter@D@__crt_stdio_output@@V?$format_validation_base@DV?$string_output_adapter@D@__crt_stdio_output@@@2@@__crt_stdio_output@@AEAA_NXZ 0000000180037aec f i libucrt:output.obj
 0001:00036b60       ?state_case_normal_tchar@?$output_processor@DV?$string_output_adapter@D@__crt_stdio_output@@V?$format_validation_base@DV?$string_output_adapter@D@__crt_stdio_output@@@2@@__crt_stdio_output@@AEAA_ND@Z 0000000180037b60 f i libucrt:output.obj
 0001:00036b60       ?state_case_normal_tchar@?$output_processor@DV?$string_output_adapter@D@__crt_stdio_output@@V?$standard_base@DV?$string_output_adapter@D@__crt_stdio_output@@@2@@__crt_stdio_output@@AEAA_ND@Z 0000000180037b60 f i libucrt:output.obj
 0001:00036bf8       ?state_case_size@?$output_processor@DV?$string_output_adapter@D@__crt_stdio_output@@V?$standard_base@DV?$string_output_adapter@D@__crt_stdio_output@@@2@@__crt_stdio_output@@AEAA_NXZ 0000000180037bf8 f i libucrt:output.obj
 0001:00036bf8       ?state_case_size@?$output_processor@DV?$string_output_adapter@D@__crt_stdio_output@@V?$format_validation_base@DV?$string_output_adapter@D@__crt_stdio_output@@@2@@__crt_stdio_output@@AEAA_NXZ 0000000180037bf8 f i libucrt:output.obj
 0001:00036d74       ?state_case_size@?$output_processor@_WV?$stream_output_adapter@_W@__crt_stdio_output@@V?$standard_base@_WV?$stream_output_adapter@_W@__crt_stdio_output@@@2@@__crt_stdio_output@@AEAA_NXZ 0000000180037d74 f i libucrt:output.obj
 0001:00036f18       ?state_case_size@?$output_processor@_WV?$string_output_adapter@_W@__crt_stdio_output@@V?$standard_base@_WV?$string_output_adapter@_W@__crt_stdio_output@@@2@@__crt_stdio_output@@AEAA_NXZ 0000000180037f18 f i libucrt:output.obj
 0001:000370bc       ?state_case_type@?$output_processor@DV?$string_output_adapter@D@__crt_stdio_output@@V?$format_validation_base@DV?$string_output_adapter@D@__crt_stdio_output@@@2@@__crt_stdio_output@@AEAA_NXZ 00000001800380bc f i libucrt:output.obj
 0001:000370bc       ?state_case_type@?$output_processor@DV?$string_output_adapter@D@__crt_stdio_output@@V?$standard_base@DV?$string_output_adapter@D@__crt_stdio_output@@@2@@__crt_stdio_output@@AEAA_NXZ 00000001800380bc f i libucrt:output.obj
 0001:00037334       ?state_case_type@?$output_processor@_WV?$stream_output_adapter@_W@__crt_stdio_output@@V?$standard_base@_WV?$stream_output_adapter@_W@__crt_stdio_output@@@2@@__crt_stdio_output@@AEAA_NXZ 0000000180038334 f i libucrt:output.obj
 0001:00037630       ?state_case_type@?$output_processor@_WV?$string_output_adapter@_W@__crt_stdio_output@@V?$standard_base@_WV?$string_output_adapter@_W@__crt_stdio_output@@@2@@__crt_stdio_output@@AEAA_NXZ 0000000180038630 f i libucrt:output.obj
 0001:0003791c       ?type_case_Z@?$output_processor@DV?$string_output_adapter@D@__crt_stdio_output@@V?$format_validation_base@DV?$string_output_adapter@D@__crt_stdio_output@@@2@@__crt_stdio_output@@AEAA_NXZ 000000018003891c f i libucrt:output.obj
 0001:0003791c       ?type_case_Z@?$output_processor@DV?$string_output_adapter@D@__crt_stdio_output@@V?$standard_base@DV?$string_output_adapter@D@__crt_stdio_output@@@2@@__crt_stdio_output@@AEAA_NXZ 000000018003891c f i libucrt:output.obj
 0001:0003799c       ?type_case_Z@?$output_processor@_WV?$string_output_adapter@_W@__crt_stdio_output@@V?$standard_base@_WV?$string_output_adapter@_W@__crt_stdio_output@@@2@@__crt_stdio_output@@AEAA_NXZ 000000018003899c f i libucrt:output.obj
 0001:0003799c       ?type_case_Z@?$output_processor@_WV?$stream_output_adapter@_W@__crt_stdio_output@@V?$standard_base@_WV?$stream_output_adapter@_W@__crt_stdio_output@@@2@@__crt_stdio_output@@AEAA_NXZ 000000018003899c f i libucrt:output.obj
 0001:00037a1c       ?type_case_a@?$output_processor@DV?$string_output_adapter@D@__crt_stdio_output@@V?$standard_base@DV?$string_output_adapter@D@__crt_stdio_output@@@2@@__crt_stdio_output@@AEAA_NXZ 0000000180038a1c f i libucrt:output.obj
 0001:00037a1c       ?type_case_a@?$output_processor@DV?$string_output_adapter@D@__crt_stdio_output@@V?$format_validation_base@DV?$string_output_adapter@D@__crt_stdio_output@@@2@@__crt_stdio_output@@AEAA_NXZ 0000000180038a1c f i libucrt:output.obj
 0001:00037c40       ?type_case_a@?$output_processor@_WV?$string_output_adapter@_W@__crt_stdio_output@@V?$standard_base@_WV?$string_output_adapter@_W@__crt_stdio_output@@@2@@__crt_stdio_output@@AEAA_NXZ 0000000180038c40 f i libucrt:output.obj
 0001:00037c40       ?type_case_a@?$output_processor@_WV?$stream_output_adapter@_W@__crt_stdio_output@@V?$standard_base@_WV?$stream_output_adapter@_W@__crt_stdio_output@@@2@@__crt_stdio_output@@AEAA_NXZ 0000000180038c40 f i libucrt:output.obj
 0001:00037e8c       ?type_case_c_tchar@?$output_processor@DV?$string_output_adapter@D@__crt_stdio_output@@V?$standard_base@DV?$string_output_adapter@D@__crt_stdio_output@@@2@@__crt_stdio_output@@AEAA_ND@Z 0000000180038e8c f i libucrt:output.obj
 0001:00037e8c       ?type_case_c_tchar@?$output_processor@DV?$string_output_adapter@D@__crt_stdio_output@@V?$format_validation_base@DV?$string_output_adapter@D@__crt_stdio_output@@@2@@__crt_stdio_output@@AEAA_ND@Z 0000000180038e8c f i libucrt:output.obj
 0001:00037f40       ?type_case_c_tchar@?$output_processor@_WV?$stream_output_adapter@_W@__crt_stdio_output@@V?$standard_base@_WV?$stream_output_adapter@_W@__crt_stdio_output@@@2@@__crt_stdio_output@@AEAA_N_W@Z 0000000180038f40 f i libucrt:output.obj
 0001:00037f40       ?type_case_c_tchar@?$output_processor@_WV?$string_output_adapter@_W@__crt_stdio_output@@V?$standard_base@_WV?$string_output_adapter@_W@__crt_stdio_output@@@2@@__crt_stdio_output@@AEAA_N_W@Z 0000000180038f40 f i libucrt:output.obj
 0001:00037fe8       ?type_case_integer@?$output_processor@DV?$string_output_adapter@D@__crt_stdio_output@@V?$format_validation_base@DV?$string_output_adapter@D@__crt_stdio_output@@@2@@__crt_stdio_output@@AEAA_NI_N@Z 0000000180038fe8 f i libucrt:output.obj
 0001:00037fe8       ?type_case_integer@?$output_processor@DV?$string_output_adapter@D@__crt_stdio_output@@V?$standard_base@DV?$string_output_adapter@D@__crt_stdio_output@@@2@@__crt_stdio_output@@AEAA_NI_N@Z 0000000180038fe8 f i libucrt:output.obj
 0001:0003818c       ?type_case_integer@?$output_processor@_WV?$stream_output_adapter@_W@__crt_stdio_output@@V?$standard_base@_WV?$stream_output_adapter@_W@__crt_stdio_output@@@2@@__crt_stdio_output@@AEAA_NI_N@Z 000000018003918c f i libucrt:output.obj
 0001:0003818c       ?type_case_integer@?$output_processor@_WV?$string_output_adapter@_W@__crt_stdio_output@@V?$standard_base@_WV?$string_output_adapter@_W@__crt_stdio_output@@@2@@__crt_stdio_output@@AEAA_NI_N@Z 000000018003918c f i libucrt:output.obj
 0001:00038338       ?type_case_n@?$output_processor@DV?$string_output_adapter@D@__crt_stdio_output@@V?$format_validation_base@DV?$string_output_adapter@D@__crt_stdio_output@@@2@@__crt_stdio_output@@AEAA_NXZ 0000000180039338 f i libucrt:output.obj
 0001:00038338       ?type_case_n@?$output_processor@_WV?$string_output_adapter@_W@__crt_stdio_output@@V?$standard_base@_WV?$string_output_adapter@_W@__crt_stdio_output@@@2@@__crt_stdio_output@@AEAA_NXZ 0000000180039338 f i libucrt:output.obj
 0001:00038338       ?type_case_n@?$output_processor@DV?$string_output_adapter@D@__crt_stdio_output@@V?$standard_base@DV?$string_output_adapter@D@__crt_stdio_output@@@2@@__crt_stdio_output@@AEAA_NXZ 0000000180039338 f i libucrt:output.obj
 0001:00038338       ?type_case_n@?$output_processor@_WV?$stream_output_adapter@_W@__crt_stdio_output@@V?$standard_base@_WV?$stream_output_adapter@_W@__crt_stdio_output@@@2@@__crt_stdio_output@@AEAA_NXZ 0000000180039338 f i libucrt:output.obj
 0001:00038414       ?type_case_s@?$output_processor@DV?$string_output_adapter@D@__crt_stdio_output@@V?$format_validation_base@DV?$string_output_adapter@D@__crt_stdio_output@@@2@@__crt_stdio_output@@AEAA_NXZ 0000000180039414 f i libucrt:output.obj
 0001:00038414       ?type_case_s@?$output_processor@DV?$string_output_adapter@D@__crt_stdio_output@@V?$standard_base@DV?$string_output_adapter@D@__crt_stdio_output@@@2@@__crt_stdio_output@@AEAA_NXZ 0000000180039414 f i libucrt:output.obj
 0001:000384a4       ?type_case_s@?$output_processor@_WV?$stream_output_adapter@_W@__crt_stdio_output@@V?$standard_base@_WV?$stream_output_adapter@_W@__crt_stdio_output@@@2@@__crt_stdio_output@@AEAA_NXZ 00000001800394a4 f i libucrt:output.obj
 0001:000384a4       ?type_case_s@?$output_processor@_WV?$string_output_adapter@_W@__crt_stdio_output@@V?$standard_base@_WV?$string_output_adapter@_W@__crt_stdio_output@@@2@@__crt_stdio_output@@AEAA_NXZ 00000001800394a4 f i libucrt:output.obj
 0001:0003856c       ?write_stored_string_tchar@?$output_processor@DV?$string_output_adapter@D@__crt_stdio_output@@V?$format_validation_base@DV?$string_output_adapter@D@__crt_stdio_output@@@2@@__crt_stdio_output@@AEAA_ND@Z 000000018003956c f i libucrt:output.obj
 0001:0003856c       ?write_stored_string_tchar@?$output_processor@DV?$string_output_adapter@D@__crt_stdio_output@@V?$standard_base@DV?$string_output_adapter@D@__crt_stdio_output@@@2@@__crt_stdio_output@@AEAA_ND@Z 000000018003956c f i libucrt:output.obj
 0001:00038644       ?write_stored_string_tchar@?$output_processor@_WV?$stream_output_adapter@_W@__crt_stdio_output@@V?$standard_base@_WV?$stream_output_adapter@_W@__crt_stdio_output@@@2@@__crt_stdio_output@@AEAA_N_W@Z 0000000180039644 f i libucrt:output.obj
 0001:0003874c       ?write_stored_string_tchar@?$output_processor@_WV?$string_output_adapter@_W@__crt_stdio_output@@V?$standard_base@_WV?$string_output_adapter@_W@__crt_stdio_output@@@2@@__crt_stdio_output@@AEAA_N_W@Z 000000018003974c f i libucrt:output.obj
 0001:0003883c       ?write_string@?$string_output_adapter@D@__crt_stdio_output@@QEBAXQEBDHQEAHAEAV__crt_deferred_errno_cache@@@Z 000000018003983c f i libucrt:output.obj
 0001:000388e0       ?write_string@?$string_output_adapter@_W@__crt_stdio_output@@QEBAXQEB_WHQEAHAEAV__crt_deferred_errno_cache@@@Z 00000001800398e0 f i libucrt:output.obj
 0001:00038988       ?write_string_impl@?$output_adapter_common@_WV?$stream_output_adapter@_W@__crt_stdio_output@@@__crt_stdio_output@@IEBAXQEB_WHQEAHAEAV__crt_deferred_errno_cache@@@Z 0000000180039988 f i libucrt:output.obj
 0001:00038a7c       __stdio_common_vfwprintf   0000000180039a7c f   libucrt:output.obj
 0001:00038b08       __stdio_common_vsprintf    0000000180039b08 f   libucrt:output.obj
 0001:00038b10       __stdio_common_vsprintf_s  0000000180039b10 f   libucrt:output.obj
 0001:00038b74       __stdio_common_vswprintf   0000000180039b74 f   libucrt:output.obj
 0001:00038b7c       localeconv                 0000000180039b7c f   libucrt:localeconv.obj
 0001:00038bb0       free                       0000000180039bb0 f   libucrt:free.obj
 0001:00038bc4       frexp                      0000000180039bc4 f   libucrt:frexp.obj
 0001:00039690       ??$ftprintf@PEAU_iobuf@@PEB_WAEBQEB_WAEBQEB_WAEBI@?$__crt_char_traits@_W@@SAH$$QEAPEAU_iobuf@@$$QEAPEB_WAEBQEB_W2AEBI@Z 000000018003a690 f i libucrt:assert.obj
 0001:000396b8       _wassert                   000000018003a6b8 f   libucrt:assert.obj
 0001:0003973c       fwprintf                   000000018003a73c f i libucrt:assert.obj
 0001:00039780       swprintf                   000000018003a780 f i libucrt:assert.obj
 0001:000397d4       malloc                     000000018003a7d4 f   libucrt:malloc.obj
 0001:000397dc       realloc                    000000018003a7dc f   libucrt:realloc.obj
 0001:000397e4       __ascii_stricmp            000000018003a7e4 f   libucrt:stricmp.obj
 0001:00039820       _stricmp                   000000018003a820 f   libucrt:stricmp.obj
 0001:00039868       _stricmp_l                 000000018003a868 f   libucrt:stricmp.obj
 0001:0003991c       __acrt_initialize_locks    000000018003a91c f   libucrt:locks.obj
 0001:00039964       __acrt_lock                000000018003a964 f   libucrt:locks.obj
 0001:00039980       __acrt_uninitialize_locks  000000018003a980 f   libucrt:locks.obj
 0001:000399b8       __acrt_unlock              000000018003a9b8 f   libucrt:locks.obj
 0001:000399d4       _lock_locales              000000018003a9d4 f   libucrt:locks.obj
 0001:000399f0       _unlock_locales            000000018003a9f0 f   libucrt:locks.obj
 0001:00039d08       setlocale                  000000018003ad08 f   libucrt:setlocale.obj
 0001:00039d54       _calloc_base               000000018003ad54 f   libucrt:calloc_base.obj
 0001:00039dcc       __pctype_func              000000018003adcc f   libucrt:ctype.obj
 0001:00039dfc       isdigit                    000000018003adfc f i libucrt:_ctype.obj
 0001:00039e70       islower                    000000018003ae70 f i libucrt:_ctype.obj
 0001:00039ee4       isupper                    000000018003aee4 f i libucrt:_ctype.obj
 0001:00039f58       _wcsdup                    000000018003af58 f   libucrt:wcsdup.obj
 0001:00039fdc       ___lc_codepage_func        000000018003afdc f   libucrt:initctype.obj
 0001:0003a00c       ___lc_locale_name_func     000000018003b00c f   libucrt:initctype.obj
 0001:0003a040       ___mb_cur_max_func         000000018003b040 f   libucrt:initctype.obj
 0001:0003a070       __acrt_locale_initialize_ctype 000000018003b070 f   libucrt:initctype.obj
 0001:0003a658       __acrt_errno_from_os_error 000000018003b658 f   libucrt:errno.obj
 0001:0003a6a0       __acrt_errno_map_os_error  000000018003b6a0 f   libucrt:errno.obj
 0001:0003a6f0       __doserrno                 000000018003b6f0 f   libucrt:errno.obj
 0001:0003a710       _errno                     000000018003b710 f   libucrt:errno.obj
 0001:0003a7a8       _ismbblead                 000000018003b7a8 f   libucrt:ismbbyte.obj
 0001:0003a7bc       _malloc_base               000000018003b7bc f   libucrt:malloc_base.obj
 0001:0003a81c       _realloc_base              000000018003b81c f   libucrt:realloc_base.obj
 0001:0003a898       ??$make_c_string_character_source@_WPEAPEA_W@__crt_strtox@@YA?AV?$c_string_character_source@_W@0@QEB_WQEAPEA_W@Z 000000018003b898 f i libucrt:strtod.obj
 0001:0003a898       ??$make_c_string_character_source@DPEAPEAD@__crt_strtox@@YA?AV?$c_string_character_source@D@0@QEBDQEAPEAD@Z 000000018003b898 f i libucrt:strtod.obj
 0001:0003a898       ??$make_c_string_character_source@_W$$T@__crt_strtox@@YA?AV?$c_string_character_source@_W@0@QEB_W$$T@Z 000000018003b898 f i libucrt:atox.obj
 0001:0003a8b0       ?divide@__crt_strtox@@YA_KAEAUbig_integer@1@AEBU21@@Z 000000018003b8b0 f i libucrt:strtod.obj
 0001:0003ae00       pow                        000000018003be00 f   libucrt:pow.obj
 0001:0003c4a0       powf                       000000018003d4a0 f   libucrt:powf.obj
 0001:0003d368       __strncnt                  000000018003e368 f   libucrt:strncnt.obj
 0001:0003d380       _free_base                 000000018003e380 f   libucrt:free_base.obj
 0001:0003d404       _tolower_l                 000000018003e404 f   libucrt:tolower_toupper.obj
 0001:0003d544       tolower                    000000018003e544 f   libucrt:tolower_toupper.obj
 0001:0003d570       wcscpy_s                   000000018003e570 f   libucrt:wcscpy_s.obj
 0001:0003d5d8       strnlen                    000000018003e5d8 f   libucrt:strnlen.obj
 0001:0003d71c       wcsnlen                    000000018003e71c f   libucrt:strnlen.obj
 0001:0003d8e8       __acrt_initialize_new_handler 000000018003e8e8 f   libucrt:new_handler.obj
 0001:0003d8f0       _callnewh                  000000018003e8f0 f   libucrt:new_handler.obj
 0001:0003d920       _query_new_handler         000000018003e920 f   libucrt:new_handler.obj
 0001:0003d954       _seh_filter_dll            000000018003e954 f   libucrt:exception_filter.obj
 0001:0003d968       _seh_filter_exe            000000018003e968 f   libucrt:exception_filter.obj
 0001:0003dd74       __acrt_initialize_thread_local_exit_callback 000000018003ed74 f   libucrt:exit.obj
 0001:0003dd7c       _cexit                     000000018003ed7c f   libucrt:exit.obj
 0001:0003dd8c       _exit                      000000018003ed8c f   libucrt:exit.obj
 0001:0003dd98       _is_c_termination_complete 000000018003ed98 f   libucrt:exit.obj
 0001:0003df5c       __acrt_allocate_buffer_for_argv 000000018003ef5c f   libucrt:argv_parsing.obj
 0001:0003dfbc       _configure_narrow_argv     000000018003efbc f   libucrt:argv_parsing.obj
 0001:0003e338       __dcrt_uninitialize_environments_nolock 000000018003f338 f   libucrt:environment_initialization.obj
 0001:0003e370       _initialize_narrow_environment 000000018003f370 f   libucrt:environment_initialization.obj
 0001:0003e700       _crt_atexit                000000018003f700 f   libucrt:onexit.obj
 0001:0003e710       _execute_onexit_table      000000018003f710 f   libucrt:onexit.obj
 0001:0003e74c       _initialize_onexit_table   000000018003f74c f   libucrt:onexit.obj
 0001:0003e78c       _register_onexit_function  000000018003f78c f   libucrt:onexit.obj
 0001:0003e908       __acrt_uninitialize_command_line 000000018003f908 f   libucrt:argv_data.obj
 0001:0003e90c       __acrt_initialize          000000018003f90c f   libucrt:initialization.obj
 0001:0003e920       __acrt_thread_attach       000000018003f920 f   libucrt:initialization.obj
 0001:0003e934       __acrt_thread_detach       000000018003f934 f   libucrt:initialization.obj
 0001:0003e944       __acrt_uninitialize        000000018003f944 f   libucrt:initialization.obj
 0001:0003e958       __acrt_uninitialize_critical 000000018003f958 f   libucrt:initialization.obj
 0001:0003e968       terminate                  000000018003f968 f   libucrt:terminate.obj
 0001:0003e988       _initterm                  000000018003f988 f   libucrt:initterm.obj
 0001:0003e9ec       _initterm_e                000000018003f9ec f   libucrt:initterm.obj
 0001:0003ea2c       strcpy_s                   000000018003fa2c f   libucrt:strcpy_s.obj
 0001:0003ea8c       wcsncmp                    000000018003fa8c f   libucrt:wcsncmp.obj
 0001:0003eab8       ??$parse_integer@KV?$c_string_character_source@D@__crt_strtox@@@__crt_strtox@@YAKQEAU__crt_locale_pointers@@V?$c_string_character_source@D@0@H_N@Z 000000018003fab8 f i libucrt:atox.obj
 0001:0003edd4       ??$parse_integer@KV?$c_string_character_source@_W@__crt_strtox@@@__crt_strtox@@YAKQEAU__crt_locale_pointers@@V?$c_string_character_source@_W@0@H_N@Z 000000018003fdd4 f i libucrt:atox.obj
 0001:0003f498       _wtol                      0000000180040498 f   libucrt:atox.obj
 0001:0003f50c       __acrt_get_sigabrt_handler 000000018004050c f   libucrt:signal.obj
 0001:0003f53c       __acrt_initialize_signal_handlers 000000018004053c f   libucrt:signal.obj
 0001:0003f55c       raise                      000000018004055c f   libucrt:signal.obj
 0001:0003fb48       __acrt_freeptd             0000000180040b48 f   libucrt:per_thread_data.obj
 0001:0003fb8c       __acrt_getptd              0000000180040b8c f   libucrt:per_thread_data.obj
 0001:0003fc58       __acrt_getptd_head         0000000180040c58 f   libucrt:per_thread_data.obj
 0001:0003fd00       __acrt_getptd_noexit       0000000180040d00 f   libucrt:per_thread_data.obj
 0001:0003fdd0       __acrt_initialize_ptd      0000000180040dd0 f   libucrt:per_thread_data.obj
 0001:0003fe0c       __acrt_uninitialize_ptd    0000000180040e0c f   libucrt:per_thread_data.obj
 0001:0003fe30       strtol                     0000000180040e30 f   libucrt:strtox.obj
 0001:0003fe60       wcstol                     0000000180040e60 f   libucrt:strtox.obj
 0001:0003fe90       _mbtowc_l                  0000000180040e90 f   libucrt:mbtowc.obj
 0001:0003ffd8       mbtowc                     0000000180040fd8 f   libucrt:mbtowc.obj
 0001:0003ffe0       _wctomb_s_l                0000000180040fe0 f   libucrt:wctomb.obj
 0001:00040164       wctomb_s                   0000000180041164 f   libucrt:wctomb.obj
 0001:00040178       __acrt_update_locale_info  0000000180041178 f   libucrt:locale_update.obj
 0001:000401ac       __acrt_update_multibyte_info 00000001800411ac f   libucrt:locale_update.obj
 0001:000401e0       ?__acrt_fp_classify@@YA?AW4__acrt_fp_class@@AEBN@Z 00000001800411e0 f i libucrt:cvt.obj
 0001:00040c04       __acrt_fp_format           0000000180041c04 f   libucrt:cvt.obj
 0001:00040e48       _fputwc_nolock             0000000180041e48 f   libucrt:fputwc.obj
 0001:00040fc0       _fileno                    0000000180041fc0 f   libucrt:fileno.obj
 0001:00040fe8       __acrt_initialize_stdio    0000000180041fe8 f   libucrt:_file.obj
 0001:00041108       __acrt_iob_func            0000000180042108 f   libucrt:_file.obj
 0001:0004111c       __acrt_uninitialize_stdio  000000018004211c f   libucrt:_file.obj
 0001:00041178       _lock_file                 0000000180042178 f   libucrt:_file.obj
 0001:00041184       _unlock_file               0000000180042184 f   libucrt:_file.obj
 0001:00041190       _fputc_nolock              0000000180042190 f   libucrt:fputc.obj
 0001:000411a8       _get_printf_count_output   00000001800421a8 f   libucrt:printf_count_output.obj
 0001:000411c0       __acrt_stdio_begin_temporary_buffering_nolock 00000001800421c0 f   libucrt:_sftbuf.obj
 0001:00041290       __acrt_stdio_end_temporary_buffering_nolock 0000000180042290 f   libucrt:_sftbuf.obj
 0001:00041534       __acrt_copy_locale_name    0000000180042534 f   libucrt:wsetlocale.obj
 0001:000415b8       __acrt_set_locale_changed  00000001800425b8 f   libucrt:wsetlocale.obj
 0001:000415c4       __acrt_uninitialize_locale 00000001800425c4 f   libucrt:wsetlocale.obj
 0001:000415f4       __lc_lctowcs               00000001800425f4 f   libucrt:wsetlocale.obj
 0001:00041698       __lc_wcstolc               0000000180042698 f   libucrt:wsetlocale.obj
 0001:00041910       _expandlocale              0000000180042910 f   libucrt:wsetlocale.obj
 0001:00041d0c       _wcscats                   0000000180042d0c f   libucrt:wsetlocale.obj
 0001:00041d74       _wsetlocale                0000000180042d74 f   libucrt:wsetlocale.obj
 0001:000427ac       __acrt_initialize_lowio    00000001800437ac f   libucrt:ioinit.obj
 0001:000427e8       __acrt_uninitialize_lowio  00000001800437e8 f   libucrt:ioinit.obj
 0001:00042828       _dsign                     0000000180043828 f   libucrt:nan.obj
 0001:00042840       _errcode                   0000000180043840 f   libucrt:fpexcept.obj
 0001:00042884       _except1                   0000000180043884 f   libucrt:fpexcept.obj
 0001:00042978       _handle_exc                0000000180043978 f   libucrt:fpexcept.obj
 0001:00042be0       _raise_exc                 0000000180043be0 f   libucrt:fpexcept.obj
 0001:00042c08       _raise_exc_ex              0000000180043c08 f   libucrt:fpexcept.obj
 0001:00042f10       _raise_excf                0000000180043f10 f   libucrt:fpexcept.obj
 0001:00042f3c       _set_errno_from_matherr    0000000180043f3c f   libucrt:fpexcept.obj
 0001:00042f6c       _umatherr                  0000000180043f6c f   libucrt:fpexcept.obj
 0001:00043040       _decomp                    0000000180044040 f   libucrt:util.obj
 0001:00043170       _sptype                    0000000180044170 f   libucrt:util.obj
 0001:000431e4       _clrfp                     00000001800441e4 f   libucrt:fpctrl.obj
 0001:00043204       _ctrlfp                    0000000180044204 f   libucrt:fpctrl.obj
 0001:00043280       _set_statfp                0000000180044280 f   libucrt:fpctrl.obj
 0001:000432a0       _statfp                    00000001800442a0 f   libucrt:fpctrl.obj
 0001:000432b4       _query_app_type            00000001800442b4 f   libucrt:report_runtime_error.obj
 0001:000433e0       _itow_s                    00000001800443e0 f   libucrt:xtoa.obj
 0001:00043400       _set_error_mode            0000000180044400 f   libucrt:set_error_mode.obj
 0001:00043440       wcscat_s                   0000000180044440 f   libucrt:wcscat_s.obj
 0001:000434c0       wcsncat_s                  00000001800444c0 f   libucrt:wcsncat_s.obj
 0001:000435c0       __acrt_show_wide_message_box 00000001800445c0 f   libucrt:crtmbox.obj
 0001:0004388c       __acrt_stdio_flush_nolock  000000018004488c f   libucrt:fflush.obj
 0001:00043908       _fflush_nolock             0000000180044908 f   libucrt:fflush.obj
 0001:00043954       _flushall                  0000000180044954 f   libucrt:fflush.obj
 0001:0004395c       fflush                     000000018004495c f   libucrt:fflush.obj
 0001:00043af4       setvbuf                    0000000180044af4 f   libucrt:setvbuf.obj
 0001:00043e28       __acrt_AppPolicyGetProcessTerminationMethodInternal 0000000180044e28 f   libucrt:winapi_thunks.obj
 0001:00043e78       __acrt_AppPolicyGetShowDeveloperDiagnosticInternal 0000000180044e78 f   libucrt:winapi_thunks.obj
 0001:00043ec8       __acrt_AppPolicyGetWindowingModelInternal 0000000180044ec8 f   libucrt:winapi_thunks.obj
 0001:00043f18       __acrt_EnumSystemLocalesEx 0000000180044f18 f   libucrt:winapi_thunks.obj
 0001:00043fb0       __acrt_FlsAlloc            0000000180044fb0 f   libucrt:winapi_thunks.obj
 0001:00043ff8       __acrt_FlsFree             0000000180044ff8 f   libucrt:winapi_thunks.obj
 0001:00044040       __acrt_FlsGetValue         0000000180045040 f   libucrt:winapi_thunks.obj
 0001:00044088       __acrt_FlsSetValue         0000000180045088 f   libucrt:winapi_thunks.obj
 0001:000440dc       __acrt_GetLocaleInfoEx     00000001800450dc f   libucrt:winapi_thunks.obj
 0001:00044160       __acrt_GetUserDefaultLocaleName 0000000180045160 f   libucrt:winapi_thunks.obj
 0001:000441c4       __acrt_InitializeCriticalSectionEx 00000001800451c4 f   libucrt:winapi_thunks.obj
 0001:00044228       __acrt_IsValidLocaleName   0000000180045228 f   libucrt:winapi_thunks.obj
 0001:00044280       __acrt_LCIDToLocaleName    0000000180045280 f   libucrt:winapi_thunks.obj
 0001:000442f0       __acrt_LCMapStringEx       00000001800452f0 f   libucrt:winapi_thunks.obj
 0001:000443cc       __acrt_LocaleNameToLCID    00000001800453cc f   libucrt:winapi_thunks.obj
 0001:0004441c       __acrt_MessageBoxW         000000018004541c f   libucrt:winapi_thunks.obj
 0001:00044490       __acrt_can_show_message_box 0000000180045490 f   libucrt:winapi_thunks.obj
 0001:00044500       __acrt_can_use_vista_locale_apis 0000000180045500 f   libucrt:winapi_thunks.obj
 0001:00044530       __acrt_eagerly_load_locale_apis 0000000180045530 f   libucrt:winapi_thunks.obj
 0001:0004468c       __acrt_get_parent_window   000000018004568c f   libucrt:winapi_thunks.obj
 0001:00044708       __acrt_initialize_winapi_thunks 0000000180045708 f   libucrt:winapi_thunks.obj
 0001:00044750       __acrt_is_interactive      0000000180045750 f   libucrt:winapi_thunks.obj
 0001:00044818       __acrt_uninitialize_winapi_thunks 0000000180045818 f   libucrt:winapi_thunks.obj
 0001:00044a38       _mbstowcs_s_l              0000000180045a38 f   libucrt:mbstowcs.obj
 0001:00044b6c       mbstowcs_s                 0000000180045b6c f   libucrt:mbstowcs.obj
 0001:00044ec0       _wcstombs_s_l              0000000180045ec0 f   libucrt:wcstombs.obj
 0001:00044fac       _query_new_mode            0000000180045fac f   libucrt:new_mode.obj
 0001:00044fb4       __acrt_initialize_heap     0000000180045fb4 f   libucrt:heap_handle.obj
 0001:00044fd0       __acrt_uninitialize_heap   0000000180045fd0 f   libucrt:heap_handle.obj
 0001:00044fdc       _isctype_l                 0000000180045fdc f   libucrt:isctype.obj
 0001:00045288       __acrt_GetLocaleInfoA      0000000180046288 f   libucrt:getlocaleinfoa.obj
 0001:00045450       __acrt_GetStringTypeA      0000000180046450 f   libucrt:getstringtypea.obj
 0001:00045954       __acrt_LCMapStringA        0000000180046954 f   libucrt:lcmapstringa.obj
 0001:000459ec       iswctype                   00000001800469ec f   libucrt:iswctype.obj
 0001:00045a60       __acrt_initialize_fma3     0000000180046a60 f   libucrt:fma3_available.obj
 0001:00045ad0       _pow_special               0000000180046ad0 f   libucrt:pow_special.obj
 0001:00045bf4       _powf_special              0000000180046bf4 f   libucrt:pow_special.obj
 0001:00045d80       _wcsicmp                   0000000180046d80 f   libucrt:wcsicmp.obj
 0001:00045e04       _wcsicmp_l                 0000000180046e04 f   libucrt:wcsicmp.obj
 0001:00045ef4       __acrt_initialize_timeset  0000000180046ef4 f   libucrt:timeset.obj
 0001:00045f38       _isleadbyte_l              0000000180046f38 f i libucrt:_wctype.obj
 0001:00045f78       __acrt_get_developer_information_policy 0000000180046f78 f   libucrt:win_policies.obj
 0001:00045fcc       __acrt_get_process_end_policy 0000000180046fcc f   libucrt:win_policies.obj
 0001:00046008       __acrt_get_windowing_model_policy 0000000180047008 f   libucrt:win_policies.obj
 0001:000465d8       __acrt_expand_narrow_argv_wildcards 00000001800475d8 f   libucrt:argv_wildcards.obj
 0001:00046d24       __acrt_initialize_multibyte 0000000180047d24 f   libucrt:mbctype.obj
 0001:00046d84       __acrt_update_thread_multibyte_data 0000000180047d84 f   libucrt:mbctype.obj
 0001:00046da0       _setmbcp_nolock            0000000180047da0 f   libucrt:mbctype.obj
 0001:00047040       __acrt_initialize_command_line 0000000180048040 f   libucrt:argv_data.obj
 0001:00047068       __dcrt_get_narrow_environment_from_os 0000000180048068 f   libucrt:get_environment_from_os.obj
 0001:0004716c       _recalloc                  000000018004816c f   libucrt:recalloc.obj
 0001:00047174       _recalloc_base             0000000180048174 f   libucrt:recalloc.obj
 0001:0004720c       __acrt_execute_initializers 000000018004820c f   libucrt:shared_initialization.obj
 0001:0004728c       __acrt_execute_uninitializers 000000018004828c f   libucrt:shared_initialization.obj
 0001:000472cc       __acrt_has_user_matherr    00000001800482cc f   libucrt:matherr.obj
 0001:000472ec       __acrt_initialize_user_matherr 00000001800482ec f   libucrt:matherr.obj
 0001:000472f4       __acrt_invoke_user_matherr 00000001800482f4 f   libucrt:matherr.obj
 0001:00047324       __acrt_add_locale_ref      0000000180048324 f   libucrt:locale_refcounting.obj
 0001:000473b0       __acrt_free_locale         00000001800483b0 f   libucrt:locale_refcounting.obj
 0001:00047528       __acrt_locale_add_lc_time_reference 0000000180048528 f   libucrt:locale_refcounting.obj
 0001:00047550       __acrt_locale_free_lc_time_if_unreferenced 0000000180048550 f   libucrt:locale_refcounting.obj
 0001:00047588       __acrt_locale_release_lc_time_reference 0000000180048588 f   libucrt:locale_refcounting.obj
 0001:000475b0       __acrt_release_locale_ref  00000001800485b0 f   libucrt:locale_refcounting.obj
 0001:00047658       __acrt_update_thread_locale_data 0000000180048658 f   libucrt:locale_refcounting.obj
 0001:000476c8       _updatetlocinfoEx_nolock   00000001800486c8 f   libucrt:locale_refcounting.obj
 0001:00047730       __acrt_fp_strflt_to_string 0000000180048730 f   libucrt:_fptostr.obj
 0001:000477f0       __acrt_fltout              00000001800487f0 f   libucrt:cfout.obj
 0001:00048cac       __acrt_stdio_flush_and_write_narrow_nolock 0000000180049cac f   libucrt:_flsbuf.obj
 0001:00048d94       __acrt_stdio_flush_and_write_wide_nolock 0000000180049d94 f   libucrt:_flsbuf.obj
 0001:00048e80       _fcloseall                 0000000180049e80 f   libucrt:closeall.obj
 0001:00048f34       __acrt_stdio_free_buffer_nolock 0000000180049f34 f   libucrt:_freebuf.obj
 0001:00048f74       _isatty                    0000000180049f74 f   libucrt:isatty.obj
 0001:00048fd4       __acrt_locale_free_monetary 0000000180049fd4 f   libucrt:initmon.obj
 0001:000490e0       __acrt_locale_initialize_monetary 000000018004a0e0 f   libucrt:initmon.obj
 0001:00049618       __acrt_locale_free_numeric 000000018004a618 f   libucrt:initnum.obj
 0001:00049684       __acrt_locale_initialize_numeric 000000018004a684 f   libucrt:initnum.obj
 0001:00049cfc       __acrt_locale_free_time    000000018004acfc f   libucrt:inittime.obj
 0001:00049e04       __acrt_locale_initialize_time 000000018004ae04 f   libucrt:inittime.obj
 0001:00049e98       wcsncpy_s                  000000018004ae98 f   libucrt:wcsncpy_s.obj
 0001:00049f7c       wcscspn                    000000018004af7c f   libucrt:wcscspn.obj
 0001:00049fbc       wcspbrk                    000000018004afbc f   libucrt:wcspbrk.obj
 0001:0004a860       __acrt_get_qualified_locale 000000018004b860 f   libucrt:get_qualified_locale.obj
 0001:0004b238       __acrt_get_qualified_locale_downlevel 000000018004c238 f   libucrt:getqloc_downlevel.obj
 0001:0004b4c8       __acrt_lowio_create_handle_array 000000018004c4c8 f   libucrt:osfinfo.obj
 0001:0004b560       __acrt_lowio_destroy_handle_array 000000018004c560 f   libucrt:osfinfo.obj
 0001:0004b5b0       __acrt_lowio_ensure_fh_exists 000000018004c5b0 f   libucrt:osfinfo.obj
 0001:0004b658       __acrt_lowio_lock_fh       000000018004c658 f   libucrt:osfinfo.obj
 0001:0004b67c       __acrt_lowio_unlock_fh     000000018004c67c f   libucrt:osfinfo.obj
 0001:0004b6a0       _free_osfhnd               000000018004c6a0 f   libucrt:osfinfo.obj
 0001:0004b768       _get_osfhandle             000000018004c768 f   libucrt:osfinfo.obj
 0001:0004b7f0       _get_fpsr                  000000018004c7f0 f   libucrt:fpsr.obj
 0001:0004b800       _set_fpsr                  000000018004c800 f   libucrt:fpsr.obj
 0001:0004b80a       _fclrf                     000000018004c80a f   libucrt:fpsr.obj
 0001:0004b81e       _frnd                      000000018004c81e f   libucrt:fpsr.obj
 0001:0004b8cc       _commit                    000000018004c8cc f   libucrt:commit.obj
 0001:0004bffc       _write                     000000018004cffc f   libucrt:write.obj
 0001:0004c0fc       _write_nolock              000000018004d0fc f   libucrt:write.obj
 0001:0004c458       __acrt_DownlevelLCIDToLocaleName 000000018004d458 f   libucrt:lcidtoname_downlevel.obj
 0001:0004c53c       __acrt_DownlevelLocaleNameToLCID 000000018004d53c f   libucrt:lcidtoname_downlevel.obj
 0001:0004c570       strncpy_s                  000000018004d570 f   libucrt:strncpy_s.obj
 0001:0004c644       __acrt_fenv_get_control    000000018004d644 f   libucrt:_fenvutils.obj
 0001:0004c744       __acrt_fenv_get_status     000000018004d744 f   libucrt:_fenvutils.obj
 0001:0004c7a0       __acrt_fenv_set_control    000000018004d7a0 f   libucrt:_fenvutils.obj
 0001:0004c8e8       __acrt_fenv_set_status     000000018004d8e8 f   libucrt:_fenvutils.obj
 0001:0004ca9c       _handle_error              000000018004da9c f   libucrt:libm_error.obj
 0001:0004cbc4       _handle_errorf             000000018004dbc4 f   libucrt:libm_error.obj
 0001:0004ccf8       _handle_nan                000000018004dcf8 f   libucrt:libm_error.obj
 0001:0004cd14       _handle_nanf               000000018004dd14 f   libucrt:libm_error.obj
 0001:0004cd24       _towlower_l                000000018004dd24 f   libucrt:towlower.obj
 0001:0004ceb0       qsort                      000000018004deb0 f   libucrt:qsort.obj
 0001:0004d200       strpbrk                    000000018004e200 f   libucrt:strpbrk.obj
 0001:0004d2a0       _mbsdec                    000000018004e2a0 f   libucrt:mbsdec.obj
 0001:0004d2a8       _mbsdec_l                  000000018004e2a8 f   libucrt:mbsdec.obj
 0001:0004d358       _msize                     000000018004e358 f   libucrt:msize.obj
 0001:0004d360       _msize_base                000000018004e360 f   libucrt:msize.obj
 0001:0004d39c       fegetenv                   000000018004e39c f   libucrt:fegetenv.obj
 0001:0004d3bc       fesetenv                   000000018004e3bc f   libucrt:fesetenv.obj
 0001:0004d40c       feholdexcept               000000018004e40c f   libucrt:feholdexcept.obj
 0001:0004d45c       ceil                       000000018004e45c f   libucrt:ceil.obj
 0001:0004d520       log10                      000000018004e520 f   libucrt:log10.obj
 0001:0004dc6c       _lseeki64                  000000018004ec6c f   libucrt:lseek.obj
 0001:0004dc74       _lseeki64_nolock           000000018004ec74 f   libucrt:lseek.obj
 0001:0004dc7c       __acrt_stdio_allocate_buffer_nolock 000000018004ec7c f   libucrt:_getbuf.obj
 0001:0004dce0       _fclose_nolock             000000018004ece0 f   libucrt:fclose.obj
 0001:0004dd64       fclose                     000000018004ed64 f   libucrt:fclose.obj
 0001:0004ddc8       _wcsnicmp                  000000018004edc8 f   libucrt:wcsnicmp.obj
 0001:0004de60       _wcsnicmp_l                000000018004ee60 f   libucrt:wcsnicmp.obj
 0001:0004df78       wcscmp                     000000018004ef78 f   libucrt:wcscmp.obj
 0001:0004dfb0       _putwch_nolock             000000018004efb0 f   libucrt:putwch.obj
 0001:0004dfec       __acrt_LCMapStringW        000000018004efec f   libucrt:lcmapstringw.obj
 0001:0004e074       _clearfp                   000000018004f074 f   libucrt:ieee.obj
 0001:0004e0f0       _log10_special             000000018004f0f0 f   libucrt:log_special.obj
 0001:0004e21c       _close                     000000018004f21c f   libucrt:close.obj
 0001:0004e2c0       _close_nolock              000000018004f2c0 f   libucrt:close.obj
 0001:0004e37c       ?__acrt_stdio_free_stream@@YAXV__crt_stdio_stream@@@Z 000000018004f37c f   libucrt:stream.obj
 0001:0004e398       __dcrt_lowio_ensure_console_output_initialized 000000018004f398 f   libucrt:initcon.obj
 0001:0004e3ec       __dcrt_terminate_console_output 000000018004f3ec f   libucrt:initcon.obj
 0001:0004e408       __dcrt_write_console_w     000000018004f408 f   libucrt:initcon.obj
 0001:0004e4c6       IsProcessorFeaturePresent  000000018004f4c6 f   kernel32:KERNEL32.dll
 0001:0004e4cc       RtlUnwindEx                000000018004f4cc f   kernel32:KERNEL32.dll
 0001:0004e4d4       ?DloadAcquireSectionWriteAccess@@YAXXZ 000000018004f4d4 f i DelayImp:delayhlp.obj
 0001:0004e590       ?DloadGetSRWLockFunctionPointers@@YAEXZ 000000018004f590 f i DelayImp:delayhlp.obj
 0001:0004e62c       ?DloadMakePermanentImageCommit@@YAXPEAX_K@Z 000000018004f62c f i DelayImp:delayhlp.obj
 0001:0004e6c4       ?DloadObtainSection@@YAPEAXPEAK0@Z 000000018004f6c4 f i DelayImp:delayhlp.obj
 0001:0004e75c       ?DloadProtectSection@@YAXKPEAK@Z 000000018004f75c f i DelayImp:delayhlp.obj
 0001:0004e7ec       ?DloadReleaseSectionWriteAccess@@YAXXZ 000000018004f7ec f i DelayImp:delayhlp.obj
 0001:0004e890       __delayLoadHelper2         000000018004f890 f   DelayImp:delayhlp.obj
 0001:0004eb90       _FindPESection             000000018004fb90 f   LIBCMT:pesect.obj
 0001:0004ebe0       _IsNonwritableInCurrentImage 000000018004fbe0 f   LIBCMT:pesect.obj
 0001:0004ec30       _ValidateImageBase         000000018004fc30 f   LIBCMT:pesect.obj
 0001:0004ec60       strrchr                    000000018004fc60 f   libvcruntime:strrchr.obj
 0001:0004eda0       wcschr                     000000018004fda0 f   libvcruntime:wcschr.obj
 0001:0004ee50       _guard_dispatch_icall_nop  000000018004fe50 f   LIBCMT:_guard_dispatch_.obj
 0001:00052280       ??__F_Static@?1???$_Immortalize@V_Iostream_error_category@std@@@std@@YAAEAV_Iostream_error_category@0@XZ@YAXXZ 0000000180053280 f i njsOracle.obj
 0002:00000000       __imp_GetModuleHandleA     0000000180054000     kernel32:KERNEL32.dll
 0002:00000008       __imp_VirtualQuery         0000000180054008     kernel32:KERNEL32.dll
 0002:00000010       __imp_VirtualProtect       0000000180054010     kernel32:KERNEL32.dll
 0002:00000018       __imp_GetSystemInfo        0000000180054018     kernel32:KERNEL32.dll
 0002:00000020       __imp_CreateFileW          0000000180054020     kernel32:KERNEL32.dll
 0002:00000028       __imp_SetFilePointerEx     0000000180054028     kernel32:KERNEL32.dll
 0002:00000030       __imp_HeapSize             0000000180054030     kernel32:KERNEL32.dll
 0002:00000038       __imp_GetConsoleMode       0000000180054038     kernel32:KERNEL32.dll
 0002:00000040       __imp_GetConsoleCP         0000000180054040     kernel32:KERNEL32.dll
 0002:00000048       __imp_FlushFileBuffers     0000000180054048     kernel32:KERNEL32.dll
 0002:00000050       __imp_SetStdHandle         0000000180054050     kernel32:KERNEL32.dll
 0002:00000058       __imp_FreeEnvironmentStringsW 0000000180054058     kernel32:KERNEL32.dll
 0002:00000060       __imp_GetEnvironmentStringsW 0000000180054060     kernel32:KERNEL32.dll
 0002:00000068       __imp_GetCommandLineW      0000000180054068     kernel32:KERNEL32.dll
 0002:00000070       __imp_GetCommandLineA      0000000180054070     kernel32:KERNEL32.dll
 0002:00000078       __imp_GetOEMCP             0000000180054078     kernel32:KERNEL32.dll
 0002:00000080       __imp_IsValidCodePage      0000000180054080     kernel32:KERNEL32.dll
 0002:00000088       __imp_FindNextFileA        0000000180054088     kernel32:KERNEL32.dll
 0002:00000090       __imp_FindFirstFileExA     0000000180054090     kernel32:KERNEL32.dll
 0002:00000098       __imp_FindClose            0000000180054098     kernel32:KERNEL32.dll
 0002:000000a0       __imp_GetProcessHeap       00000001800540a0     kernel32:KERNEL32.dll
 0002:000000a8       __imp_EnumSystemLocalesW   00000001800540a8     kernel32:KERNEL32.dll
 0002:000000b0       __imp_GetUserDefaultLCID   00000001800540b0     kernel32:KERNEL32.dll
 0002:000000b8       __imp_IsValidLocale        00000001800540b8     kernel32:KERNEL32.dll
 0002:000000c0       __imp_OutputDebugStringW   00000001800540c0     kernel32:KERNEL32.dll
 0002:000000c8       __imp_WriteFile            00000001800540c8     kernel32:KERNEL32.dll
 0002:000000d0       __imp_GetACP               00000001800540d0     kernel32:KERNEL32.dll
 0002:000000d8       __imp_ExitProcess          00000001800540d8     kernel32:KERNEL32.dll
 0002:000000e0       __imp_HeapFree             00000001800540e0     kernel32:KERNEL32.dll
 0002:000000e8       __imp_HeapReAlloc          00000001800540e8     kernel32:KERNEL32.dll
 0002:000000f0       __imp_HeapAlloc            00000001800540f0     kernel32:KERNEL32.dll
 0002:000000f8       __imp_WriteConsoleW        00000001800540f8     kernel32:KERNEL32.dll
 0002:00000100       __imp_GetModuleHandleExW   0000000180054100     kernel32:KERNEL32.dll
 0002:00000108       __imp_GetModuleFileNameW   0000000180054108     kernel32:KERNEL32.dll
 0002:00000110       __imp_WideCharToMultiByte  0000000180054110     kernel32:KERNEL32.dll
 0002:00000118       __imp_EnterCriticalSection 0000000180054118     kernel32:KERNEL32.dll
 0002:00000120       __imp_LeaveCriticalSection 0000000180054120     kernel32:KERNEL32.dll
 0002:00000128       __imp_DeleteCriticalSection 0000000180054128     kernel32:KERNEL32.dll
 0002:00000130       __imp_EncodePointer        0000000180054130     kernel32:KERNEL32.dll
 0002:00000138       __imp_DecodePointer        0000000180054138     kernel32:KERNEL32.dll
 0002:00000140       __imp_MultiByteToWideChar  0000000180054140     kernel32:KERNEL32.dll
 0002:00000148       __imp_SetLastError         0000000180054148     kernel32:KERNEL32.dll
 0002:00000150       __imp_InitializeCriticalSectionAndSpinCount 0000000180054150     kernel32:KERNEL32.dll
 0002:00000158       __imp_CreateEventW         0000000180054158     kernel32:KERNEL32.dll
 0002:00000160       __imp_TlsAlloc             0000000180054160     kernel32:KERNEL32.dll
 0002:00000168       __imp_TlsGetValue          0000000180054168     kernel32:KERNEL32.dll
 0002:00000170       __imp_TlsSetValue          0000000180054170     kernel32:KERNEL32.dll
 0002:00000178       __imp_TlsFree              0000000180054178     kernel32:KERNEL32.dll
 0002:00000180       __imp_GetSystemTimeAsFileTime 0000000180054180     kernel32:KERNEL32.dll
 0002:00000188       __imp_GetModuleHandleW     0000000180054188     kernel32:KERNEL32.dll
 0002:00000190       __imp_GetProcAddress       0000000180054190     kernel32:KERNEL32.dll
 0002:00000198       __imp_LCMapStringW         0000000180054198     kernel32:KERNEL32.dll
 0002:000001a0       __imp_GetLocaleInfoW       00000001800541a0     kernel32:KERNEL32.dll
 0002:000001a8       __imp_GetStringTypeW       00000001800541a8     kernel32:KERNEL32.dll
 0002:000001b0       __imp_GetCPInfo            00000001800541b0     kernel32:KERNEL32.dll
 0002:000001b8       __imp_CloseHandle          00000001800541b8     kernel32:KERNEL32.dll
 0002:000001c0       __imp_SetEvent             00000001800541c0     kernel32:KERNEL32.dll
 0002:000001c8       __imp_ResetEvent           00000001800541c8     kernel32:KERNEL32.dll
 0002:000001d0       __imp_WaitForSingleObjectEx 00000001800541d0     kernel32:KERNEL32.dll
 0002:000001d8       __imp_RtlCaptureContext    00000001800541d8     kernel32:KERNEL32.dll
 0002:000001e0       __imp_RtlLookupFunctionEntry 00000001800541e0     kernel32:KERNEL32.dll
 0002:000001e8       __imp_RtlVirtualUnwind     00000001800541e8     kernel32:KERNEL32.dll
 0002:000001f0       __imp_UnhandledExceptionFilter 00000001800541f0     kernel32:KERNEL32.dll
 0002:000001f8       __imp_SetUnhandledExceptionFilter 00000001800541f8     kernel32:KERNEL32.dll
 0002:00000200       __imp_GetCurrentProcess    0000000180054200     kernel32:KERNEL32.dll
 0002:00000208       __imp_TerminateProcess     0000000180054208     kernel32:KERNEL32.dll
 0002:00000210       __imp_IsProcessorFeaturePresent 0000000180054210     kernel32:KERNEL32.dll
 0002:00000218       __imp_IsDebuggerPresent    0000000180054218     kernel32:KERNEL32.dll
 0002:00000220       __imp_GetStartupInfoW      0000000180054220     kernel32:KERNEL32.dll
 0002:00000228       __imp_QueryPerformanceCounter 0000000180054228     kernel32:KERNEL32.dll
 0002:00000230       __imp_GetCurrentProcessId  0000000180054230     kernel32:KERNEL32.dll
 0002:00000238       __imp_GetCurrentThreadId   0000000180054238     kernel32:KERNEL32.dll
 0002:00000240       __imp_InitializeSListHead  0000000180054240     kernel32:KERNEL32.dll
 0002:00000248       __imp_RtlUnwindEx          0000000180054248     kernel32:KERNEL32.dll
 0002:00000250       __imp_RtlPcToFileHeader    0000000180054250     kernel32:KERNEL32.dll
 0002:00000258       __imp_RaiseException       0000000180054258     kernel32:KERNEL32.dll
 0002:00000260       __imp_GetLastError         0000000180054260     kernel32:KERNEL32.dll
 0002:00000268       __imp_FreeLibrary          0000000180054268     kernel32:KERNEL32.dll
 0002:00000270       __imp_LoadLibraryExW       0000000180054270     kernel32:KERNEL32.dll
 0002:00000278       __imp_InterlockedFlushSList 0000000180054278     kernel32:KERNEL32.dll
 0002:00000280       __imp_GetStdHandle         0000000180054280     kernel32:KERNEL32.dll
 0002:00000288       __imp_GetFileType          0000000180054288     kernel32:KERNEL32.dll
 0002:00000290       __imp_GetModuleFileNameA   0000000180054290     kernel32:KERNEL32.dll
 0002:00000298       __imp_LoadLibraryExA       0000000180054298     kernel32:KERNEL32.dll
 0002:000002a0       \177KERNEL32_NULL_THUNK_DATA 00000001800542a0     kernel32:KERNEL32.dll
 0002:000002a8       __imp_OCIClientVersion     00000001800542a8     oci:OCI.dll
 0002:000002b0       __imp_OCILobCreateTemporary 00000001800542b0     oci:OCI.dll
 0002:000002b8       __imp_OCILobIsTemporary    00000001800542b8     oci:OCI.dll
 0002:000002c0       __imp_OCILobLocatorAssign  00000001800542c0     oci:OCI.dll
 0002:000002c8       __imp_OCILobWrite2         00000001800542c8     oci:OCI.dll
 0002:000002d0       __imp_OCILobRead2          00000001800542d0     oci:OCI.dll
 0002:000002d8       __imp_OCILobGetLength2     00000001800542d8     oci:OCI.dll
 0002:000002e0       __imp_OCILobFreeTemporary  00000001800542e0     oci:OCI.dll
 0002:000002e8       __imp_OCILobGetChunkSize   00000001800542e8     oci:OCI.dll
 0002:000002f0       __imp_OCIErrorGet          00000001800542f0     oci:OCI.dll
 0002:000002f8       __imp_OCIStmtRelease       00000001800542f8     oci:OCI.dll
 0002:00000300       __imp_OCIStmtFetch2        0000000180054300     oci:OCI.dll
 0002:00000308       __imp_OCIBindByPos2        0000000180054308     oci:OCI.dll
 0002:00000310       __imp_OCIBindDynamic       0000000180054310     oci:OCI.dll
 0002:00000318       __imp_OCIParamGet          0000000180054318     oci:OCI.dll
 0002:00000320       __imp_OCIStmtPrepare2      0000000180054320     oci:OCI.dll
 0002:00000328       __imp_OCIBindByName2       0000000180054328     oci:OCI.dll
 0002:00000330       __imp_OCIDefineByPos2      0000000180054330     oci:OCI.dll
 0002:00000338       __imp_OCIStmtExecute       0000000180054338     oci:OCI.dll
 0002:00000340       __imp_OCIDefineDynamic     0000000180054340     oci:OCI.dll
 0002:00000348       __imp_OCISessionPoolDestroy 0000000180054348     oci:OCI.dll
 0002:00000350       __imp_OCISessionPoolCreate 0000000180054350     oci:OCI.dll
 0002:00000358       __imp_OCIIntervalSetDaySecond 0000000180054358     oci:OCI.dll
 0002:00000360       __imp_OCIDateTimeIntervalAdd 0000000180054360     oci:OCI.dll
 0002:00000368       __imp_OCIIntervalGetDaySecond 0000000180054368     oci:OCI.dll
 0002:00000370       __imp_OCIDateTimeSubtract  0000000180054370     oci:OCI.dll
 0002:00000378       __imp_OCIDateTimeConstruct 0000000180054378     oci:OCI.dll
 0002:00000380       __imp_OCIBreak             0000000180054380     oci:OCI.dll
 0002:00000388       __imp_OCIAttrSet           0000000180054388     oci:OCI.dll
 0002:00000390       __imp_OCIServerRelease     0000000180054390     oci:OCI.dll
 0002:00000398       __imp_OCIAttrGet           0000000180054398     oci:OCI.dll
 0002:000003a0       __imp_OCISessionGet        00000001800543a0     oci:OCI.dll
 0002:000003a8       __imp_OCISessionRelease    00000001800543a8     oci:OCI.dll
 0002:000003b0       __imp_OCITransRollback     00000001800543b0     oci:OCI.dll
 0002:000003b8       __imp_OCITransCommit       00000001800543b8     oci:OCI.dll
 0002:000003c0       __imp_OCIHandleAlloc       00000001800543c0     oci:OCI.dll
 0002:000003c8       __imp_OCIArrayDescriptorAlloc 00000001800543c8     oci:OCI.dll
 0002:000003d0       __imp_OCIDescriptorAlloc   00000001800543d0     oci:OCI.dll
 0002:000003d8       __imp_OCIEnvNlsCreate      00000001800543d8     oci:OCI.dll
 0002:000003e0       __imp_OCIArrayDescriptorFree 00000001800543e0     oci:OCI.dll
 0002:000003e8       __imp_OCIHandleFree        00000001800543e8     oci:OCI.dll
 0002:000003f0       __imp_OCIDescriptorFree    00000001800543f0     oci:OCI.dll
 0002:000003f8       \177OCI_NULL_THUNK_DATA    00000001800543f8     oci:OCI.dll
 0002:00000400       __guard_check_icall_fptr   0000000180054400     LIBCMT:guard_support.obj
 0002:00000408       __guard_dispatch_icall_fptr 0000000180054408     LIBCMT:guard_support.obj
 0002:00000410       __xc_a                     0000000180054410     LIBCMT:initializers.obj
 0002:00000440       _register_oracledb_        0000000180054440     njsOracle.obj
 0002:00000478       __xc_z                     0000000180054478     LIBCMT:initializers.obj
 0002:00000480       __xi_a                     0000000180054480     LIBCMT:initializers.obj
 0002:00000498       __acrt_stdio_initializer   0000000180054498     libucrt:stdio_initializer.obj
 0002:000004a0       __acrt_tran_fma3_initializer 00000001800544a0     libucrt:fma3_initializer.obj
 0002:000004a8       __acrt_timeset_initializer 00000001800544a8     libucrt:timeset_initializer.obj
 0002:000004b0       __acrt_multibyte_initializer 00000001800544b0     libucrt:multibyte_initializer.obj
 0002:000004b8       __xi_z                     00000001800544b8     LIBCMT:initializers.obj
 0002:000004c0       __xl_a                     00000001800544c0     LIBCMT:tlssup.obj
 0002:000004c8       __xl_z                     00000001800544c8     LIBCMT:tlssup.obj
 0002:000004d0       __xp_a                     00000001800544d0     LIBCMT:initializers.obj
 0002:000004d8       __acrt_locale_terminator   00000001800544d8     libucrt:locale_initializer.obj
 0002:000004e0       __dcrt_console_output_terminator 00000001800544e0     libucrt:console_output_initializer.obj
 0002:000004e8       __acrt_stdio_terminator    00000001800544e8     libucrt:stdio_initializer.obj
 0002:000004f0       __xp_z                     00000001800544f0     LIBCMT:initializers.obj
 0002:000004f8       __xt_a                     00000001800544f8     LIBCMT:initializers.obj
 0002:00000500       __xt_z                     0000000180054500     LIBCMT:initializers.obj
 0002:00000510       __sz_node_exe              0000000180054510     node:node.exe
 0002:000005f0       ??_7_Facet_base@std@@6B@   00000001800545f0     libcpmt:locale0.obj
 0002:00000610       ??_7_Locimp@locale@std@@6B@ 0000000180054610     libcpmt:locale0.obj
 0002:00000628       ??_C@_01NBENCBCI@?$CK?$AA@ 0000000180054628     libcpmt:locale0.obj
 0002:0000062c       ??_C@_01GFHCPBMG@C?$AA@    000000018005462c     libcpmt:locale0.obj
 0002:00000638       ??_7exception@std@@6B@     0000000180054638     libcpmt:xthrow.obj
 0002:00000648       ??_C@_0BC@EOODALEL@Unknown?5exception?$AA@ 0000000180054648     libcpmt:xthrow.obj
 0002:00000668       ??_7bad_alloc@std@@6B@     0000000180054668     libcpmt:xthrow.obj
 0002:00000678       ??_C@_0P@GHFPNOJB@bad?5allocation?$AA@ 0000000180054678     libcpmt:xthrow.obj
 0002:00000690       ??_7logic_error@std@@6B@   0000000180054690     libcpmt:xthrow.obj
 0002:000006a8       ??_7length_error@std@@6B@  00000001800546a8     libcpmt:xthrow.obj
 0002:000006c0       ??_7out_of_range@std@@6B@  00000001800546c0     libcpmt:xthrow.obj
 0002:000006d8       ??_7runtime_error@std@@6B@ 00000001800546d8     libcpmt:xthrow.obj
 0002:000006e8       ?_BADOFF@std@@3_JB         00000001800546e8     libcpmt:ios.obj
 0002:00000e20       ??_C@_0BN@LKKBCCDB@address?5family?5not?5supported?$AA@ 0000000180054e20     libcpmt:syserror.obj
 0002:00000e40       ??_C@_0P@LDMLAFHI@address?5in?5use?$AA@ 0000000180054e40     libcpmt:syserror.obj
 0002:00000e50       ??_C@_0BG@DHPCNBJB@address?5not?5available?$AA@ 0000000180054e50     libcpmt:syserror.obj
 0002:00000e68       ??_C@_0BC@DFIBIBIL@already?5connected?$AA@ 0000000180054e68     libcpmt:syserror.obj
 0002:00000e80       ??_C@_0BH@CAKOHOMI@argument?5list?5too?5long?$AA@ 0000000180054e80     libcpmt:syserror.obj
 0002:00000e98       ??_C@_0BH@CGIMPKIM@argument?5out?5of?5domain?$AA@ 0000000180054e98     libcpmt:syserror.obj
 0002:00000eb0       ??_C@_0M@KGHGGJGL@bad?5address?$AA@ 0000000180054eb0     libcpmt:syserror.obj
 0002:00000ec0       ??_C@_0BE@MPJPGCEO@bad?5file?5descriptor?$AA@ 0000000180054ec0     libcpmt:syserror.obj
 0002:00000ed8       ??_C@_0M@PMMIEFCP@bad?5message?$AA@ 0000000180054ed8     libcpmt:syserror.obj
 0002:00000ee8       ??_C@_0M@KPHOFDBE@broken?5pipe?$AA@ 0000000180054ee8     libcpmt:syserror.obj
 0002:00000ef8       ??_C@_0BD@MGNDDEGM@connection?5aborted?$AA@ 0000000180054ef8     libcpmt:syserror.obj
 0002:00000f10       ??_C@_0BP@KAIHPOGN@connection?5already?5in?5progress?$AA@ 0000000180054f10     libcpmt:syserror.obj
 0002:00000f30       ??_C@_0BD@PJLIIJEL@connection?5refused?$AA@ 0000000180054f30     libcpmt:syserror.obj
 0002:00000f48       ??_C@_0BB@IECNJNOI@connection?5reset?$AA@ 0000000180054f48     libcpmt:syserror.obj
 0002:00000f60       ??_C@_0BC@PPHBOELF@cross?5device?5link?$AA@ 0000000180054f60     libcpmt:syserror.obj
 0002:00000f78       ??_C@_0BN@KDMIFEIP@destination?5address?5required?$AA@ 0000000180054f78     libcpmt:syserror.obj
 0002:00000f98       ??_C@_0BI@NGCEHDD@device?5or?5resource?5busy?$AA@ 0000000180054f98     libcpmt:syserror.obj
 0002:00000fb0       ??_C@_0BE@JIDOCPHM@directory?5not?5empty?$AA@ 0000000180054fb0     libcpmt:syserror.obj
 0002:00000fc8       ??_C@_0BI@BNCLIGPB@executable?5format?5error?$AA@ 0000000180054fc8     libcpmt:syserror.obj
 0002:00000fe0       ??_C@_0M@MIDIAGJP@file?5exists?$AA@ 0000000180054fe0     libcpmt:syserror.obj
 0002:00000ff0       ??_C@_0P@DNAJLBJK@file?5too?5large?$AA@ 0000000180054ff0     libcpmt:syserror.obj
 0002:00001000       ??_C@_0BC@EJHOMAAK@filename?5too?5long?$AA@ 0000000180055000     libcpmt:syserror.obj
 0002:00001018       ??_C@_0BH@KEFGLDAF@function?5not?5supported?$AA@ 0000000180055018     libcpmt:syserror.obj
 0002:00001030       ??_C@_0BB@DHFDFGDM@host?5unreachable?$AA@ 0000000180055030     libcpmt:syserror.obj
 0002:00001048       ??_C@_0BD@JPHBMONG@identifier?5removed?$AA@ 0000000180055048     libcpmt:syserror.obj
 0002:00001060       ??_C@_0BG@CDNPAGJK@illegal?5byte?5sequence?$AA@ 0000000180055060     libcpmt:syserror.obj
 0002:00001078       ??_C@_0CD@BNPLBMNA@inappropriate?5io?5control?5operati@ 0000000180055078     libcpmt:syserror.obj
 0002:000010a0       ??_C@_0M@EGEKIIMP@interrupted?$AA@ 00000001800550a0     libcpmt:syserror.obj
 0002:000010b0       ??_C@_0BB@FCMFBGOM@invalid?5argument?$AA@ 00000001800550b0     libcpmt:syserror.obj
 0002:000010c8       ??_C@_0N@OHAFKDEK@invalid?5seek?$AA@ 00000001800550c8     libcpmt:syserror.obj
 0002:000010d8       ??_C@_08GLNPIFBN@io?5error?$AA@ 00000001800550d8     libcpmt:syserror.obj
 0002:000010e8       ??_C@_0P@FLLDBIDK@is?5a?5directory?$AA@ 00000001800550e8     libcpmt:syserror.obj
 0002:000010f8       ??_C@_0N@IFLPBIOP@message?5size?$AA@ 00000001800550f8     libcpmt:syserror.obj
 0002:00001108       ??_C@_0N@KIIEAAIO@network?5down?$AA@ 0000000180055108     libcpmt:syserror.obj
 0002:00001118       ??_C@_0O@FNPDBHEE@network?5reset?$AA@ 0000000180055118     libcpmt:syserror.obj
 0002:00001128       ??_C@_0BE@IFNCKGE@network?5unreachable?$AA@ 0000000180055128     libcpmt:syserror.obj
 0002:00001140       ??_C@_0BA@PFFCAOFK@no?5buffer?5space?$AA@ 0000000180055140     libcpmt:syserror.obj
 0002:00001150       ??_C@_0BB@IEPBLJHK@no?5child?5process?$AA@ 0000000180055150     libcpmt:syserror.obj
 0002:00001168       ??_C@_07PLECNNKG@no?5link?$AA@ 0000000180055168     libcpmt:syserror.obj
 0002:00001170       ??_C@_0BC@NJECKMKE@no?5lock?5available?$AA@ 0000000180055170     libcpmt:syserror.obj
 0002:00001188       ??_C@_0BF@PBGGPKKE@no?5message?5available?$AA@ 0000000180055188     libcpmt:syserror.obj
 0002:000011a0       ??_C@_0L@EDOLMPAK@no?5message?$AA@ 00000001800551a0     libcpmt:syserror.obj
 0002:000011b0       ??_C@_0BD@EAMBFIDF@no?5protocol?5option?$AA@ 00000001800551b0     libcpmt:syserror.obj
 0002:000011c8       ??_C@_0BD@IJDJKDEA@no?5space?5on?5device?$AA@ 00000001800551c8     libcpmt:syserror.obj
 0002:000011e0       ??_C@_0BE@MKFDAFMP@no?5stream?5resources?$AA@ 00000001800551e0     libcpmt:syserror.obj
 0002:000011f8       ??_C@_0BK@IMCPHCBI@no?5such?5device?5or?5address?$AA@ 00000001800551f8     libcpmt:syserror.obj
 0002:00001218       ??_C@_0P@FDINDDOK@no?5such?5device?$AA@ 0000000180055218     libcpmt:syserror.obj
 0002:00001228       ??_C@_0BK@NDOCBPGE@no?5such?5file?5or?5directory?$AA@ 0000000180055228     libcpmt:syserror.obj
 0002:00001248       ??_C@_0BA@ENLPPKBN@no?5such?5process?$AA@ 0000000180055248     libcpmt:syserror.obj
 0002:00001258       ??_C@_0BA@DOCPFFJG@not?5a?5directory?$AA@ 0000000180055258     libcpmt:syserror.obj
 0002:00001268       ??_C@_0N@POEIPGGF@not?5a?5socket?$AA@ 0000000180055268     libcpmt:syserror.obj
 0002:00001278       ??_C@_0N@LGAPMMPI@not?5a?5stream?$AA@ 0000000180055278     libcpmt:syserror.obj
 0002:00001288       ??_C@_0O@GLMIBBEG@not?5connected?$AA@ 0000000180055288     libcpmt:syserror.obj
 0002:00001298       ??_C@_0BC@ENOOLCNF@not?5enough?5memory?$AA@ 0000000180055298     libcpmt:syserror.obj
 0002:000012b0       ??_C@_0O@NHEDABJP@not?5supported?$AA@ 00000001800552b0     libcpmt:syserror.obj
 0002:000012c0       ??_C@_0BD@MOLBPMEA@operation?5canceled?$AA@ 00000001800552c0     libcpmt:syserror.obj
 0002:000012d8       ??_C@_0BG@KDKHOPCO@operation?5in?5progress?$AA@ 00000001800552d8     libcpmt:syserror.obj
 0002:000012f0       ??_C@_0BI@OHIEJAAB@operation?5not?5permitted?$AA@ 00000001800552f0     libcpmt:syserror.obj
 0002:00001308       ??_C@_0BI@LNEGIFLN@operation?5not?5supported?$AA@ 0000000180055308     libcpmt:syserror.obj
 0002:00001320       ??_C@_0BG@OEMDKMEE@operation?5would?5block?$AA@ 0000000180055320     libcpmt:syserror.obj
 0002:00001338       ??_C@_0L@BLPOFLNJ@owner?5dead?$AA@ 0000000180055338     libcpmt:syserror.obj
 0002:00001348       ??_C@_0BC@CIJDGCDI@permission?5denied?$AA@ 0000000180055348     libcpmt:syserror.obj
 0002:00001360       ??_C@_0P@FNPOCJBE@protocol?5error?$AA@ 0000000180055360     libcpmt:syserror.obj
 0002:00001370       ??_C@_0BH@JPPPLHJB@protocol?5not?5supported?$AA@ 0000000180055370     libcpmt:syserror.obj
 0002:00001388       ??_C@_0BG@EICBIHDP@read?5only?5file?5system?$AA@ 0000000180055388     libcpmt:syserror.obj
 0002:000013a0       ??_C@_0BO@BJBOMOEJ@resource?5deadlock?5would?5occur?$AA@ 00000001800553a0     libcpmt:syserror.obj
 0002:000013c0       ??_C@_0BP@LKNGHENJ@resource?5unavailable?5try?5again?$AA@ 00000001800553c0     libcpmt:syserror.obj
 0002:000013e0       ??_C@_0BE@GOIPJJHG@result?5out?5of?5range?$AA@ 00000001800553e0     libcpmt:syserror.obj
 0002:000013f8       ??_C@_0BG@MPLKFPAE@state?5not?5recoverable?$AA@ 00000001800553f8     libcpmt:syserror.obj
 0002:00001410       ??_C@_0P@DIIFGFCG@stream?5timeout?$AA@ 0000000180055410     libcpmt:syserror.obj
 0002:00001420       ??_C@_0P@IPFDMIFL@text?5file?5busy?$AA@ 0000000180055420     libcpmt:syserror.obj
 0002:00001430       ??_C@_09KJPPMAOI@timed?5out?$AA@ 0000000180055430     libcpmt:syserror.obj
 0002:00001440       ??_C@_0BO@HACHBEKI@too?5many?5files?5open?5in?5system?$AA@ 0000000180055440     libcpmt:syserror.obj
 0002:00001460       ??_C@_0BE@GHAFMPAH@too?5many?5files?5open?$AA@ 0000000180055460     libcpmt:syserror.obj
 0002:00001478       ??_C@_0P@HCOMKFCC@too?5many?5links?$AA@ 0000000180055478     libcpmt:syserror.obj
 0002:00001488       ??_C@_0BO@EFGOJEF@too?5many?5symbolic?5link?5levels?$AA@ 0000000180055488     libcpmt:syserror.obj
 0002:000014a8       ??_C@_0BA@KGKGOOJA@value?5too?5large?$AA@ 00000001800554a8     libcpmt:syserror.obj
 0002:000014b8       ??_C@_0BE@MIEJDDNH@wrong?5protocol?5type?$AA@ 00000001800554b8     libcpmt:syserror.obj
 0002:000014d0       ??_C@_0O@BFJCFAAK@unknown?5error?$AA@ 00000001800554d0     libcpmt:syserror.obj
 0002:00001510       ??_7?$ctype@D@std@@6B@     0000000180055510     libcpmt:locale.obj
 0002:00001570       ??_7?$num_put@DV?$ostreambuf_iterator@DU?$char_traits@D@std@@@std@@@std@@6B@ 0000000180055570     libcpmt:locale.obj
 0002:000015d0       ??_7?$numpunct@D@std@@6B@  00000001800555d0     libcpmt:locale.obj
 0002:00001610       ??_C@_1BK@MGMFAEKH@?$AAk?$AAe?$AAr?$AAn?$AAe?$AAl?$AA3?$AA2?$AA?4?$AAd?$AAl?$AAl?$AA?$AA@ 0000000180055610     libcpmt:winapisupp.obj
 0002:00001630       ??_C@_08KNHFBNJ@FlsAlloc?$AA@ 0000000180055630     libcpmt:winapisupp.obj
 0002:00001640       ??_C@_07PEJMOBNF@FlsFree?$AA@ 0000000180055640     libcpmt:winapisupp.obj
 0002:00001648       ??_C@_0M@GDNOONDI@FlsGetValue?$AA@ 0000000180055648     libcpmt:winapisupp.obj
 0002:00001658       ??_C@_0M@JCPCPOEF@FlsSetValue?$AA@ 0000000180055658     libcpmt:winapisupp.obj
 0002:00001668       ??_C@_0BM@HCFOFFN@InitializeCriticalSectionEx?$AA@ 0000000180055668     libcpmt:winapisupp.obj
 0002:00001688       ??_C@_0BE@GPLMMCMH@InitOnceExecuteOnce?$AA@ 0000000180055688     libcpmt:winapisupp.obj
 0002:000016a0       ??_C@_0P@DLHPPCNH@CreateEventExW?$AA@ 00000001800556a0     libcpmt:winapisupp.obj
 0002:000016b0       ??_C@_0BB@MEFPJLHN@CreateSemaphoreW?$AA@ 00000001800556b0     libcpmt:winapisupp.obj
 0002:000016c8       ??_C@_0BD@KIEEOEEH@CreateSemaphoreExW?$AA@ 00000001800556c8     libcpmt:winapisupp.obj
 0002:000016e0       ??_C@_0BG@OGFAJCKC@CreateThreadpoolTimer?$AA@ 00000001800556e0     libcpmt:winapisupp.obj
 0002:000016f8       ??_C@_0BD@LPLEMMDI@SetThreadpoolTimer?$AA@ 00000001800556f8     libcpmt:winapisupp.obj
 0002:00001710       ??_C@_0CA@FMNJENH@WaitForThreadpoolTimerCallbacks?$AA@ 0000000180055710     libcpmt:winapisupp.obj
 0002:00001730       ??_C@_0BF@DCFCCNOC@CloseThreadpoolTimer?$AA@ 0000000180055730     libcpmt:winapisupp.obj
 0002:00001748       ??_C@_0BF@FLABGKKM@CreateThreadpoolWait?$AA@ 0000000180055748     libcpmt:winapisupp.obj
 0002:00001760       ??_C@_0BC@MGCOHNA@SetThreadpoolWait?$AA@ 0000000180055760     libcpmt:winapisupp.obj
 0002:00001778       ??_C@_0BE@OCIOMIMP@CloseThreadpoolWait?$AA@ 0000000180055778     libcpmt:winapisupp.obj
 0002:00001790       ??_C@_0BJ@LKGHFHBO@FlushProcessWriteBuffers?$AA@ 0000000180055790     libcpmt:winapisupp.obj
 0002:000017b0       ??_C@_0BP@KALKKPMO@FreeLibraryWhenCallbackReturns?$AA@ 00000001800557b0     libcpmt:winapisupp.obj
 0002:000017d0       ??_C@_0BK@DFNBACLA@GetCurrentProcessorNumber?$AA@ 00000001800557d0     libcpmt:winapisupp.obj
 0002:000017f0       ??_C@_0BE@FKKLLFLM@CreateSymbolicLinkW?$AA@ 00000001800557f0     libcpmt:winapisupp.obj
 0002:00001808       ??_C@_0BE@JOGNEJCI@GetCurrentPackageId?$AA@ 0000000180055808     libcpmt:winapisupp.obj
 0002:00001820       ??_C@_0P@CDHHOHKP@GetTickCount64?$AA@ 0000000180055820     libcpmt:winapisupp.obj
 0002:00001830       ??_C@_0BN@NEEHBBPO@GetFileInformationByHandleEx?$AA@ 0000000180055830     libcpmt:winapisupp.obj
 0002:00001850       ??_C@_0BL@KBBHGKCM@SetFileInformationByHandle?$AA@ 0000000180055850     libcpmt:winapisupp.obj
 0002:00001870       ??_C@_0BP@FPNJPEJC@GetSystemTimePreciseAsFileTime?$AA@ 0000000180055870     libcpmt:winapisupp.obj
 0002:00001890       ??_C@_0BM@HLJJNPAH@InitializeConditionVariable?$AA@ 0000000180055890     libcpmt:winapisupp.obj
 0002:000018b0       ??_C@_0BG@BFNILBLN@WakeConditionVariable?$AA@ 00000001800558b0     libcpmt:winapisupp.obj
 0002:000018c8       ??_C@_0BJ@PGPPEPCC@WakeAllConditionVariable?$AA@ 00000001800558c8     libcpmt:winapisupp.obj
 0002:000018e8       ??_C@_0BJ@JEBJOJFJ@SleepConditionVariableCS?$AA@ 00000001800558e8     libcpmt:winapisupp.obj
 0002:00001908       ??_C@_0BC@MMLHEBPB@InitializeSRWLock?$AA@ 0000000180055908     libcpmt:winapisupp.obj
 0002:00001920       ??_C@_0BI@OMNLIJDB@AcquireSRWLockExclusive?$AA@ 0000000180055920     libcpmt:winapisupp.obj
 0002:00001938       ??_C@_0BL@OGHFEMNA@TryAcquireSRWLockExclusive?$AA@ 0000000180055938     libcpmt:winapisupp.obj
 0002:00001958       ??_C@_0BI@HMIEPCNJ@ReleaseSRWLockExclusive?$AA@ 0000000180055958     libcpmt:winapisupp.obj
 0002:00001970       ??_C@_0BK@LGACAGIC@SleepConditionVariableSRW?$AA@ 0000000180055970     libcpmt:winapisupp.obj
 0002:00001990       ??_C@_0BF@GGPHFPJA@CreateThreadpoolWork?$AA@ 0000000180055990     libcpmt:winapisupp.obj
 0002:000019a8       ??_C@_0BF@NHDAIMMO@SubmitThreadpoolWork?$AA@ 00000001800559a8     libcpmt:winapisupp.obj
 0002:000019c0       ??_C@_0BE@NPHIPNPD@CloseThreadpoolWork?$AA@ 00000001800559c0     libcpmt:winapisupp.obj
 0002:000019d8       ??_C@_0BA@IHGNDAEB@CompareStringEx?$AA@ 00000001800559d8     libcpmt:winapisupp.obj
 0002:000019e8       ??_C@_0BA@ONOKGCMP@GetLocaleInfoEx?$AA@ 00000001800559e8     libcpmt:winapisupp.obj
 0002:000019f8       ??_C@_0O@KKBNKAPF@LCMapStringEx?$AA@ 00000001800559f8     libcpmt:winapisupp.obj
 0002:00001a08       ??_C@_11LOCGONAA@?$AA?$AA@ 0000000180055a08     libcpmt:wlocale.obj
 0002:00001a10       __xmm@80000000000000008000000000000000 0000000180055a10     libcpmt:wlocale.obj
 0002:00003740       ??_C@_15EMKDOKLE@?$AAa?$AAr?$AA?$AA@ 0000000180057740     libcpmt:winapinls.obj
 0002:00003748       ??_C@_15KNPADPLH@?$AAb?$AAg?$AA?$AA@ 0000000180057748     libcpmt:winapinls.obj
 0002:00003750       ??_C@_15EDMHLDMO@?$AAc?$AAa?$AA?$AA@ 0000000180057750     libcpmt:winapinls.obj
 0002:00003758       ??_C@_1O@BPEAJADD@?$AAz?$AAh?$AA?9?$AAC?$AAH?$AAS?$AA?$AA@ 0000000180057758     libcpmt:winapinls.obj
 0002:00003768       ??_C@_15LJNHCMNK@?$AAc?$AAs?$AA?$AA@ 0000000180057768     libcpmt:winapinls.obj
 0002:00003770       ??_C@_15FOMCIDHG@?$AAd?$AAa?$AA?$AA@ 0000000180057770     libcpmt:winapinls.obj
 0002:00003778       ??_C@_15NBKABECB@?$AAd?$AAe?$AA?$AA@ 0000000180057778     libcpmt:winapinls.obj
 0002:00003780       ??_C@_15GHPEIIAO@?$AAe?$AAl?$AA?$AA@ 0000000180057780     libcpmt:winapinls.obj
 0002:00003788       ??_C@_15MNPNEAIF@?$AAe?$AAn?$AA?$AA@ 0000000180057788     libcpmt:winapinls.obj
 0002:00003790       ??_C@_15GPIOMPMH@?$AAe?$AAs?$AA?$AA@ 0000000180057790     libcpmt:winapinls.obj
 0002:00003798       ??_C@_15NGLOAKJC@?$AAf?$AAi?$AA?$AA@ 0000000180057798     libcpmt:winapinls.obj
 0002:000037a0       ??_C@_15FBKGNKAM@?$AAf?$AAr?$AA?$AA@ 00000001800577a0     libcpmt:winapinls.obj
 0002:000037a8       ??_C@_15KGGCNEFK@?$AAh?$AAe?$AA?$AA@ 00000001800577a8     libcpmt:winapinls.obj
 0002:000037b0       ??_C@_15PGHLIDMF@?$AAh?$AAu?$AA?$AA@ 00000001800577b0     libcpmt:winapinls.obj
 0002:000037b8       ??_C@_15BIEMAPLM@?$AAi?$AAs?$AA?$AA@ 00000001800577b8     libcpmt:winapinls.obj
 0002:000037c0       ??_C@_15IFJLDHAF@?$AAi?$AAt?$AA?$AA@ 00000001800577c0     libcpmt:winapinls.obj
 0002:000037c8       ??_C@_15GEMIOCAG@?$AAj?$AAa?$AA?$AA@ 00000001800577c8     libcpmt:winapinls.obj
 0002:000037d0       ??_C@_15EPELEGJA@?$AAk?$AAo?$AA?$AA@ 00000001800577d0     libcpmt:winapinls.obj
 0002:000037d8       ??_C@_15NDDHIMN@?$AAn?$AAl?$AA?$AA@ 00000001800577d8     libcpmt:winapinls.obj
 0002:000037e0       ??_C@_15BPIGNHCD@?$AAn?$AAo?$AA?$AA@ 00000001800577e0     libcpmt:winapinls.obj
 0002:000037e8       ??_C@_15DEOPBLCG@?$AAp?$AAl?$AA?$AA@ 00000001800577e8     libcpmt:winapinls.obj
 0002:000037f0       ??_C@_15KBECGEFG@?$AAp?$AAt?$AA?$AA@ 00000001800577f0     libcpmt:winapinls.obj
 0002:000037f8       ??_C@_15GLJCBFMD@?$AAr?$AAo?$AA?$AA@ 00000001800577f8     libcpmt:winapinls.obj
 0002:00003800       ??_C@_15FEDGKCDI@?$AAr?$AAu?$AA?$AA@ 0000000180057800     libcpmt:winapinls.obj
 0002:00003808       ??_C@_15GLKMLLHM@?$AAh?$AAr?$AA?$AA@ 0000000180057808     libcpmt:winapinls.obj
 0002:00003810       ??_C@_15CPKMFBDB@?$AAs?$AAk?$AA?$AA@ 0000000180057810     libcpmt:winapinls.obj
 0002:00003818       ??_C@_15BAAIOGMK@?$AAs?$AAq?$AA?$AA@ 0000000180057818     libcpmt:winapinls.obj
 0002:00003820       ??_C@_15INNPNOHD@?$AAs?$AAv?$AA?$AA@ 0000000180057820     libcpmt:winapinls.obj
 0002:00003828       ??_C@_15CABMMOGH@?$AAt?$AAh?$AA?$AA@ 0000000180057828     libcpmt:winapinls.obj
 0002:00003830       ??_C@_15BPLIHJJM@?$AAt?$AAr?$AA?$AA@ 0000000180057830     libcpmt:winapinls.obj
 0002:00003838       ??_C@_15NEOEKKDJ@?$AAu?$AAr?$AA?$AA@ 0000000180057838     libcpmt:winapinls.obj
 0002:00003840       ??_C@_15NFICGAJK@?$AAi?$AAd?$AA?$AA@ 0000000180057840     libcpmt:winapinls.obj
 0002:00003848       ??_C@_15PJPFLCCM@?$AAu?$AAk?$AA?$AA@ 0000000180057848     libcpmt:winapinls.obj
 0002:00003850       ??_C@_15HPJPHDM@?$AAb?$AAe?$AA?$AA@ 0000000180057850     libcpmt:winapinls.obj
 0002:00003858       ??_C@_15LCHLGJII@?$AAs?$AAl?$AA?$AA@ 0000000180057858     libcpmt:winapinls.obj
 0002:00003860       ??_C@_15PCFJPHHO@?$AAe?$AAt?$AA?$AA@ 0000000180057860     libcpmt:winapinls.obj
 0002:00003868       ??_C@_15HPFPGODN@?$AAl?$AAv?$AA?$AA@ 0000000180057868     libcpmt:winapinls.obj
 0002:00003870       ??_C@_15NFFGKGLG@?$AAl?$AAt?$AA?$AA@ 0000000180057870     libcpmt:winapinls.obj
 0002:00003878       ??_C@_15BDAKCCHN@?$AAf?$AAa?$AA?$AA@ 0000000180057878     libcpmt:winapinls.obj
 0002:00003880       ??_C@_15NFGIAIAJ@?$AAv?$AAi?$AA?$AA@ 0000000180057880     libcpmt:winapinls.obj
 0002:00003888       ??_C@_15LMKNDMHN@?$AAh?$AAy?$AA?$AA@ 0000000180057888     libcpmt:winapinls.obj
 0002:00003890       ??_C@_15IJBHMCFL@?$AAa?$AAz?$AA?$AA@ 0000000180057890     libcpmt:winapinls.obj
 0002:00003898       ??_C@_15EKOFJABL@?$AAe?$AAu?$AA?$AA@ 0000000180057898     libcpmt:winapinls.obj
 0002:000038a0       ??_C@_15BGHADCNK@?$AAm?$AAk?$AA?$AA@ 00000001800578a0     libcpmt:winapinls.obj
 0002:000038a8       ??_C@_15JDNICKHM@?$AAa?$AAf?$AA?$AA@ 00000001800578a8     libcpmt:winapinls.obj
 0002:000038b0       ??_C@_15KPJEDBKD@?$AAk?$AAa?$AA?$AA@ 00000001800578b0     libcpmt:winapinls.obj
 0002:000038b8       ??_C@_15PDNFFFEO@?$AAf?$AAo?$AA?$AA@ 00000001800578b8     libcpmt:winapinls.obj
 0002:000038c0       ??_C@_15OMLEGLOC@?$AAh?$AAi?$AA?$AA@ 00000001800578c0     libcpmt:winapinls.obj
 0002:000038c8       ??_C@_15IDNNENKK@?$AAm?$AAs?$AA?$AA@ 00000001800578c8     libcpmt:winapinls.obj
 0002:000038d0       ??_C@_15MACJNBMH@?$AAk?$AAk?$AA?$AA@ 00000001800578d0     libcpmt:winapinls.obj
 0002:000038d8       ??_C@_15DKDJEOND@?$AAk?$AAy?$AA?$AA@ 00000001800578d8     libcpmt:winapinls.obj
 0002:000038e0       ??_C@_15DFGDLJBG@?$AAs?$AAw?$AA?$AA@ 00000001800578e0     libcpmt:winapinls.obj
 0002:000038e8       ??_C@_15BBFAICNG@?$AAu?$AAz?$AA?$AA@ 00000001800578e8     libcpmt:winapinls.obj
 0002:000038f0       ??_C@_15DKNDCGEA@?$AAt?$AAt?$AA?$AA@ 00000001800578f0     libcpmt:winapinls.obj
 0002:000038f8       ??_C@_15MGIFMDPL@?$AAp?$AAa?$AA?$AA@ 00000001800578f8     libcpmt:winapinls.obj
 0002:00003900       ??_C@_15HCNDBBA@?$AAg?$AAu?$AA?$AA@ 0000000180057900     libcpmt:winapinls.obj
 0002:00003908       ??_C@_15FNBEIBON@?$AAt?$AAa?$AA?$AA@ 0000000180057908     libcpmt:winapinls.obj
 0002:00003910       ??_C@_15NCHGBGLK@?$AAt?$AAe?$AA?$AA@ 0000000180057910     libcpmt:winapinls.obj
 0002:00003918       ??_C@_15PHPHCBPF@?$AAk?$AAn?$AA?$AA@ 0000000180057918     libcpmt:winapinls.obj
 0002:00003920       ??_C@_15DLGBCKMP@?$AAm?$AAr?$AA?$AA@ 0000000180057920     libcpmt:winapinls.obj
 0002:00003928       ??_C@_15EABBLBFF@?$AAs?$AAa?$AA?$AA@ 0000000180057928     libcpmt:winapinls.obj
 0002:00003930       ??_C@_15CBKOMCOI@?$AAm?$AAn?$AA?$AA@ 0000000180057930     libcpmt:winapinls.obj
 0002:00003938       ??_C@_15CKDMCJAF@?$AAg?$AAl?$AA?$AA@ 0000000180057938     libcpmt:winapinls.obj
 0002:00003940       ??_C@_17CNJFBPG@?$AAk?$AAo?$AAk?$AA?$AA@ 0000000180057940     libcpmt:winapinls.obj
 0002:00003948       ??_C@_17FFBJICPL@?$AAs?$AAy?$AAr?$AA?$AA@ 0000000180057948     libcpmt:winapinls.obj
 0002:00003950       ??_C@_17KPNDCPAF@?$AAd?$AAi?$AAv?$AA?$AA@ 0000000180057950     libcpmt:winapinls.obj
 0002:00003958       ??_C@_1M@OKAHONE@?$AAa?$AAr?$AA?9?$AAS?$AAA?$AA?$AA@ 0000000180057958     libcpmt:winapinls.obj
 0002:00003968       ??_C@_1M@FFFIGIGK@?$AAb?$AAg?$AA?9?$AAB?$AAG?$AA?$AA@ 0000000180057968     libcpmt:winapinls.obj
 0002:00003978       ??_C@_1M@BJNKEDC@?$AAc?$AAa?$AA?9?$AAE?$AAS?$AA?$AA@ 0000000180057978     libcpmt:winapinls.obj
 0002:00003988       ??_C@_1M@CLNBBOPM@?$AAz?$AAh?$AA?9?$AAT?$AAW?$AA?$AA@ 0000000180057988     libcpmt:winapinls.obj
 0002:00003998       ??_C@_1M@IJJHFJHA@?$AAc?$AAs?$AA?9?$AAC?$AAZ?$AA?$AA@ 0000000180057998     libcpmt:winapinls.obj
 0002:000039a8       ??_C@_1M@CLPEOBGI@?$AAd?$AAa?$AA?9?$AAD?$AAK?$AA?$AA@ 00000001800579a8     libcpmt:winapinls.obj
 0002:000039b8       ??_C@_1M@MCMADGCB@?$AAd?$AAe?$AA?9?$AAD?$AAE?$AA?$AA@ 00000001800579b8     libcpmt:winapinls.obj
 0002:000039c8       ??_C@_1M@OOCKEMAM@?$AAe?$AAl?$AA?9?$AAG?$AAR?$AA?$AA@ 00000001800579c8     libcpmt:winapinls.obj
 0002:000039d8       ??_C@_1M@BMHNFIME@?$AAe?$AAn?$AA?9?$AAU?$AAS?$AA?$AA@ 00000001800579d8     libcpmt:winapinls.obj
 0002:000039e8       ??_C@_1M@DDNJFGID@?$AAf?$AAi?$AA?9?$AAF?$AAI?$AA?$AA@ 00000001800579e8     libcpmt:winapinls.obj
 0002:000039f8       ??_C@_1M@GLIPPMAC@?$AAf?$AAr?$AA?9?$AAF?$AAR?$AA?$AA@ 00000001800579f8     libcpmt:winapinls.obj
 0002:00003a08       ??_C@_1M@GFMCHPE@?$AAh?$AAe?$AA?9?$AAI?$AAL?$AA?$AA@ 0000000180057a08     libcpmt:winapinls.obj
 0002:00003a18       ??_C@_1M@MHLPGNKM@?$AAh?$AAu?$AA?9?$AAH?$AAU?$AA?$AA@ 0000000180057a18     libcpmt:winapinls.obj
 0002:00003a28       ??_C@_1M@LPDDNNPN@?$AAi?$AAs?$AA?9?$AAI?$AAS?$AA?$AA@ 0000000180057a28     libcpmt:winapinls.obj
 0002:00003a38       ??_C@_1M@MADIPODN@?$AAi?$AAt?$AA?9?$AAI?$AAT?$AA?$AA@ 0000000180057a38     libcpmt:winapinls.obj
 0002:00003a48       ??_C@_1M@HPNHIDJI@?$AAj?$AAa?$AA?9?$AAJ?$AAP?$AA?$AA@ 0000000180057a48     libcpmt:winapinls.obj
 0002:00003a58       ??_C@_1M@JLOOOEGK@?$AAk?$AAo?$AA?9?$AAK?$AAR?$AA?$AA@ 0000000180057a58     libcpmt:winapinls.obj
 0002:00003a68       ??_C@_1M@IHBJJGG@?$AAn?$AAl?$AA?9?$AAN?$AAL?$AA?$AA@ 0000000180057a68     libcpmt:winapinls.obj
 0002:00003a78       ??_C@_1M@EANAGDL@?$AAn?$AAb?$AA?9?$AAN?$AAO?$AA?$AA@ 0000000180057a78     libcpmt:winapinls.obj
 0002:00003a88       ??_C@_1M@NEIEMEGP@?$AAp?$AAl?$AA?9?$AAP?$AAL?$AA?$AA@ 0000000180057a88     libcpmt:winapinls.obj
 0002:00003a98       ??_C@_1M@BOCFIGEP@?$AAp?$AAt?$AA?9?$AAB?$AAR?$AA?$AA@ 0000000180057a98     libcpmt:winapinls.obj
 0002:00003aa8       ??_C@_1M@IMPFOPBG@?$AAr?$AAo?$AA?9?$AAR?$AAO?$AA?$AA@ 0000000180057aa8     libcpmt:winapinls.obj
 0002:00003ab8       ??_C@_1M@IDNNEJMM@?$AAr?$AAu?$AA?9?$AAR?$AAU?$AA?$AA@ 0000000180057ab8     libcpmt:winapinls.obj
 0002:00003ac8       ??_C@_1M@LILEEOGM@?$AAh?$AAr?$AA?9?$AAH?$AAR?$AA?$AA@ 0000000180057ac8     libcpmt:winapinls.obj
 0002:00003ad8       ??_C@_1M@FKIFEHPB@?$AAs?$AAk?$AA?9?$AAS?$AAK?$AA?$AA@ 0000000180057ad8     libcpmt:winapinls.obj
 0002:00003ae8       ??_C@_1M@LJMAMNPJ@?$AAs?$AAq?$AA?9?$AAA?$AAL?$AA?$AA@ 0000000180057ae8     libcpmt:winapinls.obj
 0002:00003af8       ??_C@_1M@GIAKDKJK@?$AAs?$AAv?$AA?9?$AAS?$AAE?$AA?$AA@ 0000000180057af8     libcpmt:winapinls.obj
 0002:00003b08       ??_C@_1M@MKJKIKCL@?$AAt?$AAh?$AA?9?$AAT?$AAH?$AA?$AA@ 0000000180057b08     libcpmt:winapinls.obj
 0002:00003b18       ??_C@_1M@MFLCCMPB@?$AAt?$AAr?$AA?9?$AAT?$AAR?$AA?$AA@ 0000000180057b18     libcpmt:winapinls.obj
 0002:00003b28       ??_C@_1M@OIJHDKJN@?$AAu?$AAr?$AA?9?$AAP?$AAK?$AA?$AA@ 0000000180057b28     libcpmt:winapinls.obj
 0002:00003b38       ??_C@_1M@LHIPCIEK@?$AAi?$AAd?$AA?9?$AAI?$AAD?$AA?$AA@ 0000000180057b38     libcpmt:winapinls.obj
 0002:00003b48       ??_C@_1M@MFMOBGI@?$AAu?$AAk?$AA?9?$AAU?$AAA?$AA?$AA@ 0000000180057b48     libcpmt:winapinls.obj
 0002:00003b58       ??_C@_1M@OBGLJIPL@?$AAb?$AAe?$AA?9?$AAB?$AAY?$AA?$AA@ 0000000180057b58     libcpmt:winapinls.obj
 0002:00003b68       ??_C@_1M@BCFAJEAD@?$AAs?$AAl?$AA?9?$AAS?$AAI?$AA?$AA@ 0000000180057b68     libcpmt:winapinls.obj
 0002:00003b78       ??_C@_1M@FKFFEDDN@?$AAe?$AAt?$AA?9?$AAE?$AAE?$AA?$AA@ 0000000180057b78     libcpmt:winapinls.obj
 0002:00003b88       ??_C@_1M@KGKKAACI@?$AAl?$AAv?$AA?9?$AAL?$AAV?$AA?$AA@ 0000000180057b88     libcpmt:winapinls.obj
 0002:00003b98       ??_C@_1M@IFGBIJO@?$AAl?$AAt?$AA?9?$AAL?$AAT?$AA?$AA@ 0000000180057b98     libcpmt:winapinls.obj
 0002:00003ba8       ??_C@_1M@FGEAHEDM@?$AAf?$AAa?$AA?9?$AAI?$AAR?$AA?$AA@ 0000000180057ba8     libcpmt:winapinls.obj
 0002:00003bb8       ??_C@_1M@KBMAIBFN@?$AAv?$AAi?$AA?9?$AAV?$AAN?$AA?$AA@ 0000000180057bb8     libcpmt:winapinls.obj
 0002:00003bc8       ??_C@_1M@GPCBKDJK@?$AAh?$AAy?$AA?9?$AAA?$AAM?$AA?$AA@ 0000000180057bc8     libcpmt:winapinls.obj
 0002:00003bd8       ??_C@_1BG@BECMDDJB@?$AAa?$AAz?$AA?9?$AAA?$AAZ?$AA?9?$AAL?$AAa?$AAt?$AAn?$AA?$AA@ 0000000180057bd8     libcpmt:winapinls.obj
 0002:00003bf0       ??_C@_1M@MAOFCAEA@?$AAe?$AAu?$AA?9?$AAE?$AAS?$AA?$AA@ 0000000180057bf0     libcpmt:winapinls.obj
 0002:00003c00       ??_C@_1M@IGHABKPI@?$AAm?$AAk?$AA?9?$AAM?$AAK?$AA?$AA@ 0000000180057c00     libcpmt:winapinls.obj
 0002:00003c10       ??_C@_1M@IAIGNEJG@?$AAt?$AAn?$AA?9?$AAZ?$AAA?$AA?$AA@ 0000000180057c10     libcpmt:winapinls.obj
 0002:00003c20       ??_C@_1M@IIJCOJFA@?$AAx?$AAh?$AA?9?$AAZ?$AAA?$AA?$AA@ 0000000180057c20     libcpmt:winapinls.obj
 0002:00003c30       ??_C@_1M@LGPJHNJH@?$AAz?$AAu?$AA?9?$AAZ?$AAA?$AA?$AA@ 0000000180057c30     libcpmt:winapinls.obj
 0002:00003c40       ??_C@_1M@HOKAOIO@?$AAa?$AAf?$AA?9?$AAZ?$AAA?$AA?$AA@ 0000000180057c40     libcpmt:winapinls.obj
 0002:00003c50       ??_C@_1M@DPCLHLIE@?$AAk?$AAa?$AA?9?$AAG?$AAE?$AA?$AA@ 0000000180057c50     libcpmt:winapinls.obj
 0002:00003c60       ??_C@_1M@BLKMHJBI@?$AAf?$AAo?$AA?9?$AAF?$AAO?$AA?$AA@ 0000000180057c60     libcpmt:winapinls.obj
 0002:00003c70       ??_C@_1M@LGGJAPPB@?$AAh?$AAi?$AA?9?$AAI?$AAN?$AA?$AA@ 0000000180057c70     libcpmt:winapinls.obj
 0002:00003c80       ??_C@_1M@FIKPIHFE@?$AAm?$AAt?$AA?9?$AAM?$AAT?$AA?$AA@ 0000000180057c80     libcpmt:winapinls.obj
 0002:00003c90       ??_C@_1M@HEGGPBFA@?$AAs?$AAe?$AA?9?$AAN?$AAO?$AA?$AA@ 0000000180057c90     libcpmt:winapinls.obj
 0002:00003ca0       ??_C@_1M@EIBJEEPA@?$AAm?$AAs?$AA?9?$AAM?$AAY?$AA?$AA@ 0000000180057ca0     libcpmt:winapinls.obj
 0002:00003cb0       ??_C@_1M@FHLBGMPP@?$AAk?$AAk?$AA?9?$AAK?$AAZ?$AA?$AA@ 0000000180057cb0     libcpmt:winapinls.obj
 0002:00003cc0       ??_C@_1M@NGJJLCGI@?$AAk?$AAy?$AA?9?$AAK?$AAG?$AA?$AA@ 0000000180057cc0     libcpmt:winapinls.obj
 0002:00003cd0       ??_C@_1M@GIENNBFC@?$AAs?$AAw?$AA?9?$AAK?$AAE?$AA?$AA@ 0000000180057cd0     libcpmt:winapinls.obj
 0002:00003ce0       ??_C@_1BG@NDGMJIMJ@?$AAu?$AAz?$AA?9?$AAU?$AAZ?$AA?9?$AAL?$AAa?$AAt?$AAn?$AA?$AA@ 0000000180057ce0     libcpmt:winapinls.obj
 0002:00003cf8       ??_C@_1M@IDCCIHBC@?$AAt?$AAt?$AA?9?$AAR?$AAU?$AA?$AA@ 0000000180057cf8     libcpmt:winapinls.obj
 0002:00003d08       ??_C@_1M@LOICPMOJ@?$AAb?$AAn?$AA?9?$AAI?$AAN?$AA?$AA@ 0000000180057d08     libcpmt:winapinls.obj
 0002:00003d18       ??_C@_1M@KPKKNEAH@?$AAp?$AAa?$AA?9?$AAI?$AAN?$AA?$AA@ 0000000180057d18     libcpmt:winapinls.obj
 0002:00003d28       ??_C@_1M@PJGPPBOG@?$AAg?$AAu?$AA?9?$AAI?$AAN?$AA?$AA@ 0000000180057d28     libcpmt:winapinls.obj
 0002:00003d38       ??_C@_1M@KMKMOPHI@?$AAt?$AAa?$AA?9?$AAI?$AAN?$AA?$AA@ 0000000180057d38     libcpmt:winapinls.obj
 0002:00003d48       ??_C@_1M@KFEHEPAC@?$AAt?$AAe?$AA?9?$AAI?$AAN?$AA?$AA@ 0000000180057d48     libcpmt:winapinls.obj
 0002:00003d58       ??_C@_1M@CDCLMGHI@?$AAk?$AAn?$AA?9?$AAI?$AAN?$AA?$AA@ 0000000180057d58     libcpmt:winapinls.obj
 0002:00003d68       ??_C@_1M@MIODLDKF@?$AAm?$AAl?$AA?9?$AAI?$AAN?$AA?$AA@ 0000000180057d68     libcpmt:winapinls.obj
 0002:00003d78       ??_C@_1M@PBIEACPO@?$AAm?$AAr?$AA?9?$AAI?$AAN?$AA?$AA@ 0000000180057d78     libcpmt:winapinls.obj
 0002:00003d88       ??_C@_1M@NIDEAGPH@?$AAs?$AAa?$AA?9?$AAI?$AAN?$AA?$AA@ 0000000180057d88     libcpmt:winapinls.obj
 0002:00003d98       ??_C@_1M@FHIHCBIO@?$AAm?$AAn?$AA?9?$AAM?$AAN?$AA?$AA@ 0000000180057d98     libcpmt:winapinls.obj
 0002:00003da8       ??_C@_1M@JAIJPENP@?$AAc?$AAy?$AA?9?$AAG?$AAB?$AA?$AA@ 0000000180057da8     libcpmt:winapinls.obj
 0002:00003db8       ??_C@_1M@PHGFBEPN@?$AAg?$AAl?$AA?9?$AAE?$AAS?$AA?$AA@ 0000000180057db8     libcpmt:winapinls.obj
 0002:00003dc8       ??_C@_1O@KPIPDNCP@?$AAk?$AAo?$AAk?$AA?9?$AAI?$AAN?$AA?$AA@ 0000000180057dc8     libcpmt:winapinls.obj
 0002:00003dd8       ??_C@_1O@KNHJLDJA@?$AAs?$AAy?$AAr?$AA?9?$AAS?$AAY?$AA?$AA@ 0000000180057dd8     libcpmt:winapinls.obj
 0002:00003de8       ??_C@_1O@MKEKBLAH@?$AAd?$AAi?$AAv?$AA?9?$AAM?$AAV?$AA?$AA@ 0000000180057de8     libcpmt:winapinls.obj
 0002:00003df8       ??_C@_1O@OHDCKDDF@?$AAq?$AAu?$AAz?$AA?9?$AAB?$AAO?$AA?$AA@ 0000000180057df8     libcpmt:winapinls.obj
 0002:00003e08       ??_C@_1M@LEPJNLFD@?$AAn?$AAs?$AA?9?$AAZ?$AAA?$AA?$AA@ 0000000180057e08     libcpmt:winapinls.obj
 0002:00003e18       ??_C@_1M@OMLEIIJB@?$AAm?$AAi?$AA?9?$AAN?$AAZ?$AA?$AA@ 0000000180057e18     libcpmt:winapinls.obj
 0002:00003e28       ??_C@_1M@PMPEAILG@?$AAa?$AAr?$AA?9?$AAI?$AAQ?$AA?$AA@ 0000000180057e28     libcpmt:winapinls.obj
 0002:00003e38       ??_C@_1M@BIBDDEMK@?$AAz?$AAh?$AA?9?$AAC?$AAN?$AA?$AA@ 0000000180057e38     libcpmt:winapinls.obj
 0002:00003e48       ??_C@_1M@CNKPNOEE@?$AAd?$AAe?$AA?9?$AAC?$AAH?$AA?$AA@ 0000000180057e48     libcpmt:winapinls.obj
 0002:00003e58       ??_C@_1M@LKMGMLKO@?$AAe?$AAn?$AA?9?$AAG?$AAB?$AA?$AA@ 0000000180057e58     libcpmt:winapinls.obj
 0002:00003e68       ??_C@_1M@PGKJFFGL@?$AAe?$AAs?$AA?9?$AAM?$AAX?$AA?$AA@ 0000000180057e68     libcpmt:winapinls.obj
 0002:00003e78       ??_C@_1M@DNNANBDC@?$AAf?$AAr?$AA?9?$AAB?$AAE?$AA?$AA@ 0000000180057e78     libcpmt:winapinls.obj
 0002:00003e88       ??_C@_1M@HLGMDFHM@?$AAi?$AAt?$AA?9?$AAC?$AAH?$AA?$AA@ 0000000180057e88     libcpmt:winapinls.obj
 0002:00003e98       ??_C@_1M@CLLBGJH@?$AAn?$AAl?$AA?9?$AAB?$AAE?$AA?$AA@ 0000000180057e98     libcpmt:winapinls.obj
 0002:00003ea8       ??_C@_1M@BODBOGLF@?$AAn?$AAn?$AA?9?$AAN?$AAO?$AA?$AA@ 0000000180057ea8     libcpmt:winapinls.obj
 0002:00003eb8       ??_C@_1M@HFFAHKAD@?$AAp?$AAt?$AA?9?$AAP?$AAT?$AA?$AA@ 0000000180057eb8     libcpmt:winapinls.obj
 0002:00003ec8       ??_C@_1BG@LNOAKHIE@?$AAs?$AAr?$AA?9?$AAS?$AAP?$AA?9?$AAL?$AAa?$AAt?$AAn?$AA?$AA@ 0000000180057ec8     libcpmt:winapinls.obj
 0002:00003ee0       ??_C@_1M@HBMHBGAK@?$AAs?$AAv?$AA?9?$AAF?$AAI?$AA?$AA@ 0000000180057ee0     libcpmt:winapinls.obj
 0002:00003ef0       ??_C@_1BG@DGCJGJBE@?$AAa?$AAz?$AA?9?$AAA?$AAZ?$AA?9?$AAC?$AAy?$AAr?$AAl?$AA?$AA@ 0000000180057ef0     libcpmt:winapinls.obj
 0002:00003f08       ??_C@_1M@KEJDAAHB@?$AAs?$AAe?$AA?9?$AAS?$AAE?$AA?$AA@ 0000000180057f08     libcpmt:winapinls.obj
 0002:00003f18       ??_C@_1M@HEIBJJAD@?$AAm?$AAs?$AA?9?$AAB?$AAN?$AA?$AA@ 0000000180057f18     libcpmt:winapinls.obj
 0002:00003f28       ??_C@_1BG@PBGJMCEM@?$AAu?$AAz?$AA?9?$AAU?$AAZ?$AA?9?$AAC?$AAy?$AAr?$AAl?$AA?$AA@ 0000000180057f28     libcpmt:winapinls.obj
 0002:00003f40       ??_C@_1O@LAOBCMDF@?$AAq?$AAu?$AAz?$AA?9?$AAE?$AAC?$AA?$AA@ 0000000180057f40     libcpmt:winapinls.obj
 0002:00003f50       ??_C@_1M@POEEMAIO@?$AAa?$AAr?$AA?9?$AAE?$AAG?$AA?$AA@ 0000000180057f50     libcpmt:winapinls.obj
 0002:00003f60       ??_C@_1M@EFAKDEDL@?$AAz?$AAh?$AA?9?$AAH?$AAK?$AA?$AA@ 0000000180057f60     libcpmt:winapinls.obj
 0002:00003f70       ??_C@_1M@HKKIJHGI@?$AAd?$AAe?$AA?9?$AAA?$AAT?$AA?$AA@ 0000000180057f70     libcpmt:winapinls.obj
 0002:00003f80       ??_C@_1M@KBFBEHJF@?$AAe?$AAn?$AA?9?$AAA?$AAU?$AA?$AA@ 0000000180057f80     libcpmt:winapinls.obj
 0002:00003f90       ??_C@_1M@MNPLFAAH@?$AAe?$AAs?$AA?9?$AAE?$AAS?$AA?$AA@ 0000000180057f90     libcpmt:winapinls.obj
 0002:00003fa0       ??_C@_1M@HJOOJFMA@?$AAf?$AAr?$AA?9?$AAC?$AAA?$AA?$AA@ 0000000180057fa0     libcpmt:winapinls.obj
 0002:00003fb0       ??_C@_1BG@JPOFPNAB@?$AAs?$AAr?$AA?9?$AAS?$AAP?$AA?9?$AAC?$AAy?$AAr?$AAl?$AA?$AA@ 0000000180057fb0     libcpmt:winapinls.obj
 0002:00003fc8       ??_C@_1M@LNFOCMOB@?$AAs?$AAe?$AA?9?$AAF?$AAI?$AA?$AA@ 0000000180057fc8     libcpmt:winapinls.obj
 0002:00003fd8       ??_C@_1O@MGJBOAMB@?$AAq?$AAu?$AAz?$AA?9?$AAP?$AAE?$AA?$AA@ 0000000180057fd8     libcpmt:winapinls.obj
 0002:00003fe8       ??_C@_1M@GJINLBOK@?$AAa?$AAr?$AA?9?$AAL?$AAY?$AA?$AA@ 0000000180057fe8     libcpmt:winapinls.obj
 0002:00003ff8       ??_C@_1M@GGMNHJNL@?$AAz?$AAh?$AA?9?$AAS?$AAG?$AA?$AA@ 0000000180057ff8     libcpmt:winapinls.obj
 0002:00004008       ??_C@_1M@HOIKODND@?$AAd?$AAe?$AA?9?$AAL?$AAU?$AA?$AA@ 0000000180058008     libcpmt:winapinls.obj
 0002:00004018       ??_C@_1M@DDOCCGFG@?$AAe?$AAn?$AA?9?$AAC?$AAA?$AA?$AA@ 0000000180058018     libcpmt:winapinls.obj
 0002:00004028       ??_C@_1M@BNOEMJLF@?$AAe?$AAs?$AA?9?$AAG?$AAT?$AA?$AA@ 0000000180058028     libcpmt:winapinls.obj
 0002:00004038       ??_C@_1M@EOGNKEK@?$AAf?$AAr?$AA?9?$AAC?$AAH?$AA?$AA@ 0000000180058038     libcpmt:winapinls.obj
 0002:00004048       ??_C@_1M@FLIDJFHL@?$AAh?$AAr?$AA?9?$AAB?$AAA?$AA?$AA@ 0000000180058048     libcpmt:winapinls.obj
 0002:00004058       ??_C@_1O@FMCELNAJ@?$AAs?$AAm?$AAj?$AA?9?$AAN?$AAO?$AA?$AA@ 0000000180058058     libcpmt:winapinls.obj
 0002:00004068       ??_C@_1M@JHGLJMGJ@?$AAa?$AAr?$AA?9?$AAD?$AAZ?$AA?$AA@ 0000000180058068     libcpmt:winapinls.obj
 0002:00004078       ??_C@_1M@JKKFDCNP@?$AAz?$AAh?$AA?9?$AAM?$AAO?$AA?$AA@ 0000000180058078     libcpmt:winapinls.obj
 0002:00004088       ??_C@_1M@GEEFALPE@?$AAd?$AAe?$AA?9?$AAL?$AAI?$AA?$AA@ 0000000180058088     libcpmt:winapinls.obj
 0002:00004098       ??_C@_1M@IGEOFBG@?$AAe?$AAn?$AA?9?$AAN?$AAZ?$AA?$AA@ 0000000180058098     libcpmt:winapinls.obj
 0002:000040a8       ??_C@_1M@KDBONEHP@?$AAe?$AAs?$AA?9?$AAC?$AAR?$AA?$AA@ 00000001800580a8     libcpmt:winapinls.obj
 0002:000040b8       ??_C@_1M@FHMDOHNN@?$AAf?$AAr?$AA?9?$AAL?$AAU?$AA?$AA@ 00000001800580b8     libcpmt:winapinls.obj
 0002:000040c8       ??_C@_1BG@NFKKMAFG@?$AAb?$AAs?$AA?9?$AAB?$AAA?$AA?9?$AAL?$AAa?$AAt?$AAn?$AA?$AA@ 00000001800580c8     libcpmt:winapinls.obj
 0002:000040e0       ??_C@_1O@IMNBEMCI@?$AAs?$AAm?$AAj?$AA?9?$AAS?$AAE?$AA?$AA@ 00000001800580e0     libcpmt:winapinls.obj
 0002:000040f0       ??_C@_1M@DHHMBNDP@?$AAa?$AAr?$AA?9?$AAM?$AAA?$AA?$AA@ 00000001800580f0     libcpmt:winapinls.obj
 0002:00004100       ??_C@_1M@BNBLJCGH@?$AAe?$AAn?$AA?9?$AAI?$AAE?$AA?$AA@ 0000000180058100     libcpmt:winapinls.obj
 0002:00004110       ??_C@_1M@GEPAFMDL@?$AAe?$AAs?$AA?9?$AAP?$AAA?$AA?$AA@ 0000000180058110     libcpmt:winapinls.obj
 0002:00004120       ??_C@_1M@OJONDMDL@?$AAf?$AAr?$AA?9?$AAM?$AAC?$AA?$AA@ 0000000180058120     libcpmt:winapinls.obj
 0002:00004130       ??_C@_1BG@OBCNFJB@?$AAs?$AAr?$AA?9?$AAB?$AAA?$AA?9?$AAL?$AAa?$AAt?$AAn?$AA?$AA@ 0000000180058130     libcpmt:winapinls.obj
 0002:00004148       ??_C@_1O@KEMEEGPO@?$AAs?$AAm?$AAa?$AA?9?$AAN?$AAO?$AA?$AA@ 0000000180058148     libcpmt:winapinls.obj
 0002:00004158       ??_C@_1M@ELMGFODK@?$AAa?$AAr?$AA?9?$AAT?$AAN?$AA?$AA@ 0000000180058158     libcpmt:winapinls.obj
 0002:00004168       ??_C@_1M@BHDLHFAF@?$AAe?$AAn?$AA?9?$AAZ?$AAA?$AA?$AA@ 0000000180058168     libcpmt:winapinls.obj
 0002:00004178       ??_C@_1M@BMGIGLIF@?$AAe?$AAs?$AA?9?$AAD?$AAO?$AA?$AA@ 0000000180058178     libcpmt:winapinls.obj
 0002:00004188       ??_C@_1BG@CMBHIPBE@?$AAs?$AAr?$AA?9?$AAB?$AAA?$AA?9?$AAC?$AAy?$AAr?$AAl?$AA?$AA@ 0000000180058188     libcpmt:winapinls.obj
 0002:000041a0       ??_C@_1O@HEDBLHNP@?$AAs?$AAm?$AAa?$AA?9?$AAS?$AAE?$AA?$AA@ 00000001800581a0     libcpmt:winapinls.obj
 0002:000041b0       ??_C@_1M@DAGCADIM@?$AAa?$AAr?$AA?9?$AAO?$AAM?$AA?$AA@ 00000001800581b0     libcpmt:winapinls.obj
 0002:000041c0       ??_C@_1M@FODLMICG@?$AAe?$AAn?$AA?9?$AAJ?$AAM?$AA?$AA@ 00000001800581c0     libcpmt:winapinls.obj
 0002:000041d0       ??_C@_1M@DNMLCIHB@?$AAe?$AAs?$AA?9?$AAV?$AAE?$AA?$AA@ 00000001800581d0     libcpmt:winapinls.obj
 0002:000041e0       ??_C@_1O@EOKHMKJK@?$AAs?$AAm?$AAs?$AA?9?$AAF?$AAI?$AA?$AA@ 00000001800581e0     libcpmt:winapinls.obj
 0002:000041f0       ??_C@_1M@CAFJMKOF@?$AAa?$AAr?$AA?9?$AAY?$AAE?$AA?$AA@ 00000001800581f0     libcpmt:winapinls.obj
 0002:00004200       ??_C@_1M@CBFHIJLI@?$AAe?$AAn?$AA?9?$AAC?$AAB?$AA?$AA@ 0000000180058200     libcpmt:winapinls.obj
 0002:00004210       ??_C@_1M@BGNFLDN@?$AAe?$AAs?$AA?9?$AAC?$AAO?$AA?$AA@ 0000000180058210     libcpmt:winapinls.obj
 0002:00004220       ??_C@_1O@JMPHMAMC@?$AAs?$AAm?$AAn?$AA?9?$AAF?$AAI?$AA?$AA@ 0000000180058220     libcpmt:winapinls.obj
 0002:00004230       ??_C@_1M@JLANABKE@?$AAa?$AAr?$AA?9?$AAS?$AAY?$AA?$AA@ 0000000180058230     libcpmt:winapinls.obj
 0002:00004240       ??_C@_1M@HPKGCFGN@?$AAe?$AAn?$AA?9?$AAB?$AAZ?$AA?$AA@ 0000000180058240     libcpmt:winapinls.obj
 0002:00004250       ??_C@_1M@OLJCMLGM@?$AAe?$AAs?$AA?9?$AAP?$AAE?$AA?$AA@ 0000000180058250     libcpmt:winapinls.obj
 0002:00004260       ??_C@_1M@MKKGFKLE@?$AAa?$AAr?$AA?9?$AAJ?$AAO?$AA?$AA@ 0000000180058260     libcpmt:winapinls.obj
 0002:00004270       ??_C@_1M@EKPGLDNI@?$AAe?$AAn?$AA?9?$AAT?$AAT?$AA?$AA@ 0000000180058270     libcpmt:winapinls.obj
 0002:00004280       ??_C@_1M@OONGHFHE@?$AAe?$AAs?$AA?9?$AAA?$AAR?$AA?$AA@ 0000000180058280     libcpmt:winapinls.obj
 0002:00004290       ??_C@_1M@OOJFGBHE@?$AAa?$AAr?$AA?9?$AAL?$AAB?$AA?$AA@ 0000000180058290     libcpmt:winapinls.obj
 0002:000042a0       ??_C@_1M@GCEJHNEG@?$AAe?$AAn?$AA?9?$AAZ?$AAW?$AA?$AA@ 00000001800582a0     libcpmt:winapinls.obj
 0002:000042b0       ??_C@_1M@JNOCAHJI@?$AAe?$AAs?$AA?9?$AAE?$AAC?$AA?$AA@ 00000001800582b0     libcpmt:winapinls.obj
 0002:000042c0       ??_C@_1M@JEFHPGGB@?$AAa?$AAr?$AA?9?$AAK?$AAW?$AA?$AA@ 00000001800582c0     libcpmt:winapinls.obj
 0002:000042d0       ??_C@_1M@MLKIBJOJ@?$AAe?$AAn?$AA?9?$AAP?$AAH?$AA?$AA@ 00000001800582d0     libcpmt:winapinls.obj
 0002:000042e0       ??_C@_1M@BDNIPEND@?$AAe?$AAs?$AA?9?$AAC?$AAL?$AA?$AA@ 00000001800582e0     libcpmt:winapinls.obj
 0002:000042f0       ??_C@_1M@MPNMEKBD@?$AAa?$AAr?$AA?9?$AAA?$AAE?$AA?$AA@ 00000001800582f0     libcpmt:winapinls.obj
 0002:00004300       ??_C@_1M@KBJALCPI@?$AAe?$AAs?$AA?9?$AAU?$AAY?$AA?$AA@ 0000000180058300     libcpmt:winapinls.obj
 0002:00004310       ??_C@_1M@LLCCOAGA@?$AAa?$AAr?$AA?9?$AAB?$AAH?$AA?$AA@ 0000000180058310     libcpmt:winapinls.obj
 0002:00004320       ??_C@_1M@PBFNCDEL@?$AAe?$AAs?$AA?9?$AAP?$AAY?$AA?$AA@ 0000000180058320     libcpmt:winapinls.obj
 0002:00004330       ??_C@_1M@EDGINPNP@?$AAa?$AAr?$AA?9?$AAQ?$AAA?$AA?$AA@ 0000000180058330     libcpmt:winapinls.obj
 0002:00004340       ??_C@_1M@MKDBIIJI@?$AAe?$AAs?$AA?9?$AAB?$AAO?$AA?$AA@ 0000000180058340     libcpmt:winapinls.obj
 0002:00004350       ??_C@_1M@CPKKEBLD@?$AAe?$AAs?$AA?9?$AAS?$AAV?$AA?$AA@ 0000000180058350     libcpmt:winapinls.obj
 0002:00004360       ??_C@_1M@NDBGMMJL@?$AAe?$AAs?$AA?9?$AAH?$AAN?$AA?$AA@ 0000000180058360     libcpmt:winapinls.obj
 0002:00004370       ??_C@_1M@JIJIBHDP@?$AAe?$AAs?$AA?9?$AAN?$AAI?$AA?$AA@ 0000000180058370     libcpmt:winapinls.obj
 0002:00004380       ??_C@_1M@CGFMKEEK@?$AAe?$AAs?$AA?9?$AAP?$AAR?$AA?$AA@ 0000000180058380     libcpmt:winapinls.obj
 0002:00004390       ??_C@_1O@ICJHKIIK@?$AAz?$AAh?$AA?9?$AAC?$AAH?$AAT?$AA?$AA@ 0000000180058390     libcpmt:winapinls.obj
 0002:000043a0       ??_C@_15CLNEJCE@?$AAs?$AAr?$AA?$AA@ 00000001800583a0     libcpmt:winapinls.obj
 0002:000043a8       ??_C@_1M@KAHEKEIG@?$AAa?$AAf?$AA?9?$AAz?$AAa?$AA?$AA@ 00000001800583a8     libcpmt:winapinls.obj
 0002:000043b8       ??_C@_1M@GIECOABL@?$AAa?$AAr?$AA?9?$AAa?$AAe?$AA?$AA@ 00000001800583b8     libcpmt:winapinls.obj
 0002:000043c8       ??_C@_1M@BMLMEKGI@?$AAa?$AAr?$AA?9?$AAb?$AAh?$AA?$AA@ 00000001800583c8     libcpmt:winapinls.obj
 0002:000043d8       ??_C@_1M@DAPFDGGB@?$AAa?$AAr?$AA?9?$AAd?$AAz?$AA?$AA@ 00000001800583d8     libcpmt:winapinls.obj
 0002:000043e8       ??_C@_1M@FJNKGKIG@?$AAa?$AAr?$AA?9?$AAe?$AAg?$AA?$AA@ 00000001800583e8     libcpmt:winapinls.obj
 0002:000043f8       ??_C@_1M@FLGKKCLO@?$AAa?$AAr?$AA?9?$AAi?$AAq?$AA?$AA@ 00000001800583f8     libcpmt:winapinls.obj
 0002:00004408       ??_C@_1M@GNDIPALM@?$AAa?$AAr?$AA?9?$AAj?$AAo?$AA?$AA@ 0000000180058408     libcpmt:winapinls.obj
 0002:00004418       ??_C@_1M@DDMJFMGJ@?$AAa?$AAr?$AA?9?$AAk?$AAw?$AA?$AA@ 0000000180058418     libcpmt:winapinls.obj
 0002:00004428       ??_C@_1M@EJALMLHM@?$AAa?$AAr?$AA?9?$AAl?$AAb?$AA?$AA@ 0000000180058428     libcpmt:winapinls.obj
 0002:00004438       ??_C@_1M@MOBDBLOC@?$AAa?$AAr?$AA?9?$AAl?$AAy?$AA?$AA@ 0000000180058438     libcpmt:winapinls.obj
 0002:00004448       ??_C@_1M@JAOCLHDH@?$AAa?$AAr?$AA?9?$AAm?$AAa?$AA?$AA@ 0000000180058448     libcpmt:winapinls.obj
 0002:00004458       ??_C@_1M@JHPMKJIE@?$AAa?$AAr?$AA?9?$AAo?$AAm?$AA?$AA@ 0000000180058458     libcpmt:winapinls.obj
 0002:00004468       ??_C@_1M@OEPGHFNH@?$AAa?$AAr?$AA?9?$AAq?$AAa?$AA?$AA@ 0000000180058468     libcpmt:winapinls.obj
 0002:00004478       ??_C@_1M@KJDONENM@?$AAa?$AAr?$AA?9?$AAs?$AAa?$AA?$AA@ 0000000180058478     libcpmt:winapinls.obj
 0002:00004488       ??_C@_1M@DMJDKLKM@?$AAa?$AAr?$AA?9?$AAs?$AAy?$AA?$AA@ 0000000180058488     libcpmt:winapinls.obj
 0002:00004498       ??_C@_1M@OMFIPEDC@?$AAa?$AAr?$AA?9?$AAt?$AAn?$AA?$AA@ 0000000180058498     libcpmt:winapinls.obj
 0002:000044a8       ??_C@_1M@IHMHGAON@?$AAa?$AAr?$AA?9?$AAy?$AAe?$AA?$AA@ 00000001800584a8     libcpmt:winapinls.obj
 0002:000044b8       ??_C@_1BG@KDCPGJGB@?$AAa?$AAz?$AA?9?$AAa?$AAz?$AA?9?$AAc?$AAy?$AAr?$AAl?$AA?$AA@ 00000001800584b8     libcpmt:winapinls.obj
 0002:000044d0       ??_C@_1BG@IBCKDDOE@?$AAa?$AAz?$AA?9?$AAa?$AAz?$AA?9?$AAl?$AAa?$AAt?$AAn?$AA?$AA@ 00000001800584d0     libcpmt:winapinls.obj
 0002:000044e8       ??_C@_1M@EGPFDCPD@?$AAb?$AAe?$AA?9?$AAb?$AAy?$AA?$AA@ 00000001800584e8     libcpmt:winapinls.obj
 0002:000044f8       ??_C@_1M@PCMGMCGC@?$AAb?$AAg?$AA?9?$AAb?$AAg?$AA?$AA@ 00000001800584f8     libcpmt:winapinls.obj
 0002:00004508       ??_C@_1M@BJBMFGOB@?$AAb?$AAn?$AA?9?$AAi?$AAn?$AA?$AA@ 0000000180058508     libcpmt:winapinls.obj
 0002:00004518       ??_C@_1BG@EAKMMACD@?$AAb?$AAs?$AA?9?$AAb?$AAa?$AA?9?$AAl?$AAa?$AAt?$AAn?$AA?$AA@ 0000000180058518     libcpmt:winapinls.obj
 0002:00004530       ??_C@_1M@KGADAODK@?$AAc?$AAa?$AA?9?$AAe?$AAs?$AA?$AA@ 0000000180058530     libcpmt:winapinls.obj
 0002:00004540       ??_C@_1M@COAJPDHI@?$AAc?$AAs?$AA?9?$AAc?$AAz?$AA?$AA@ 0000000180058540     libcpmt:winapinls.obj
 0002:00004550       ??_C@_1M@DHBHFONH@?$AAc?$AAy?$AA?9?$AAg?$AAb?$AA?$AA@ 0000000180058550     libcpmt:winapinls.obj
 0002:00004560       ??_C@_1M@IMGKELGA@?$AAd?$AAa?$AA?9?$AAd?$AAk?$AA?$AA@ 0000000180058560     libcpmt:winapinls.obj
 0002:00004570       ??_C@_1M@NNDGDNGA@?$AAd?$AAe?$AA?9?$AAa?$AAt?$AA?$AA@ 0000000180058570     libcpmt:winapinls.obj
 0002:00004580       ??_C@_1M@IKDBHEEM@?$AAd?$AAe?$AA?9?$AAc?$AAh?$AA?$AA@ 0000000180058580     libcpmt:winapinls.obj
 0002:00004590       ??_C@_1M@GFFOJMCJ@?$AAd?$AAe?$AA?9?$AAd?$AAe?$AA?$AA@ 0000000180058590     libcpmt:winapinls.obj
 0002:000045a0       ??_C@_1M@MDNLKBPM@?$AAd?$AAe?$AA?9?$AAl?$AAi?$AA?$AA@ 00000001800585a0     libcpmt:winapinls.obj
 0002:000045b0       ??_C@_1M@NJBEEJNL@?$AAd?$AAe?$AA?9?$AAl?$AAu?$AA?$AA@ 00000001800585b0     libcpmt:winapinls.obj
 0002:000045c0       ??_C@_1O@GNNELBAP@?$AAd?$AAi?$AAv?$AA?9?$AAm?$AAv?$AA?$AA@ 00000001800585c0     libcpmt:winapinls.obj
 0002:000045d0       ??_C@_1M@EJLEOGAE@?$AAe?$AAl?$AA?9?$AAg?$AAr?$AA?$AA@ 00000001800585d0     libcpmt:winapinls.obj
 0002:000045e0       ??_C@_1M@GMPONJN@?$AAe?$AAn?$AA?9?$AAa?$AAu?$AA?$AA@ 00000001800585e0     libcpmt:winapinls.obj
 0002:000045f0       ??_C@_1M@NIDIIPGF@?$AAe?$AAn?$AA?9?$AAb?$AAz?$AA?$AA@ 00000001800585f0     libcpmt:winapinls.obj
 0002:00004600       ??_C@_1M@JEHMIMFO@?$AAe?$AAn?$AA?9?$AAc?$AAa?$AA?$AA@ 0000000180058600     libcpmt:winapinls.obj
 0002:00004610       ??_C@_1M@IGMJCDLA@?$AAe?$AAn?$AA?9?$AAc?$AAb?$AA?$AA@ 0000000180058610     libcpmt:winapinls.obj
 0002:00004620       ??_C@_1M@BNFIGBKG@?$AAe?$AAn?$AA?9?$AAg?$AAb?$AA?$AA@ 0000000180058620     libcpmt:winapinls.obj
 0002:00004630       ??_C@_1M@LKIFDIGP@?$AAe?$AAn?$AA?9?$AAi?$AAe?$AA?$AA@ 0000000180058630     libcpmt:winapinls.obj
 0002:00004640       ??_C@_1M@PJKFGCCO@?$AAe?$AAn?$AA?9?$AAj?$AAm?$AA?$AA@ 0000000180058640     libcpmt:winapinls.obj
 0002:00004650       ??_C@_1M@KPPKEPBO@?$AAe?$AAn?$AA?9?$AAn?$AAz?$AA?$AA@ 0000000180058650     libcpmt:winapinls.obj
 0002:00004660       ??_C@_1M@GMDGLDOB@?$AAe?$AAn?$AA?9?$AAp?$AAh?$AA?$AA@ 0000000180058660     libcpmt:winapinls.obj
 0002:00004670       ??_C@_1M@ONGIBJNA@?$AAe?$AAn?$AA?9?$AAt?$AAt?$AA?$AA@ 0000000180058670     libcpmt:winapinls.obj
 0002:00004680       ??_C@_1M@LLODPCMM@?$AAe?$AAn?$AA?9?$AAu?$AAs?$AA?$AA@ 0000000180058680     libcpmt:winapinls.obj
 0002:00004690       ??_C@_1M@LAKFNPAN@?$AAe?$AAn?$AA?9?$AAz?$AAa?$AA?$AA@ 0000000180058690     libcpmt:winapinls.obj
 0002:000046a0       ??_C@_1M@MFNHNHEO@?$AAe?$AAn?$AA?9?$AAz?$AAw?$AA?$AA@ 00000001800586a0     libcpmt:winapinls.obj
 0002:000046b0       ??_C@_1M@EJEINPHM@?$AAe?$AAs?$AA?9?$AAa?$AAr?$AA?$AA@ 00000001800586b0     libcpmt:winapinls.obj
 0002:000046c0       ??_C@_1M@GNKPCCJA@?$AAe?$AAs?$AA?9?$AAb?$AAo?$AA?$AA@ 00000001800586c0     libcpmt:winapinls.obj
 0002:000046d0       ??_C@_1M@LEEGFONL@?$AAe?$AAs?$AA?9?$AAc?$AAl?$AA?$AA@ 00000001800586d0     libcpmt:winapinls.obj
 0002:000046e0       ??_C@_1M@KGPDPBDF@?$AAe?$AAs?$AA?9?$AAc?$AAo?$AA?$AA@ 00000001800586e0     libcpmt:winapinls.obj
 0002:000046f0       ??_C@_1M@EIAHOHH@?$AAe?$AAs?$AA?9?$AAc?$AAr?$AA?$AA@ 00000001800586f0     libcpmt:winapinls.obj
 0002:00004700       ??_C@_1M@LLPGMBIN@?$AAe?$AAs?$AA?9?$AAd?$AAo?$AA?$AA@ 0000000180058700     libcpmt:winapinls.obj
 0002:00004710       ??_C@_1M@DKHMKNJA@?$AAe?$AAs?$AA?9?$AAe?$AAc?$AA?$AA@ 0000000180058710     libcpmt:winapinls.obj
 0002:00004720       ??_C@_1M@GKGFPKAP@?$AAe?$AAs?$AA?9?$AAe?$AAs?$AA?$AA@ 0000000180058720     libcpmt:winapinls.obj
 0002:00004730       ??_C@_1M@LKHKGDLN@?$AAe?$AAs?$AA?9?$AAg?$AAt?$AA?$AA@ 0000000180058730     libcpmt:winapinls.obj
 0002:00004740       ??_C@_1M@HEIIGGJD@?$AAe?$AAs?$AA?9?$AAh?$AAn?$AA?$AA@ 0000000180058740     libcpmt:winapinls.obj
 0002:00004750       ??_C@_1M@FBDHPPGD@?$AAe?$AAs?$AA?9?$AAm?$AAx?$AA?$AA@ 0000000180058750     libcpmt:winapinls.obj
 0002:00004760       ??_C@_1M@DPAGLNDH@?$AAe?$AAs?$AA?9?$AAn?$AAi?$AA?$AA@ 0000000180058760     libcpmt:winapinls.obj
 0002:00004770       ??_C@_1M@MDGOPGDD@?$AAe?$AAs?$AA?9?$AAp?$AAa?$AA?$AA@ 0000000180058770     libcpmt:winapinls.obj
 0002:00004780       ??_C@_1M@EMAMGBGE@?$AAe?$AAs?$AA?9?$AAp?$AAe?$AA?$AA@ 0000000180058780     libcpmt:winapinls.obj
 0002:00004790       ??_C@_1M@IBMCAOEC@?$AAe?$AAs?$AA?9?$AAp?$AAr?$AA?$AA@ 0000000180058790     libcpmt:winapinls.obj
 0002:000047a0       ??_C@_1M@FGMDIJED@?$AAe?$AAs?$AA?9?$AAp?$AAy?$AA?$AA@ 00000001800587a0     libcpmt:winapinls.obj
 0002:000047b0       ??_C@_1M@IIDEOLLL@?$AAe?$AAs?$AA?9?$AAs?$AAv?$AA?$AA@ 00000001800587b0     libcpmt:winapinls.obj
 0002:000047c0       ??_C@_1M@GAOBIPA@?$AAe?$AAs?$AA?9?$AAu?$AAy?$AA?$AA@ 00000001800587c0     libcpmt:winapinls.obj
 0002:000047d0       ??_C@_1M@JKFFICHJ@?$AAe?$AAs?$AA?9?$AAv?$AAe?$AA?$AA@ 00000001800587d0     libcpmt:winapinls.obj
 0002:000047e0       ??_C@_1M@PNMLOJDF@?$AAe?$AAt?$AA?9?$AAe?$AAe?$AA?$AA@ 00000001800587e0     libcpmt:winapinls.obj
 0002:000047f0       ??_C@_1M@GHHLIKEI@?$AAe?$AAu?$AA?9?$AAe?$AAs?$AA?$AA@ 00000001800587f0     libcpmt:winapinls.obj
 0002:00004800       ??_C@_1M@PBNONODE@?$AAf?$AAa?$AA?9?$AAi?$AAr?$AA?$AA@ 0000000180058800     libcpmt:winapinls.obj
 0002:00004810       ??_C@_1M@JEEHPMIL@?$AAf?$AAi?$AA?9?$AAf?$AAi?$AA?$AA@ 0000000180058810     libcpmt:winapinls.obj
 0002:00004820       ??_C@_1M@LMDCNDBA@?$AAf?$AAo?$AA?9?$AAf?$AAo?$AA?$AA@ 0000000180058820     libcpmt:winapinls.obj
 0002:00004830       ??_C@_1M@JKEOHLDK@?$AAf?$AAr?$AA?9?$AAb?$AAe?$AA?$AA@ 0000000180058830     libcpmt:winapinls.obj
 0002:00004840       ??_C@_1M@NOHADPMI@?$AAf?$AAr?$AA?9?$AAc?$AAa?$AA?$AA@ 0000000180058840     libcpmt:winapinls.obj
 0002:00004850       ??_C@_1M@KDHIHAEC@?$AAf?$AAr?$AA?9?$AAc?$AAh?$AA?$AA@ 0000000180058850     libcpmt:winapinls.obj
 0002:00004860       ??_C@_1M@MMBBFGAK@?$AAf?$AAr?$AA?9?$AAf?$AAr?$AA?$AA@ 0000000180058860     libcpmt:winapinls.obj
 0002:00004870       ??_C@_1M@PAFNENNF@?$AAf?$AAr?$AA?9?$AAl?$AAu?$AA?$AA@ 0000000180058870     libcpmt:winapinls.obj
 0002:00004880       ??_C@_1M@EOHDJGDD@?$AAf?$AAr?$AA?9?$AAm?$AAc?$AA?$AA@ 0000000180058880     libcpmt:winapinls.obj
 0002:00004890       ??_C@_1M@FAPLLOPF@?$AAg?$AAl?$AA?9?$AAe?$AAs?$AA?$AA@ 0000000180058890     libcpmt:winapinls.obj
 0002:000048a0       ??_C@_1M@FOPBFLOO@?$AAg?$AAu?$AA?9?$AAi?$AAn?$AA?$AA@ 00000001800588a0     libcpmt:winapinls.obj
 0002:000048b0       ??_C@_1M@KBMCINPM@?$AAh?$AAe?$AA?9?$AAi?$AAl?$AA?$AA@ 00000001800588b0     libcpmt:winapinls.obj
 0002:000048c0       ??_C@_1M@BBPHKFPJ@?$AAh?$AAi?$AA?9?$AAi?$AAn?$AA?$AA@ 00000001800588c0     libcpmt:winapinls.obj
 0002:000048d0       ??_C@_1M@PMBNDPHD@?$AAh?$AAr?$AA?9?$AAb?$AAa?$AA?$AA@ 00000001800588d0     libcpmt:winapinls.obj
 0002:000048e0       ??_C@_1M@BPCKOEGE@?$AAh?$AAr?$AA?9?$AAh?$AAr?$AA?$AA@ 00000001800588e0     libcpmt:winapinls.obj
 0002:000048f0       ??_C@_1M@GACBMHKE@?$AAh?$AAu?$AA?9?$AAh?$AAu?$AA?$AA@ 00000001800588f0     libcpmt:winapinls.obj
 0002:00004900       ??_C@_1M@MILPAJJC@?$AAh?$AAy?$AA?9?$AAa?$AAm?$AA?$AA@ 0000000180058900     libcpmt:winapinls.obj
 0002:00004910       ??_C@_1M@BABBICEC@?$AAi?$AAd?$AA?9?$AAi?$AAd?$AA?$AA@ 0000000180058910     libcpmt:winapinls.obj
 0002:00004920       ??_C@_1M@BIKNHHPF@?$AAi?$AAs?$AA?9?$AAi?$AAs?$AA?$AA@ 0000000180058920     libcpmt:winapinls.obj
 0002:00004930       ??_C@_1M@NMPCJPHE@?$AAi?$AAt?$AA?9?$AAc?$AAh?$AA?$AA@ 0000000180058930     libcpmt:winapinls.obj
 0002:00004940       ??_C@_1M@GHKGFEDF@?$AAi?$AAt?$AA?9?$AAi?$AAt?$AA?$AA@ 0000000180058940     libcpmt:winapinls.obj
 0002:00004950       ??_C@_1M@NIEJCJJA@?$AAj?$AAa?$AA?9?$AAj?$AAp?$AA?$AA@ 0000000180058950     libcpmt:winapinls.obj
 0002:00004960       ??_C@_1M@JILFNBIM@?$AAk?$AAa?$AA?9?$AAg?$AAe?$AA?$AA@ 0000000180058960     libcpmt:winapinls.obj
 0002:00004970       ??_C@_1M@PACPMGPH@?$AAk?$AAk?$AA?9?$AAk?$AAz?$AA?$AA@ 0000000180058970     libcpmt:winapinls.obj
 0002:00004980       ??_C@_1M@IELFGMHA@?$AAk?$AAn?$AA?9?$AAi?$AAn?$AA?$AA@ 0000000180058980     libcpmt:winapinls.obj
 0002:00004990       ??_C@_1M@DMHAEOGC@?$AAk?$AAo?$AA?9?$AAk?$AAr?$AA?$AA@ 0000000180058990     libcpmt:winapinls.obj
 0002:000049a0       ??_C@_1O@IBBJHCH@?$AAk?$AAo?$AAk?$AA?9?$AAi?$AAn?$AA?$AA@ 00000001800589a0     libcpmt:winapinls.obj
 0002:000049b0       ??_C@_1M@HBAHBIGA@?$AAk?$AAy?$AA?9?$AAk?$AAg?$AA?$AA@ 00000001800589b0     libcpmt:winapinls.obj
 0002:000049c0       ??_C@_1M@KPMILCJG@?$AAl?$AAt?$AA?9?$AAl?$AAt?$AA?$AA@ 00000001800589c0     libcpmt:winapinls.obj
 0002:000049d0       ??_C@_1M@BDEKKCA@?$AAl?$AAv?$AA?9?$AAl?$AAv?$AA?$AA@ 00000001800589d0     libcpmt:winapinls.obj
 0002:000049e0       ??_C@_1M@ELCKCCJJ@?$AAm?$AAi?$AA?9?$AAn?$AAz?$AA?$AA@ 00000001800589e0     libcpmt:winapinls.obj
 0002:000049f0       ??_C@_1M@CBOOLAPA@?$AAm?$AAk?$AA?9?$AAm?$AAk?$AA?$AA@ 00000001800589f0     libcpmt:winapinls.obj
 0002:00004a00       ??_C@_1M@GPHNBJKN@?$AAm?$AAl?$AA?9?$AAi?$AAn?$AA?$AA@ 0000000180058a00     libcpmt:winapinls.obj
 0002:00004a10       ??_C@_1M@PABJILIG@?$AAm?$AAn?$AA?9?$AAm?$AAn?$AA?$AA@ 0000000180058a10     libcpmt:winapinls.obj
 0002:00004a20       ??_C@_1M@FGBKKIPG@?$AAm?$AAr?$AA?9?$AAi?$AAn?$AA?$AA@ 0000000180058a20     libcpmt:winapinls.obj
 0002:00004a30       ??_C@_1M@NDBPDDAL@?$AAm?$AAs?$AA?9?$AAb?$AAn?$AA?$AA@ 0000000180058a30     libcpmt:winapinls.obj
 0002:00004a40       ??_C@_1M@OPIHOOPI@?$AAm?$AAs?$AA?9?$AAm?$AAy?$AA?$AA@ 0000000180058a40     libcpmt:winapinls.obj
 0002:00004a50       ??_C@_1M@PPDBCNFM@?$AAm?$AAt?$AA?9?$AAm?$AAt?$AA?$AA@ 0000000180058a50     libcpmt:winapinls.obj
 0002:00004a60       ??_C@_1M@KDJDKMDD@?$AAn?$AAb?$AA?9?$AAn?$AAo?$AA?$AA@ 0000000180058a60     libcpmt:winapinls.obj
 0002:00004a70       ??_C@_1M@KFCFLMJP@?$AAn?$AAl?$AA?9?$AAb?$AAe?$AA?$AA@ 0000000180058a70     libcpmt:winapinls.obj
 0002:00004a80       ??_C@_1M@KPOPDDGO@?$AAn?$AAl?$AA?9?$AAn?$AAl?$AA?$AA@ 0000000180058a80     libcpmt:winapinls.obj
 0002:00004a90       ??_C@_1M@LJKPEMLN@?$AAn?$AAn?$AA?9?$AAn?$AAo?$AA?$AA@ 0000000180058a90     libcpmt:winapinls.obj
 0002:00004aa0       ??_C@_1M@BDGHHBFL@?$AAn?$AAs?$AA?9?$AAz?$AAa?$AA?$AA@ 0000000180058aa0     libcpmt:winapinls.obj
 0002:00004ab0       ??_C@_1M@IDEHOAP@?$AAp?$AAa?$AA?9?$AAi?$AAn?$AA?$AA@ 0000000180058ab0     libcpmt:winapinls.obj
 0002:00004ac0       ??_C@_1M@HDBKGOGH@?$AAp?$AAl?$AA?9?$AAp?$AAl?$AA?$AA@ 0000000180058ac0     libcpmt:winapinls.obj
 0002:00004ad0       ??_C@_1M@LJLLCMEH@?$AAp?$AAt?$AA?9?$AAb?$AAr?$AA?$AA@ 0000000180058ad0     libcpmt:winapinls.obj
 0002:00004ae0       ??_C@_1M@NCMONAAL@?$AAp?$AAt?$AA?9?$AAp?$AAt?$AA?$AA@ 0000000180058ae0     libcpmt:winapinls.obj
 0002:00004af0       ??_C@_1O@EAKMAJDN@?$AAq?$AAu?$AAz?$AA?9?$AAb?$AAo?$AA?$AA@ 0000000180058af0     libcpmt:winapinls.obj
 0002:00004b00       ??_C@_1O@BHHPIGDN@?$AAq?$AAu?$AAz?$AA?9?$AAe?$AAc?$AA?$AA@ 0000000180058b00     libcpmt:winapinls.obj
 0002:00004b10       ??_C@_1O@GBAPEKMJ@?$AAq?$AAu?$AAz?$AA?9?$AAp?$AAe?$AA?$AA@ 0000000180058b10     libcpmt:winapinls.obj
 0002:00004b20       ??_C@_1M@CLGLEFBO@?$AAr?$AAo?$AA?9?$AAr?$AAo?$AA?$AA@ 0000000180058b20     libcpmt:winapinls.obj
 0002:00004b30       ??_C@_1M@CEEDODME@?$AAr?$AAu?$AA?9?$AAr?$AAu?$AA?$AA@ 0000000180058b30     libcpmt:winapinls.obj
 0002:00004b40       ??_C@_1M@HPKKKMPP@?$AAs?$AAa?$AA?9?$AAi?$AAn?$AA?$AA@ 0000000180058b40     libcpmt:winapinls.obj
 0002:00004b50       ??_C@_1M@BKMAIGOJ@?$AAs?$AAe?$AA?9?$AAf?$AAi?$AA?$AA@ 0000000180058b50     libcpmt:winapinls.obj
 0002:00004b60       ??_C@_1M@NDPIFLFI@?$AAs?$AAe?$AA?9?$AAn?$AAo?$AA?$AA@ 0000000180058b60     libcpmt:winapinls.obj
 0002:00004b70       ??_C@_1M@DANKKHJ@?$AAs?$AAe?$AA?9?$AAs?$AAe?$AA?$AA@ 0000000180058b70     libcpmt:winapinls.obj
 0002:00004b80       ??_C@_1M@PNBLONPJ@?$AAs?$AAk?$AA?9?$AAs?$AAk?$AA?$AA@ 0000000180058b80     libcpmt:winapinls.obj
 0002:00004b90       ??_C@_1M@LFMODOAL@?$AAs?$AAl?$AA?9?$AAs?$AAi?$AA?$AA@ 0000000180058b90     libcpmt:winapinls.obj
 0002:00004ba0       ??_C@_1O@DFKOMPG@?$AAs?$AAm?$AAa?$AA?9?$AAn?$AAo?$AA?$AA@ 0000000180058ba0     libcpmt:winapinls.obj
 0002:00004bb0       ??_C@_1O@NDKPBNNH@?$AAs?$AAm?$AAa?$AA?9?$AAs?$AAe?$AA?$AA@ 0000000180058bb0     libcpmt:winapinls.obj
 0002:00004bc0       ??_C@_1O@PLLKBHAB@?$AAs?$AAm?$AAj?$AA?9?$AAn?$AAo?$AA?$AA@ 0000000180058bc0     libcpmt:winapinls.obj
 0002:00004bd0       ??_C@_1O@CLEPOGCA@?$AAs?$AAm?$AAj?$AA?9?$AAs?$AAe?$AA?$AA@ 0000000180058bd0     libcpmt:winapinls.obj
 0002:00004be0       ??_C@_1O@DLGJGKMK@?$AAs?$AAm?$AAn?$AA?9?$AAf?$AAi?$AA?$AA@ 0000000180058be0     libcpmt:winapinls.obj
 0002:00004bf0       ??_C@_1O@OJDJGAJC@?$AAs?$AAm?$AAs?$AA?9?$AAf?$AAi?$AA?$AA@ 0000000180058bf0     libcpmt:winapinls.obj
 0002:00004c00       ??_C@_1M@BOFOGHPB@?$AAs?$AAq?$AA?9?$AAa?$AAl?$AA?$AA@ 0000000180058c00     libcpmt:winapinls.obj
 0002:00004c10       ??_C@_1BG@LJBBIPGB@?$AAs?$AAr?$AA?9?$AAb?$AAa?$AA?9?$AAc?$AAy?$AAr?$AAl?$AA?$AA@ 0000000180058c10     libcpmt:winapinls.obj
 0002:00004c28       ??_C@_1BG@JLBENFOE@?$AAs?$AAr?$AA?9?$AAb?$AAa?$AA?9?$AAl?$AAa?$AAt?$AAn?$AA?$AA@ 0000000180058c28     libcpmt:winapinls.obj
 0002:00004c40       ??_C@_1BG@KODPNHE@?$AAs?$AAr?$AA?9?$AAs?$AAp?$AA?9?$AAc?$AAy?$AAr?$AAl?$AA?$AA@ 0000000180058c40     libcpmt:winapinls.obj
 0002:00004c58       ??_C@_1BG@CIOGKHPB@?$AAs?$AAr?$AA?9?$AAs?$AAp?$AA?9?$AAl?$AAa?$AAt?$AAn?$AA?$AA@ 0000000180058c58     libcpmt:winapinls.obj
 0002:00004c70       ??_C@_1M@NGFJLMAC@?$AAs?$AAv?$AA?9?$AAf?$AAi?$AA?$AA@ 0000000180058c70     libcpmt:winapinls.obj
 0002:00004c80       ??_C@_1M@MPJEJAJC@?$AAs?$AAv?$AA?9?$AAs?$AAe?$AA?$AA@ 0000000180058c80     libcpmt:winapinls.obj
 0002:00004c90       ??_C@_1M@MPNDHLFK@?$AAs?$AAw?$AA?9?$AAk?$AAe?$AA?$AA@ 0000000180058c90     libcpmt:winapinls.obj
 0002:00004ca0       ??_C@_1O@KOHBJJI@?$AAs?$AAy?$AAr?$AA?9?$AAs?$AAy?$AA?$AA@ 0000000180058ca0     libcpmt:winapinls.obj
 0002:00004cb0       ??_C@_1M@LDCEFHA@?$AAt?$AAa?$AA?9?$AAi?$AAn?$AA?$AA@ 0000000180058cb0     libcpmt:winapinls.obj
 0002:00004cc0       ??_C@_1M@CNJOFAK@?$AAt?$AAe?$AA?9?$AAi?$AAn?$AA?$AA@ 0000000180058cc0     libcpmt:winapinls.obj
 0002:00004cd0       ??_C@_1M@GNAECACD@?$AAt?$AAh?$AA?9?$AAt?$AAh?$AA?$AA@ 0000000180058cd0     libcpmt:winapinls.obj
 0002:00004ce0       ??_C@_1M@CHBIHOJO@?$AAt?$AAn?$AA?9?$AAz?$AAa?$AA?$AA@ 0000000180058ce0     libcpmt:winapinls.obj
 0002:00004cf0       ??_C@_1M@GCCMIGPJ@?$AAt?$AAr?$AA?9?$AAt?$AAr?$AA?$AA@ 0000000180058cf0     libcpmt:winapinls.obj
 0002:00004d00       ??_C@_1M@CELMCNBK@?$AAt?$AAt?$AA?9?$AAr?$AAu?$AA?$AA@ 0000000180058d00     libcpmt:winapinls.obj
 0002:00004d10       ??_C@_1M@KLMCELGA@?$AAu?$AAk?$AA?9?$AAu?$AAa?$AA?$AA@ 0000000180058d10     libcpmt:winapinls.obj
 0002:00004d20       ??_C@_1M@EPAJJAJF@?$AAu?$AAr?$AA?9?$AAp?$AAk?$AA?$AA@ 0000000180058d20     libcpmt:winapinls.obj
 0002:00004d30       ??_C@_1BG@GEGPMCDJ@?$AAu?$AAz?$AA?9?$AAu?$AAz?$AA?9?$AAc?$AAy?$AAr?$AAl?$AA?$AA@ 0000000180058d30     libcpmt:winapinls.obj
 0002:00004d48       ??_C@_1BG@EGGKJILM@?$AAu?$AAz?$AA?9?$AAu?$AAz?$AA?9?$AAl?$AAa?$AAt?$AAn?$AA?$AA@ 0000000180058d48     libcpmt:winapinls.obj
 0002:00004d60       ??_C@_1M@GFOCLFF@?$AAv?$AAi?$AA?9?$AAv?$AAn?$AA?$AA@ 0000000180058d60     libcpmt:winapinls.obj
 0002:00004d70       ??_C@_1M@CPAMEDFI@?$AAx?$AAh?$AA?9?$AAz?$AAa?$AA?$AA@ 0000000180058d70     libcpmt:winapinls.obj
 0002:00004d80       ??_C@_1O@EBKIFIGN@?$AAz?$AAh?$AA?9?$AAc?$AAh?$AAs?$AA?$AA@ 0000000180058d80     libcpmt:winapinls.obj
 0002:00004d90       ??_C@_1O@NMHPGANE@?$AAz?$AAh?$AA?9?$AAc?$AAh?$AAt?$AA?$AA@ 0000000180058d90     libcpmt:winapinls.obj
 0002:00004da0       ??_C@_1M@LPINJOMC@?$AAz?$AAh?$AA?9?$AAc?$AAn?$AA?$AA@ 0000000180058da0     libcpmt:winapinls.obj
 0002:00004db0       ??_C@_1M@OCJEJODD@?$AAz?$AAh?$AA?9?$AAh?$AAk?$AA?$AA@ 0000000180058db0     libcpmt:winapinls.obj
 0002:00004dc0       ??_C@_1M@DNDLJINH@?$AAz?$AAh?$AA?9?$AAm?$AAo?$AA?$AA@ 0000000180058dc0     libcpmt:winapinls.obj
 0002:00004dd0       ??_C@_1M@MBFDNDND@?$AAz?$AAh?$AA?9?$AAs?$AAg?$AA?$AA@ 0000000180058dd0     libcpmt:winapinls.obj
 0002:00004de0       ??_C@_1M@IMEPLEPE@?$AAz?$AAh?$AA?9?$AAt?$AAw?$AA?$AA@ 0000000180058de0     libcpmt:winapinls.obj
 0002:00004df0       ??_C@_1M@BBGHNHJP@?$AAz?$AAu?$AA?9?$AAz?$AAa?$AA?$AA@ 0000000180058df0     libcpmt:winapinls.obj
 0002:00004e00       ??_C@_1EC@JIJBPKFM@?$AAa?$AAp?$AAi?$AA?9?$AAm?$AAs?$AA?9?$AAw?$AAi?$AAn?$AA?9?$AAc?$AAo?$AAr?$AAe?$AA?9?$AAs?$AAy?$AAn?$AAc?$AAh?$AA?9?$AAl?$AA1?$AA?9?$AA2?$AA?9?$AA0?$AA?4?$AAd?$AAl?$AAl@ 0000000180058e00     LIBCMT:thread_safe_statics.obj
 0002:00004e50       ??_7type_info@@6B@         0000000180058e50     LIBCMT:std_type_info_static.obj
 0002:00004e68       _pRawDllMain               0000000180058e68     LIBCMT:dll_dllmain.obj
 0002:00004e68       _pDefaultRawDllMain        0000000180058e68     LIBCMT:dll_dllmain.obj
 0002:00004e78       ??_7bad_array_new_length@std@@6B@ 0000000180058e78     LIBCMT:throw_bad_alloc.obj
 0002:00004e88       ??_C@_0BF@KINCDENJ@bad?5array?5new?5length?$AA@ 0000000180058e88     LIBCMT:throw_bad_alloc.obj
 0002:00004f38       _pDestructExceptionObject  0000000180058f38     libvcruntime:frame.obj
 0002:00004f48       ??_7bad_exception@std@@6B@ 0000000180058f48     libvcruntime:frame.obj
 0002:00004f58       ??_C@_0O@DPKOEFFH@bad?5exception?$AA@ 0000000180058f58     libvcruntime:frame.obj
 0002:00004fc8       ??_C@_1DM@KHCHBNEB@?$AAa?$AAp?$AAi?$AA?9?$AAm?$AAs?$AA?9?$AAw?$AAi?$AAn?$AA?9?$AAc?$AAo?$AAr?$AAe?$AA?9?$AAf?$AAi?$AAb?$AAe?$AAr?$AAs?$AA?9?$AAl?$AA1?$AA?9?$AA1?$AA?9?$AA1?$AA?$AA@ 0000000180058fc8     libvcruntime:winapi_downlevel.obj
 0002:00005008       ??_C@_1DK@LPPGFMPP@?$AAa?$AAp?$AAi?$AA?9?$AAm?$AAs?$AA?9?$AAw?$AAi?$AAn?$AA?9?$AAc?$AAo?$AAr?$AAe?$AA?9?$AAs?$AAy?$AAn?$AAc?$AAh?$AA?9?$AAl?$AA1?$AA?9?$AA2?$AA?9?$AA0?$AA?$AA@ 0000000180059008     libvcruntime:winapi_downlevel.obj
 0002:00005048       ??_C@_1BC@GDMECMAK@?$AAk?$AAe?$AAr?$AAn?$AAe?$AAl?$AA3?$AA2?$AA?$AA@ 0000000180059048     libvcruntime:winapi_downlevel.obj
 0002:00005060       ??_C@_1BA@PFFKHIOG@?$AAa?$AAp?$AAi?$AA?9?$AAm?$AAs?$AA?9?$AA?$AA@ 0000000180059060     libvcruntime:winapi_downlevel.obj
 0002:00005070       ??_C@_1BA@IAIFMGEF@?$AAe?$AAx?$AAt?$AA?9?$AAm?$AAs?$AA?9?$AA?$AA@ 0000000180059070     libvcruntime:winapi_downlevel.obj
 0002:000050a8       ??_C@_0BM@LDKODKLH@?5Base?5Class?5Descriptor?5at?5?$CI?$AA@ 00000001800590a8     libvcruntime:undname.obj
 0002:000050c8       ??_C@_0BD@LGICGFMM@?5Base?5Class?5Array?8?$AA@ 00000001800590c8     libvcruntime:undname.obj
 0002:000050e0       ??_C@_0BN@MECKDCOJ@?5Class?5Hierarchy?5Descriptor?8?$AA@ 00000001800590e0     libvcruntime:undname.obj
 0002:00005100       ??_C@_0BK@CFCOFLF@?5Complete?5Object?5Locator?8?$AA@ 0000000180059100     libvcruntime:undname.obj
 0002:00005448       ??_C@_08EHJDFFNH@__based?$CI?$AA@ 0000000180059448     libvcruntime:undname.obj
 0002:00005458       ??_C@_07KOLFKCDI@__cdecl?$AA@ 0000000180059458     libvcruntime:undname.obj
 0002:00005460       ??_C@_08GHMPAG@__pascal?$AA@ 0000000180059460     libvcruntime:undname.obj
 0002:00005470       ??_C@_09IFJBGAPI@__stdcall?$AA@ 0000000180059470     libvcruntime:undname.obj
 0002:00005480       ??_C@_0L@NPHFGOKO@__thiscall?$AA@ 0000000180059480     libvcruntime:undname.obj
 0002:00005490       ??_C@_0L@JMKHOMEK@__fastcall?$AA@ 0000000180059490     libvcruntime:undname.obj
 0002:000054a0       ??_C@_0N@BCKKPABJ@__vectorcall?$AA@ 00000001800594a0     libvcruntime:undname.obj
 0002:000054b0       ??_C@_09HIJEGCPM@__clrcall?$AA@ 00000001800594b0     libvcruntime:undname.obj
 0002:000054bc       ??_C@_06GHPCKEAG@__eabi?$AA@ 00000001800594bc     libvcruntime:undname.obj
 0002:000054c8       ??_C@_07JOMMBBKO@__ptr64?$AA@ 00000001800594c8     libvcruntime:undname.obj
 0002:000054d0       ??_C@_0L@PILCLIHE@__restrict?$AA@ 00000001800594d0     libvcruntime:undname.obj
 0002:000054e0       ??_C@_0M@GFIIJFMG@__unaligned?$AA@ 00000001800594e0     libvcruntime:undname.obj
 0002:000054f0       ??_C@_09DHDLOLLB@restrict?$CI?$AA@ 00000001800594f0     libvcruntime:undname.obj
 0002:000054fc       ??_C@_04NIHEBCM@?5new?$AA@ 00000001800594fc     libvcruntime:undname.obj
 0002:00005508       ??_C@_07FPCDHGMM@?5delete?$AA@ 0000000180059508     libvcruntime:undname.obj
 0002:00005510       ??_C@_01NEMOKFLO@?$DN?$AA@ 0000000180059510     libvcruntime:undname.obj
 0002:00005514       ??_C@_02GPIOPFAK@?$DO?$DO?$AA@ 0000000180059514     libvcruntime:undname.obj
 0002:00005518       ??_C@_02FODMEDOG@?$DM?$DM?$AA@ 0000000180059518     libvcruntime:undname.obj
 0002:0000551c       ??_C@_01DCLJPIOD@?$CB?$AA@ 000000018005951c     libvcruntime:undname.obj
 0002:00005520       ??_C@_02EGOFBIJA@?$DN?$DN?$AA@ 0000000180059520     libvcruntime:undname.obj
 0002:00005524       ??_C@_02FDNJECIE@?$CB?$DN?$AA@ 0000000180059524     libvcruntime:undname.obj
 0002:00005528       ??_C@_02GPECMEKF@?$FL?$FN?$AA@ 0000000180059528     libvcruntime:undname.obj
 0002:00005530       ??_C@_08LHJFAFGD@operator?$AA@ 0000000180059530     libvcruntime:undname.obj
 0002:0000553c       ??_C@_02HBOOOICD@?9?$DO?$AA@ 000000018005953c     libvcruntime:undname.obj
 0002:00005540       ??_C@_02ECNGHCIF@?$CL?$CL?$AA@ 0000000180059540     libvcruntime:undname.obj
 0002:00005544       ??_C@_02BAABKJLB@?9?9?$AA@ 0000000180059544     libvcruntime:undname.obj
 0002:00005548       ??_C@_01MIFGBAGJ@?$CL?$AA@ 0000000180059548     libvcruntime:undname.obj
 0002:0000554c       ??_C@_01HNPIGOCE@?$CG?$AA@ 000000018005954c     libvcruntime:undname.obj
 0002:00005550       ??_C@_03MNHNFDLC@?9?$DO?$CK?$AA@ 0000000180059550     libvcruntime:undname.obj
 0002:00005554       ??_C@_01KMDKNFGN@?1?$AA@   0000000180059554     libvcruntime:undname.obj
 0002:00005558       ??_C@_01FGNFDNOH@?$CF?$AA@ 0000000180059558     libvcruntime:undname.obj
 0002:0000555c       ??_C@_01MNNFJEPP@?$DM?$AA@ 000000018005955c     libvcruntime:undname.obj
 0002:00005560       ??_C@_02EHCHHCKH@?$DM?$DN?$AA@ 0000000180059560     libvcruntime:undname.obj
 0002:00005564       ??_C@_01PPODPGHN@?$DO?$AA@ 0000000180059564     libvcruntime:undname.obj
 0002:00005568       ??_C@_02EEKDKGMJ@?$DO?$DN?$AA@ 0000000180059568     libvcruntime:undname.obj
 0002:0000556c       ??_C@_01IHBHIGKO@?0?$AA@   000000018005956c     libvcruntime:undname.obj
 0002:00005570       ??_C@_02HCKGKOFO@?$CI?$CJ?$AA@ 0000000180059570     libvcruntime:undname.obj
 0002:00005574       ??_C@_01PJKLJHI@?$HO?$AA@  0000000180059574     libvcruntime:undname.obj
 0002:00005578       ??_C@_01JKBOJNNK@?$FO?$AA@ 0000000180059578     libvcruntime:undname.obj
 0002:0000557c       ??_C@_01DNKMNLPK@?$HM?$AA@ 000000018005957c     libvcruntime:undname.obj
 0002:00005580       ??_C@_02PPKAJPJL@?$CG?$CG?$AA@ 0000000180059580     libvcruntime:undname.obj
 0002:00005584       ??_C@_02NONPIBCD@?$HM?$HM?$AA@ 0000000180059584     libvcruntime:undname.obj
 0002:00005588       ??_C@_02FPIMKNGF@?$CK?$DN?$AA@ 0000000180059588     libvcruntime:undname.obj
 0002:0000558c       ??_C@_02FOEOMHFC@?$CL?$DN?$AA@ 000000018005958c     libvcruntime:undname.obj
 0002:00005590       ??_C@_02FKMDLLOA@?9?$DN?$AA@ 0000000180059590     libvcruntime:undname.obj
 0002:00005594       ??_C@_02FJEHGPIO@?1?$DN?$AA@ 0000000180059594     libvcruntime:undname.obj
 0002:00005598       ??_C@_02FENAOKFI@?$CF?$DN?$AA@ 0000000180059598     libvcruntime:undname.obj
 0002:0000559c       ??_C@_03IKFCCPFF@?$DO?$DO?$DN?$AA@ 000000018005959c     libvcruntime:undname.obj
 0002:000055a0       ??_C@_03CDNPDDLA@?$DM?$DM?$DN?$AA@ 00000001800595a0     libvcruntime:undname.obj
 0002:000055a4       ??_C@_02FGJGFEAB@?$CG?$DN?$AA@ 00000001800595a4     libvcruntime:undname.obj
 0002:000055a8       ??_C@_02DHLNPPGH@?$HM?$DN?$AA@ 00000001800595a8     libvcruntime:undname.obj
 0002:000055ac       ??_C@_02MHEGNOJ@?$FO?$DN?$AA@ 00000001800595ac     libvcruntime:undname.obj
 0002:000055b0       ??_C@_09IFPLHPGF@?$GAvftable?8?$AA@ 00000001800595b0     libvcruntime:undname.obj
 0002:000055c0       ??_C@_09BLBHBJP@?$GAvbtable?8?$AA@ 00000001800595c0     libvcruntime:undname.obj
 0002:000055d0       ??_C@_07FEEIOKP@?$GAvcall?8?$AA@ 00000001800595d0     libvcruntime:undname.obj
 0002:000055d8       ??_C@_08LLFFHHDJ@?$GAtypeof?8?$AA@ 00000001800595d8     libvcruntime:undname.obj
 0002:000055e8       ??_C@_0BF@KDPPACIK@?$GAlocal?5static?5guard?8?$AA@ 00000001800595e8     libvcruntime:undname.obj
 0002:00005600       ??_C@_08OBABFOLI@?$GAstring?8?$AA@ 0000000180059600     libvcruntime:undname.obj
 0002:00005610       ??_C@_0BD@JDLKDPAB@?$GAvbase?5destructor?8?$AA@ 0000000180059610     libvcruntime:undname.obj
 0002:00005628       ??_C@_0BN@DEGPLNFK@?$GAvector?5deleting?5destructor?8?$AA@ 0000000180059628     libvcruntime:undname.obj
 0002:00005648       ??_C@_0BO@OBMKPJIG@?$GAdefault?5constructor?5closure?8?$AA@ 0000000180059648     libvcruntime:undname.obj
 0002:00005668       ??_C@_0BN@IMDCHIKM@?$GAscalar?5deleting?5destructor?8?$AA@ 0000000180059668     libvcruntime:undname.obj
 0002:00005688       ??_C@_0BO@PFGOCPJJ@?$GAvector?5constructor?5iterator?8?$AA@ 0000000180059688     libvcruntime:undname.obj
 0002:000056a8       ??_C@_0BN@LFPFMEDL@?$GAvector?5destructor?5iterator?8?$AA@ 00000001800596a8     libvcruntime:undname.obj
 0002:000056c8       ??_C@_0CE@IKBNEHA@?$GAvector?5vbase?5constructor?5iterat@ 00000001800596c8     libvcruntime:undname.obj
 0002:000056f0       ??_C@_0BL@NILFHHPC@?$GAvirtual?5displacement?5map?8?$AA@ 00000001800596f0     libvcruntime:undname.obj
 0002:00005710       ??_C@_0CB@JONCMFFK@?$GAeh?5vector?5constructor?5iterator?8@ 0000000180059710     libvcruntime:undname.obj
 0002:00005738       ??_C@_0CA@GCEOPDGL@?$GAeh?5vector?5destructor?5iterator?8?$AA@ 0000000180059738     libvcruntime:undname.obj
 0002:00005758       ??_C@_0CH@OOJPLCPH@?$GAeh?5vector?5vbase?5constructor?5ite@ 0000000180059758     libvcruntime:undname.obj
 0002:00005780       ??_C@_0BL@LLKPOHJI@?$GAcopy?5constructor?5closure?8?$AA@ 0000000180059780     libvcruntime:undname.obj
 0002:000057a0       ??_C@_0BA@KBCDOMBN@?$GAudt?5returning?8?$AA@ 00000001800597a0     libvcruntime:undname.obj
 0002:000057b0       ??_C@_03KLGMFNMG@?$GAEH?$AA@ 00000001800597b0     libvcruntime:undname.obj
 0002:000057b4       ??_C@_05KHLCHHI@?$GARTTI?$AA@ 00000001800597b4     libvcruntime:undname.obj
 0002:000057c0       ??_C@_0BA@KKLDJDLB@?$GAlocal?5vftable?8?$AA@ 00000001800597c0     libvcruntime:undname.obj
 0002:000057d0       ??_C@_0CE@IIHCMGGL@?$GAlocal?5vftable?5constructor?5closu@ 00000001800597d0     libvcruntime:undname.obj
 0002:000057f4       ??_C@_06FHBGPFGH@?5new?$FL?$FN?$AA@ 00000001800597f4     libvcruntime:undname.obj
 0002:00005800       ??_C@_09LBNFPBCA@?5delete?$FL?$FN?$AA@ 0000000180059800     libvcruntime:undname.obj
 0002:00005810       ??_C@_0P@HJKNJFNN@?$GAomni?5callsig?8?$AA@ 0000000180059810     libvcruntime:undname.obj
 0002:00005820       ??_C@_0BL@CNOONJFP@?$GAplacement?5delete?5closure?8?$AA@ 0000000180059820     libvcruntime:undname.obj
 0002:00005840       ??_C@_0BN@CKNJLHMB@?$GAplacement?5delete?$FL?$FN?5closure?8?$AA@ 0000000180059840     libvcruntime:undname.obj
 0002:00005860       ??_C@_0CG@CFDHKGGD@?$GAmanaged?5vector?5constructor?5iter@ 0000000180059860     libvcruntime:undname.obj
 0002:00005888       ??_C@_0CF@IMGKMJNO@?$GAmanaged?5vector?5destructor?5itera@ 0000000180059888     libvcruntime:undname.obj
 0002:000058b0       ??_C@_0CG@HLDDJMAG@?$GAeh?5vector?5copy?5constructor?5iter@ 00000001800598b0     libvcruntime:undname.obj
 0002:000058d8       ??_C@_0CM@FCBBDIGB@?$GAeh?5vector?5vbase?5copy?5constructo@ 00000001800598d8     libvcruntime:undname.obj
 0002:00005908       ??_C@_0BL@CLIPGLGB@?$GAdynamic?5initializer?5for?5?8?$AA@ 0000000180059908     libvcruntime:undname.obj
 0002:00005928       ??_C@_0CB@PDBIFEP@?$GAdynamic?5atexit?5destructor?5for?5?8@ 0000000180059928     libvcruntime:undname.obj
 0002:00005950       ??_C@_0CD@CGAJBKEJ@?$GAvector?5copy?5constructor?5iterato@ 0000000180059950     libvcruntime:undname.obj
 0002:00005978       ??_C@_0CJ@GJELGAMM@?$GAvector?5vbase?5copy?5constructor?5i@ 0000000180059978     libvcruntime:undname.obj
 0002:000059a8       ??_C@_0CL@FGIJHLCE@?$GAmanaged?5vector?5copy?5constructor@ 00000001800599a8     libvcruntime:undname.obj
 0002:000059d8       ??_C@_0BM@PMGGMLDN@?$GAlocal?5static?5thread?5guard?8?$AA@ 00000001800599d8     libvcruntime:undname.obj
 0002:000059f8       ??_C@_0N@BDNMDMOL@operator?5?$CC?$CC?5?$AA@ 00000001800599f8     libvcruntime:undname.obj
 0002:00005a08       ??_C@_0BC@GGEBGALA@operator?5co_await?$AA@ 0000000180059a08     libvcruntime:undname.obj
 0002:00005a20       ??_C@_0BC@DAFEJGAK@?5Type?5Descriptor?8?$AA@ 0000000180059a20     libvcruntime:undname.obj
 0002:00005a40       standard_lookup_table      0000000180059a40     libucrt:output.obj
 0002:00005aa0       format_validation_lookup_table 0000000180059aa0     libucrt:output.obj
 0002:00005b00       ??_C@_1O@CEDCILHN@?$AA?$CI?$AAn?$AAu?$AAl?$AAl?$AA?$CJ?$AA?$AA@ 0000000180059b00     libucrt:output.obj
 0002:00005b10       ??_C@_06OJHGLDPL@?$CInull?$CJ?$AA@ 0000000180059b10     libucrt:output.obj
 0002:00005b18       __real@0000000000000000    0000000180059b18     libucrt:frexp.obj
 0002:00005b20       __real@8000000000000000    0000000180059b20     libucrt:frexp.obj
 0002:00005b30       ??_C@_1EK@MBDPDCGA@?$AAM?$AAi?$AAc?$AAr?$AAo?$AAs?$AAo?$AAf?$AAt?$AA?5?$AAV?$AAi?$AAs?$AAu?$AAa?$AAl?$AA?5?$AAC?$AA?$CL?$AA?$CL?$AA?5?$AAR?$AAu?$AAn?$AAt?$AAi?$AAm?$AAe?$AA?5?$AAL?$AAi?$AAb@ 0000000180059b30     libucrt:assert.obj
 0002:00005b80       ??_C@_1FE@LHBLIKM@?$AAA?$AAs?$AAs?$AAe?$AAr?$AAt?$AAi?$AAo?$AAn?$AA?5?$AAf?$AAa?$AAi?$AAl?$AAe?$AAd?$AA?3?$AA?5?$AA?$CF?$AAT?$AAs?$AA?0?$AA?5?$AAf?$AAi?$AAl?$AAe?$AA?5?$AA?$CF?$AAT?$AAs?$AA?0@ 0000000180059b80     libucrt:assert.obj
 0002:00005bd8       ??_C@_1CE@OJBNHDMO@?$AAA?$AAs?$AAs?$AAe?$AAr?$AAt?$AAi?$AAo?$AAn?$AA?5?$AAf?$AAa?$AAi?$AAl?$AAe?$AAd?$AA?$CB?$AA?$AA@ 0000000180059bd8     libucrt:assert.obj
 0002:00005c00       ??_C@_1BE@PHKBBGE@?$AAP?$AAr?$AAo?$AAg?$AAr?$AAa?$AAm?$AA?3?$AA?5?$AA?$AA@ 0000000180059c00     libucrt:assert.obj
 0002:00005c18       ??_C@_1O@HEMHKNDC@?$AAF?$AAi?$AAl?$AAe?$AA?3?$AA?5?$AA?$AA@ 0000000180059c18     libucrt:assert.obj
 0002:00005c28       ??_C@_1O@KCAFKHJE@?$AAL?$AAi?$AAn?$AAe?$AA?3?$AA?5?$AA?$AA@ 0000000180059c28     libucrt:assert.obj
 0002:00005c38       ??_C@_1BK@PEDCIPMA@?$AAE?$AAx?$AAp?$AAr?$AAe?$AAs?$AAs?$AAi?$AAo?$AAn?$AA?3?$AA?5?$AA?$AA@ 0000000180059c38     libucrt:assert.obj
 0002:00005c60       ??_C@_1OA@EGMLFBHJ@?$AAF?$AAo?$AAr?$AA?5?$AAi?$AAn?$AAf?$AAo?$AAr?$AAm?$AAa?$AAt?$AAi?$AAo?$AAn?$AA?5?$AAo?$AAn?$AA?5?$AAh?$AAo?$AAw?$AA?5?$AAy?$AAo?$AAu?$AAr?$AA?5?$AAp?$AAr?$AAo?$AAg@ 0000000180059c60     libucrt:assert.obj
 0002:00005d40       ??_C@_1HK@POCJMFGK@?$AA?$CI?$AAP?$AAr?$AAe?$AAs?$AAs?$AA?5?$AAR?$AAe?$AAt?$AAr?$AAy?$AA?5?$AAt?$AAo?$AA?5?$AAd?$AAe?$AAb?$AAu?$AAg?$AA?5?$AAt?$AAh?$AAe?$AA?5?$AAa?$AAp?$AAp?$AAl?$AAi?$AAc@ 0000000180059d40     libucrt:assert.obj
 0002:00005dc0       ??_C@_17LGKOMLJ@?$AA?4?$AA?4?$AA?4?$AA?$AA@ 0000000180059dc0     libucrt:assert.obj
 0002:00005dc8       ??_C@_13LBAGMAIH@?$AA?6?$AA?$AA@ 0000000180059dc8     libucrt:assert.obj
 0002:00005dcc       ??_C@_15IABLJNFO@?$AA?6?$AA?6?$AA?$AA@ 0000000180059dcc     libucrt:assert.obj
 0002:00005dd8       ??_C@_1CO@EAEJAADC@?$AA?$DM?$AAp?$AAr?$AAo?$AAg?$AAr?$AAa?$AAm?$AA?5?$AAn?$AAa?$AAm?$AAe?$AA?5?$AAu?$AAn?$AAk?$AAn?$AAo?$AAw?$AAn?$AA?$DO?$AA?$AA@ 0000000180059dd8     libucrt:assert.obj
 0002:00005e10       _wctype                    0000000180059e10     libucrt:ctype.obj
 0002:00006020       __newctype                 000000018005a020     libucrt:ctype.obj
 0002:00006320       __newclmap                 000000018005a320     libucrt:ctype.obj
 0002:000064a0       __newcumap                 000000018005a4a0     libucrt:ctype.obj
 0002:00006780       ?large_power_data@?1??multiply_by_power_of_ten@__crt_strtox@@YA_NAEAUbig_integer@2@I@Z@4QBIB 000000018005a780     libucrt:strtod.obj
 0002:00007090       ?large_power_indices@?1??multiply_by_power_of_ten@__crt_strtox@@YA_NAEAUbig_integer@2@I@Z@4QBUunpack_index@?1??12@YA_N0I@Z@B 000000018005b090     libucrt:strtod.obj
 0002:00007128       ?small_powers_of_ten@?1??multiply_by_power_of_ten@__crt_strtox@@YA_NAEAUbig_integer@2@I@Z@4QBIB 000000018005b128     libucrt:strtod.obj
 0002:00008e00       __acrt_exception_action_table 000000018005ce00     libucrt:exception_filter.obj
 0002:00008ec0       __acrt_signal_action_table_count 000000018005cec0     libucrt:exception_filter.obj
 0002:00008ec8       __acrt_signal_action_first_fpe_index 000000018005cec8     libucrt:exception_filter.obj
 0002:00008ed0       __acrt_signal_action_fpe_count 000000018005ced0     libucrt:exception_filter.obj
 0002:00008ed8       ??_C@_1BI@BGOHAHKC@?$AAm?$AAs?$AAc?$AAo?$AAr?$AAe?$AAe?$AA?4?$AAd?$AAl?$AAl?$AA?$AA@ 000000018005ced8     libucrt:exit.obj
 0002:00008ef0       ??_C@_0P@MIGLKIOC@CorExitProcess?$AA@ 000000018005cef0     libucrt:exit.obj
 0002:00008ff0       ??_C@_03OEIAHPBN@INF?$AA@  000000018005cff0     libucrt:cvt.obj
 0002:00008ff4       ??_C@_03OJHLLCGB@inf?$AA@  000000018005cff4     libucrt:cvt.obj
 0002:00008ff8       ??_C@_03LKNCIKJB@NAN?$AA@  000000018005cff8     libucrt:cvt.obj
 0002:00008ffc       ??_C@_03LHCJEHON@nan?$AA@  000000018005cffc     libucrt:cvt.obj
 0002:00009000       ??_C@_09OFJJIMPC@NAN?$CISNAN?$CJ?$AA@ 000000018005d000     libucrt:cvt.obj
 0002:00009010       ??_C@_09IPFBKMDL@nan?$CIsnan?$CJ?$AA@ 000000018005d010     libucrt:cvt.obj
 0002:00009020       ??_C@_08IKHNHAJ@NAN?$CIIND?$CJ?$AA@ 000000018005d020     libucrt:cvt.obj
 0002:00009030       ??_C@_08OFCDMILK@nan?$CIind?$CJ?$AA@ 000000018005d030     libucrt:cvt.obj
 0002:0000903c       ??_C@_05KLBDPFGC@e?$CL000?$AA@ 000000018005d03c     libucrt:cvt.obj
 0002:00009050       __lc_category              000000018005d050     libucrt:wsetlocale.obj
 0002:000090e0       ??_C@_1O@GIFLHMA@?$AAL?$AAC?$AA_?$AAA?$AAL?$AAL?$AA?$AA@ 000000018005d0e0     libucrt:wsetlocale.obj
 0002:000090f0       ??_C@_1BG@PPOMIBNJ@?$AAL?$AAC?$AA_?$AAC?$AAO?$AAL?$AAL?$AAA?$AAT?$AAE?$AA?$AA@ 000000018005d0f0     libucrt:wsetlocale.obj
 0002:00009108       ??_C@_1BC@FFJGAPJM@?$AAL?$AAC?$AA_?$AAC?$AAT?$AAY?$AAP?$AAE?$AA?$AA@ 000000018005d108     libucrt:wsetlocale.obj
 0002:00009120       ??_C@_1BI@PCKFNJFB@?$AAL?$AAC?$AA_?$AAM?$AAO?$AAN?$AAE?$AAT?$AAA?$AAR?$AAY?$AA?$AA@ 000000018005d120     libucrt:wsetlocale.obj
 0002:00009138       ??_C@_1BG@ENIEDKID@?$AAL?$AAC?$AA_?$AAN?$AAU?$AAM?$AAE?$AAR?$AAI?$AAC?$AA?$AA@ 000000018005d138     libucrt:wsetlocale.obj
 0002:00009150       ??_C@_1BA@HAAOMIIG@?$AAL?$AAC?$AA_?$AAT?$AAI?$AAM?$AAE?$AA?$AA@ 000000018005d150     libucrt:wsetlocale.obj
 0002:000091e0       ??_C@_15NBPDDFIP@?$AA?$DN?$AA?$DL?$AA?$AA@ 000000018005d1e0     libucrt:wsetlocale.obj
 0002:000091e8       ??_C@_13PJJBFPED@?$AA?$DL?$AA?$AA@ 000000018005d1e8     libucrt:wsetlocale.obj
 0002:000091ec       ??_C@_13NMPKAAJP@?$AA?$DN?$AA?$AA@ 000000018005d1ec     libucrt:wsetlocale.obj
 0002:000091f0       ??_C@_13FHBKNHDA@?$AAC?$AA?$AA@ 000000018005d1f0     libucrt:wsetlocale.obj
 0002:000091f8       ??_C@_17MBJJLFDM@?$AA_?$AA?4?$AA?0?$AA?$AA@ 000000018005d1f8     libucrt:wsetlocale.obj
 0002:00009200       ??_C@_13ENNFDPBH@?$AA_?$AA?$AA@ 000000018005d200     libucrt:wsetlocale.obj
 0002:00009204       ??_C@_13JOFGPIOO@?$AA?4?$AA?$AA@ 000000018005d204     libucrt:wsetlocale.obj
 0002:00009208       ??_C@_03KOEHGMDN@Sun?$AA@  000000018005d208     libucrt:nlsdata.obj
 0002:0000920c       ??_C@_03PDAGKDH@Mon?$AA@   000000018005d20c     libucrt:nlsdata.obj
 0002:00009210       ??_C@_03NAGEINEP@Tue?$AA@  000000018005d210     libucrt:nlsdata.obj
 0002:00009214       ??_C@_03MHOMLAJA@Wed?$AA@  000000018005d214     libucrt:nlsdata.obj
 0002:00009218       ??_C@_03IOFIKPDN@Thu?$AA@  000000018005d218     libucrt:nlsdata.obj
 0002:0000921c       ??_C@_03IDIOELNC@Fri?$AA@  000000018005d21c     libucrt:nlsdata.obj
 0002:00009220       ??_C@_03FEFJNEK@Sat?$AA@   000000018005d220     libucrt:nlsdata.obj
 0002:00009224       ??_C@_06OOPIFAJ@Sunday?$AA@ 000000018005d224     libucrt:nlsdata.obj
 0002:0000922c       ??_C@_06JLEDEDGH@Monday?$AA@ 000000018005d22c     libucrt:nlsdata.obj
 0002:00009238       ??_C@_07BAAGCFCM@Tuesday?$AA@ 000000018005d238     libucrt:nlsdata.obj
 0002:00009240       ??_C@_09DLIGFAKA@Wednesday?$AA@ 000000018005d240     libucrt:nlsdata.obj
 0002:00009250       ??_C@_08HACCIKIA@Thursday?$AA@ 000000018005d250     libucrt:nlsdata.obj
 0002:0000925c       ??_C@_06JECMNKMI@Friday?$AA@ 000000018005d25c     libucrt:nlsdata.obj
 0002:00009268       ??_C@_08INBOOONO@Saturday?$AA@ 000000018005d268     libucrt:nlsdata.obj
 0002:00009274       ??_C@_03JIHJHPIE@Jan?$AA@  000000018005d274     libucrt:nlsdata.obj
 0002:00009278       ??_C@_03HJBDCHOM@Feb?$AA@  000000018005d278     libucrt:nlsdata.obj
 0002:0000927c       ??_C@_03ODNJBKGA@Mar?$AA@  000000018005d27c     libucrt:nlsdata.obj
 0002:00009280       ??_C@_03LEOLGMJP@Apr?$AA@  000000018005d280     libucrt:nlsdata.obj
 0002:00009284       ??_C@_03CNMDKL@May?$AA@    000000018005d284     libucrt:nlsdata.obj
 0002:00009288       ??_C@_03IDFGHECI@Jun?$AA@  000000018005d288     libucrt:nlsdata.obj
 0002:0000928c       ??_C@_03LBGABGKK@Jul?$AA@  000000018005d28c     libucrt:nlsdata.obj
 0002:00009290       ??_C@_03IFJFEIGA@Aug?$AA@  000000018005d290     libucrt:nlsdata.obj
 0002:00009294       ??_C@_03GGCAPAJC@Sep?$AA@  000000018005d294     libucrt:nlsdata.obj
 0002:00009298       ??_C@_03BMAOKBAD@Oct?$AA@  000000018005d298     libucrt:nlsdata.obj
 0002:0000929c       ??_C@_03JPJOFNIA@Nov?$AA@  000000018005d29c     libucrt:nlsdata.obj
 0002:000092a0       ??_C@_03MKABNOCG@Dec?$AA@  000000018005d2a0     libucrt:nlsdata.obj
 0002:000092a8       ??_C@_07CGJPFGJA@January?$AA@ 000000018005d2a8     libucrt:nlsdata.obj
 0002:000092b0       ??_C@_08GNJGEPFN@February?$AA@ 000000018005d2b0     libucrt:nlsdata.obj
 0002:000092bc       ??_C@_05HPCKOFNC@March?$AA@ 000000018005d2bc     libucrt:nlsdata.obj
 0002:000092c4       ??_C@_05DMJDNLEJ@April?$AA@ 000000018005d2c4     libucrt:nlsdata.obj
 0002:000092cc       ??_C@_04CNLMGBGM@June?$AA@ 000000018005d2cc     libucrt:nlsdata.obj
 0002:000092d4       ??_C@_04MIEPOIFP@July?$AA@ 000000018005d2d4     libucrt:nlsdata.obj
 0002:000092dc       ??_C@_06LBBHFDDG@August?$AA@ 000000018005d2dc     libucrt:nlsdata.obj
 0002:000092e8       ??_C@_09BHHEALKD@September?$AA@ 000000018005d2e8     libucrt:nlsdata.obj
 0002:000092f8       ??_C@_07JJNFCEND@October?$AA@ 000000018005d2f8     libucrt:nlsdata.obj
 0002:00009300       ??_C@_08HCHEGEOA@November?$AA@ 000000018005d300     libucrt:nlsdata.obj
 0002:00009310       ??_C@_08EDHMEBNP@December?$AA@ 000000018005d310     libucrt:nlsdata.obj
 0002:0000931c       ??_C@_02DEDBPAFC@AM?$AA@   000000018005d31c     libucrt:nlsdata.obj
 0002:00009320       ??_C@_02CJNFDJBF@PM?$AA@   000000018005d320     libucrt:nlsdata.obj
 0002:00009328       ??_C@_08BPBNCDIB@MM?1dd?1yy?$AA@ 000000018005d328     libucrt:nlsdata.obj
 0002:00009338       ??_C@_0BE@CKGJFCPC@dddd?0?5MMMM?5dd?0?5yyyy?$AA@ 000000018005d338     libucrt:nlsdata.obj
 0002:00009350       ??_C@_08JCCMCCIL@HH?3mm?3ss?$AA@ 000000018005d350     libucrt:nlsdata.obj
 0002:00009360       ??_C@_17MBGCMIPB@?$AAS?$AAu?$AAn?$AA?$AA@ 000000018005d360     libucrt:nlsdata.obj
 0002:00009368       ??_C@_17KBOMKBF@?$AAM?$AAo?$AAn?$AA?$AA@ 000000018005d368     libucrt:nlsdata.obj
 0002:00009370       ??_C@_17BMKGEGOJ@?$AAT?$AAu?$AAe?$AA?$AA@ 000000018005d370     libucrt:nlsdata.obj
 0002:00009378       ??_C@_17CJEDCEPE@?$AAW?$AAe?$AAd?$AA?$AA@ 000000018005d378     libucrt:nlsdata.obj
 0002:00009380       ??_C@_17PDPHAADD@?$AAT?$AAh?$AAu?$AA?$AA@ 000000018005d380     libucrt:nlsdata.obj
 0002:00009388       ??_C@_17HFOLPPLP@?$AAF?$AAr?$AAi?$AA?$AA@ 000000018005d388     libucrt:nlsdata.obj
 0002:00009390       ??_C@_17GGIBDPIH@?$AAS?$AAa?$AAt?$AA?$AA@ 000000018005d390     libucrt:nlsdata.obj
 0002:00009398       ??_C@_1O@IHNHDHPB@?$AAS?$AAu?$AAn?$AAd?$AAa?$AAy?$AA?$AA@ 000000018005d398     libucrt:nlsdata.obj
 0002:000093a8       ??_C@_1O@MMNBFLIA@?$AAM?$AAo?$AAn?$AAd?$AAa?$AAy?$AA?$AA@ 000000018005d3a8     libucrt:nlsdata.obj
 0002:000093b8       ??_C@_1BA@ENFBFFEK@?$AAT?$AAu?$AAe?$AAs?$AAd?$AAa?$AAy?$AA?$AA@ 000000018005d3b8     libucrt:nlsdata.obj
 0002:000093c8       ??_C@_1BE@EBOGMDOH@?$AAW?$AAe?$AAd?$AAn?$AAe?$AAs?$AAd?$AAa?$AAy?$AA?$AA@ 000000018005d3c8     libucrt:nlsdata.obj
 0002:000093e0       ??_C@_1BC@HHMNLIHE@?$AAT?$AAh?$AAu?$AAr?$AAs?$AAd?$AAa?$AAy?$AA?$AA@ 000000018005d3e0     libucrt:nlsdata.obj
 0002:000093f8       ??_C@_1O@PDICJHAG@?$AAF?$AAr?$AAi?$AAd?$AAa?$AAy?$AA?$AA@ 000000018005d3f8     libucrt:nlsdata.obj
 0002:00009408       ??_C@_1BC@ENMNNPAJ@?$AAS?$AAa?$AAt?$AAu?$AAr?$AAd?$AAa?$AAy?$AA?$AA@ 000000018005d408     libucrt:nlsdata.obj
 0002:00009420       ??_C@_17DKNBKCHM@?$AAJ?$AAa?$AAn?$AA?$AA@ 000000018005d420     libucrt:nlsdata.obj
 0002:00009428       ??_C@_17LMDJEKJN@?$AAF?$AAe?$AAb?$AA?$AA@ 000000018005d428     libucrt:nlsdata.obj
 0002:00009430       ??_C@_17CKNLEDEC@?$AAM?$AAa?$AAr?$AA?$AA@ 000000018005d430     libucrt:nlsdata.obj
 0002:00009438       ??_C@_17LFPOIHDD@?$AAA?$AAp?$AAr?$AA?$AA@ 000000018005d438     libucrt:nlsdata.obj
 0002:00009440       ??_C@_17PNNKMEED@?$AAM?$AAa?$AAy?$AA?$AA@ 000000018005d440     libucrt:nlsdata.obj
 0002:00009448       ??_C@_17KCJGOCPB@?$AAJ?$AAu?$AAn?$AA?$AA@ 000000018005d448     libucrt:nlsdata.obj
 0002:00009450       ??_C@_17IJPCKHK@?$AAJ?$AAu?$AAl?$AA?$AA@ 000000018005d450     libucrt:nlsdata.obj
 0002:00009458       ??_C@_17ICPELBCN@?$AAA?$AAu?$AAg?$AA?$AA@ 000000018005d458     libucrt:nlsdata.obj
 0002:00009460       ??_C@_17HCHCOKMG@?$AAS?$AAe?$AAp?$AA?$AA@ 000000018005d460     libucrt:nlsdata.obj
 0002:00009468       ??_C@_17FNLKOI@?$AAO?$AAc?$AAt?$AA?$AA@ 000000018005d468     libucrt:nlsdata.obj
 0002:00009470       ??_C@_17BBDMLCIG@?$AAN?$AAo?$AAv?$AA?$AA@ 000000018005d470     libucrt:nlsdata.obj
 0002:00009478       ??_C@_17EGKACKIF@?$AAD?$AAe?$AAc?$AA?$AA@ 000000018005d478     libucrt:nlsdata.obj
 0002:00009480       ??_C@_1BA@EFMEIEBA@?$AAJ?$AAa?$AAn?$AAu?$AAa?$AAr?$AAy?$AA?$AA@ 000000018005d480     libucrt:nlsdata.obj
 0002:00009490       ??_C@_1BC@JGDDFFAM@?$AAF?$AAe?$AAb?$AAr?$AAu?$AAa?$AAr?$AAy?$AA?$AA@ 000000018005d490     libucrt:nlsdata.obj
 0002:000094a8       ??_C@_1M@IKEENEDF@?$AAM?$AAa?$AAr?$AAc?$AAh?$AA?$AA@ 000000018005d4a8     libucrt:nlsdata.obj
 0002:000094b8       ??_C@_1M@GJNLMHFD@?$AAA?$AAp?$AAr?$AAi?$AAl?$AA?$AA@ 000000018005d4b8     libucrt:nlsdata.obj
 0002:000094c8       ??_C@_19EPFLPGAP@?$AAJ?$AAu?$AAn?$AAe?$AA?$AA@ 000000018005d4c8     libucrt:nlsdata.obj
 0002:000094d8       ??_C@_19BIFMLPCD@?$AAJ?$AAu?$AAl?$AAy?$AA?$AA@ 000000018005d4d8     libucrt:nlsdata.obj
 0002:000094e8       ??_C@_1O@PAHLKOAC@?$AAA?$AAu?$AAg?$AAu?$AAs?$AAt?$AA?$AA@ 000000018005d4e8     libucrt:nlsdata.obj
 0002:000094f8       ??_C@_1BE@DKAAMBJL@?$AAS?$AAe?$AAp?$AAt?$AAe?$AAm?$AAb?$AAe?$AAr?$AA?$AA@ 000000018005d4f8     libucrt:nlsdata.obj
 0002:00009510       ??_C@_1BA@EPANDLNG@?$AAO?$AAc?$AAt?$AAo?$AAb?$AAe?$AAr?$AA?$AA@ 000000018005d510     libucrt:nlsdata.obj
 0002:00009520       ??_C@_1BC@BGLIFPF@?$AAN?$AAo?$AAv?$AAe?$AAm?$AAb?$AAe?$AAr?$AA?$AA@ 000000018005d520     libucrt:nlsdata.obj
 0002:00009538       ??_C@_1BC@FEMKIFH@?$AAD?$AAe?$AAc?$AAe?$AAm?$AAb?$AAe?$AAr?$AA?$AA@ 000000018005d538     libucrt:nlsdata.obj
 0002:0000954c       ??_C@_15ODEHAHHF@?$AAA?$AAM?$AA?$AA@ 000000018005d54c     libucrt:nlsdata.obj
 0002:00009554       ??_C@_15CLMNNGEL@?$AAP?$AAM?$AA?$AA@ 000000018005d554     libucrt:nlsdata.obj
 0002:00009560       ??_C@_1BC@IEBCMHCM@?$AAM?$AAM?$AA?1?$AAd?$AAd?$AA?1?$AAy?$AAy?$AA?$AA@ 000000018005d560     libucrt:nlsdata.obj
 0002:00009578       ??_C@_1CI@KNAKOEBC@?$AAd?$AAd?$AAd?$AAd?$AA?0?$AA?5?$AAM?$AAM?$AAM?$AAM?$AA?5?$AAd?$AAd?$AA?0?$AA?5?$AAy?$AAy?$AAy?$AAy?$AA?$AA@ 000000018005d578     libucrt:nlsdata.obj
 0002:000095a0       ??_C@_1BC@GDGBMEMK@?$AAH?$AAH?$AA?3?$AAm?$AAm?$AA?3?$AAs?$AAs?$AA?$AA@ 000000018005d5a0     libucrt:nlsdata.obj
 0002:000095c0       __lc_time_c                000000018005d5c0     libucrt:nlsdata.obj
 0002:00009a50       ??_C@_03KHJOGHMM@exp?$AA@  000000018005da50     libucrt:fpexcept.obj
 0002:00009a54       ??_C@_03JGHBODFD@pow?$AA@  000000018005da54     libucrt:fpexcept.obj
 0002:00009a58       ??_C@_03MGHMBJCF@log?$AA@  000000018005da58     libucrt:fpexcept.obj
 0002:00009a5c       ??_C@_05HGHHAHAP@log10?$AA@ 000000018005da5c     libucrt:fpexcept.obj
 0002:00009a64       ??_C@_04COOMCNPB@sinh?$AA@ 000000018005da64     libucrt:fpexcept.obj
 0002:00009a6c       ??_C@_04HPJJNFIM@cosh?$AA@ 000000018005da6c     libucrt:fpexcept.obj
 0002:00009a74       ??_C@_04FJHINJAO@tanh?$AA@ 000000018005da74     libucrt:fpexcept.obj
 0002:00009a7c       ??_C@_04FIHNOPOL@asin?$AA@ 000000018005da7c     libucrt:fpexcept.obj
 0002:00009a84       ??_C@_04PDIFKINK@acos?$AA@ 000000018005da84     libucrt:fpexcept.obj
 0002:00009a8c       ??_C@_04MLLJIGOK@atan?$AA@ 000000018005da8c     libucrt:fpexcept.obj
 0002:00009a94       ??_C@_05KNGEOGJB@atan2?$AA@ 000000018005da94     libucrt:fpexcept.obj
 0002:00009a9c       ??_C@_04EIAKFFMI@sqrt?$AA@ 000000018005da9c     libucrt:fpexcept.obj
 0002:00009aa4       ??_C@_03BLEJJJBH@sin?$AA@  000000018005daa4     libucrt:fpexcept.obj
 0002:00009aa8       ??_C@_03LALBNOCG@cos?$AA@  000000018005daa8     libucrt:fpexcept.obj
 0002:00009aac       ??_C@_03IIINPABG@tan?$AA@  000000018005daac     libucrt:fpexcept.obj
 0002:00009ab0       ??_C@_04GFPJNGEK@ceil?$AA@ 000000018005dab0     libucrt:fpexcept.obj
 0002:00009ab8       ??_C@_05PBJFFIGL@floor?$AA@ 000000018005dab8     libucrt:fpexcept.obj
 0002:00009ac0       ??_C@_04ODHECPBC@fabs?$AA@ 000000018005dac0     libucrt:fpexcept.obj
 0002:00009ac8       ??_C@_04EHEDPDJG@modf?$AA@ 000000018005dac8     libucrt:fpexcept.obj
 0002:00009ad0       ??_C@_05CEJMAHNP@ldexp?$AA@ 000000018005dad0     libucrt:fpexcept.obj
 0002:00009ad8       ??_C@_05KBKMEMPO@_cabs?$AA@ 000000018005dad8     libucrt:fpexcept.obj
 0002:00009ae0       ??_C@_06MEIMCGCF@_hypot?$AA@ 000000018005dae0     libucrt:fpexcept.obj
 0002:00009ae8       ??_C@_04KEPJIHGP@fmod?$AA@ 000000018005dae8     libucrt:fpexcept.obj
 0002:00009af0       ??_C@_05GKKHEGJL@frexp?$AA@ 000000018005daf0     libucrt:fpexcept.obj
 0002:00009af8       ??_C@_03MJLDFKDL@_y0?$AA@  000000018005daf8     libucrt:fpexcept.obj
 0002:00009afc       ??_C@_03NAKIGLHK@_y1?$AA@  000000018005dafc     libucrt:fpexcept.obj
 0002:00009b00       ??_C@_03ONILCKOB@_yn?$AA@  000000018005db00     libucrt:fpexcept.obj
 0002:00009b04       ??_C@_05JGDBENOH@_logb?$AA@ 000000018005db04     libucrt:fpexcept.obj
 0002:00009b10       ??_C@_0L@KDOEJCKC@_nextafter?$AA@ 000000018005db10     libucrt:fpexcept.obj
 0002:00009b20       _d_inf                     000000018005db20     libucrt:util.obj
 0002:00009b28       _d_max                     000000018005db28     libucrt:util.obj
 0002:00009bd0       ??_C@_1EA@JGEFHKEI@?$AAa?$AAp?$AAi?$AA?9?$AAm?$AAs?$AA?9?$AAw?$AAi?$AAn?$AA?9?$AAc?$AAo?$AAr?$AAe?$AA?9?$AAd?$AAa?$AAt?$AAe?$AAt?$AAi?$AAm?$AAe?$AA?9?$AAl?$AA1?$AA?9?$AA1?$AA?9?$AA1?$AA?$AA@ 000000018005dbd0     libucrt:winapi_thunks.obj
 0002:00009c10       ??_C@_1DI@IJCEHOCB@?$AAa?$AAp?$AAi?$AA?9?$AAm?$AAs?$AA?9?$AAw?$AAi?$AAn?$AA?9?$AAc?$AAo?$AAr?$AAe?$AA?9?$AAf?$AAi?$AAl?$AAe?$AA?9?$AAl?$AA1?$AA?9?$AA2?$AA?9?$AA2?$AA?$AA@ 000000018005dc10     libucrt:winapi_thunks.obj
 0002:00009c50       ??_C@_1EI@MPIAOHOC@?$AAa?$AAp?$AAi?$AA?9?$AAm?$AAs?$AA?9?$AAw?$AAi?$AAn?$AA?9?$AAc?$AAo?$AAr?$AAe?$AA?9?$AAl?$AAo?$AAc?$AAa?$AAl?$AAi?$AAz?$AAa?$AAt?$AAi?$AAo?$AAn?$AA?9?$AAl?$AA1?$AA?9@ 000000018005dc50     libucrt:winapi_thunks.obj
 0002:00009ca0       ??_C@_1FK@FPHCKFIE@?$AAa?$AAp?$AAi?$AA?9?$AAm?$AAs?$AA?9?$AAw?$AAi?$AAn?$AA?9?$AAc?$AAo?$AAr?$AAe?$AA?9?$AAl?$AAo?$AAc?$AAa?$AAl?$AAi?$AAz?$AAa?$AAt?$AAi?$AAo?$AAn?$AA?9?$AAo?$AAb?$AAs@ 000000018005dca0     libucrt:winapi_thunks.obj
 0002:00009d00       ??_C@_1EM@DILCGIIO@?$AAa?$AAp?$AAi?$AA?9?$AAm?$AAs?$AA?9?$AAw?$AAi?$AAn?$AA?9?$AAc?$AAo?$AAr?$AAe?$AA?9?$AAp?$AAr?$AAo?$AAc?$AAe?$AAs?$AAs?$AAt?$AAh?$AAr?$AAe?$AAa?$AAd?$AAs?$AA?9?$AAl@ 000000018005dd00     libucrt:winapi_thunks.obj
 0002:00009d50       ??_C@_1DM@LNCGDDPN@?$AAa?$AAp?$AAi?$AA?9?$AAm?$AAs?$AA?9?$AAw?$AAi?$AAn?$AA?9?$AAc?$AAo?$AAr?$AAe?$AA?9?$AAs?$AAt?$AAr?$AAi?$AAn?$AAg?$AA?9?$AAl?$AA1?$AA?9?$AA1?$AA?9?$AA0?$AA?$AA@ 000000018005dd50     libucrt:winapi_thunks.obj
 0002:00009d90       ??_C@_1DO@FPAPJEMD@?$AAa?$AAp?$AAi?$AA?9?$AAm?$AAs?$AA?9?$AAw?$AAi?$AAn?$AA?9?$AAc?$AAo?$AAr?$AAe?$AA?9?$AAs?$AAy?$AAs?$AAi?$AAn?$AAf?$AAo?$AA?9?$AAl?$AA1?$AA?9?$AA2?$AA?9?$AA1?$AA?$AA@ 000000018005dd90     libucrt:winapi_thunks.obj
 0002:00009dd0       ??_C@_1DK@NDHNAHIO@?$AAa?$AAp?$AAi?$AA?9?$AAm?$AAs?$AA?9?$AAw?$AAi?$AAn?$AA?9?$AAc?$AAo?$AAr?$AAe?$AA?9?$AAw?$AAi?$AAn?$AAr?$AAt?$AA?9?$AAl?$AA1?$AA?9?$AA1?$AA?9?$AA0?$AA?$AA@ 000000018005ddd0     libucrt:winapi_thunks.obj
 0002:00009e10       ??_C@_1DM@KGHDGBCM@?$AAa?$AAp?$AAi?$AA?9?$AAm?$AAs?$AA?9?$AAw?$AAi?$AAn?$AA?9?$AAc?$AAo?$AAr?$AAe?$AA?9?$AAx?$AAs?$AAt?$AAa?$AAt?$AAe?$AA?9?$AAl?$AA2?$AA?9?$AA1?$AA?9?$AA0?$AA?$AA@ 000000018005de10     libucrt:winapi_thunks.obj
 0002:00009e50       ??_C@_1EO@IJIOEFOH@?$AAa?$AAp?$AAi?$AA?9?$AAm?$AAs?$AA?9?$AAw?$AAi?$AAn?$AA?9?$AAr?$AAt?$AAc?$AAo?$AAr?$AAe?$AA?9?$AAn?$AAt?$AAu?$AAs?$AAe?$AAr?$AA?9?$AAw?$AAi?$AAn?$AAd?$AAo?$AAw?$AA?9@ 000000018005de50     libucrt:winapi_thunks.obj
 0002:00009ea0       ??_C@_1FG@HHGEKANL@?$AAa?$AAp?$AAi?$AA?9?$AAm?$AAs?$AA?9?$AAw?$AAi?$AAn?$AA?9?$AAs?$AAe?$AAc?$AAu?$AAr?$AAi?$AAt?$AAy?$AA?9?$AAs?$AAy?$AAs?$AAt?$AAe?$AAm?$AAf?$AAu?$AAn?$AAc?$AAt?$AAi@ 000000018005dea0     libucrt:winapi_thunks.obj
 0002:00009f00       ??_C@_1EG@DBIOJECG@?$AAe?$AAx?$AAt?$AA?9?$AAm?$AAs?$AA?9?$AAw?$AAi?$AAn?$AA?9?$AAn?$AAt?$AAu?$AAs?$AAe?$AAr?$AA?9?$AAd?$AAi?$AAa?$AAl?$AAo?$AAg?$AAb?$AAo?$AAx?$AA?9?$AAl?$AA1?$AA?9?$AA1@ 000000018005df00     libucrt:winapi_thunks.obj
 0002:00009f50       ??_C@_1EO@FIHMJCLF@?$AAe?$AAx?$AAt?$AA?9?$AAm?$AAs?$AA?9?$AAw?$AAi?$AAn?$AA?9?$AAn?$AAt?$AAu?$AAs?$AAe?$AAr?$AA?9?$AAw?$AAi?$AAn?$AAd?$AAo?$AAw?$AAs?$AAt?$AAa?$AAt?$AAi?$AAo?$AAn?$AA?9@ 000000018005df50     libucrt:winapi_thunks.obj
 0002:00009fa0       ??_C@_1BC@DNHGCMLG@?$AAa?$AAd?$AAv?$AAa?$AAp?$AAi?$AA3?$AA2?$AA?$AA@ 000000018005dfa0     libucrt:winapi_thunks.obj
 0002:00009fb8       ??_C@_1M@OAIMIKLP@?$AAn?$AAt?$AAd?$AAl?$AAl?$AA?$AA@ 000000018005dfb8     libucrt:winapi_thunks.obj
 0002:00009fd0       ??_C@_1EG@DPGNFKGC@?$AAa?$AAp?$AAi?$AA?9?$AAm?$AAs?$AA?9?$AAw?$AAi?$AAn?$AA?9?$AAa?$AAp?$AAp?$AAm?$AAo?$AAd?$AAe?$AAl?$AA?9?$AAr?$AAu?$AAn?$AAt?$AAi?$AAm?$AAe?$AA?9?$AAl?$AA1?$AA?9?$AA1@ 000000018005dfd0     libucrt:winapi_thunks.obj
 0002:0000a018       ??_C@_1O@BCCLBEOE@?$AAu?$AAs?$AAe?$AAr?$AA3?$AA2?$AA?$AA@ 000000018005e018     libucrt:winapi_thunks.obj
 0002:0000a030       ??_C@_0BA@FHFNEAED@AreFileApisANSI?$AA@ 000000018005e030     libucrt:winapi_thunks.obj
 0002:0000a050       ??_C@_0BE@LJANKFHF@EnumSystemLocalesEx?$AA@ 000000018005e050     libucrt:winapi_thunks.obj
 0002:0000a090       ??_C@_0BA@HNOPNCHB@GetActiveWindow?$AA@ 000000018005e090     libucrt:winapi_thunks.obj
 0002:0000a0a8       ??_C@_0BA@EPCJIIPD@GetDateFormatEx?$AA@ 000000018005e0a8     libucrt:winapi_thunks.obj
 0002:0000a0c0       ??_C@_0BD@HHGDFDBJ@GetLastActivePopup?$AA@ 000000018005e0c0     libucrt:winapi_thunks.obj
 0002:0000a0e8       ??_C@_0BI@DFKBFLJE@GetProcessWindowStation?$AA@ 000000018005e0e8     libucrt:winapi_thunks.obj
 0002:0000a108       ??_C@_0BA@CIJJKCJJ@GetTimeFormatEx?$AA@ 000000018005e108     libucrt:winapi_thunks.obj
 0002:0000a120       ??_C@_0BJ@PBCCBIPI@GetUserDefaultLocaleName?$AA@ 000000018005e120     libucrt:winapi_thunks.obj
 0002:0000a148       ??_C@_0BK@DEKFELLI@GetUserObjectInformationW?$AA@ 000000018005e148     libucrt:winapi_thunks.obj
 0002:0000a178       ??_C@_0BC@CELBKLLA@IsValidLocaleName?$AA@ 000000018005e178     libucrt:winapi_thunks.obj
 0002:0000a1a0       ??_C@_0BB@CDHDDLLP@LCIDToLocaleName?$AA@ 000000018005e1a0     libucrt:winapi_thunks.obj
 0002:0000a1c0       ??_C@_0BB@HBDEELFH@LocaleNameToLCID?$AA@ 000000018005e1c0     libucrt:winapi_thunks.obj
 0002:0000a1e0       ??_C@_0M@CHKKJDAI@MessageBoxA?$AA@ 000000018005e1e0     libucrt:winapi_thunks.obj
 0002:0000a1f8       ??_C@_0M@DLDCCGNP@MessageBoxW?$AA@ 000000018005e1f8     libucrt:winapi_thunks.obj
 0002:0000a208       ??_C@_0CF@OJOFEIGO@AppPolicyGetProcessTerminationMe@ 000000018005e208     libucrt:winapi_thunks.obj
 0002:0000a238       ??_C@_0CE@OICFMIKE@AppPolicyGetShowDeveloperDiagnos@ 000000018005e238     libucrt:winapi_thunks.obj
 0002:0000a260       ??_C@_0BL@ODDJNEDA@AppPolicyGetWindowingModel?$AA@ 000000018005e260     libucrt:winapi_thunks.obj
 0002:0000a280       __log_256_lead             000000018005e280     libucrt:log_256_lead_tail_table.obj
 0002:0000aa90       __log_256_tail             000000018005ea90     libucrt:log_256_lead_tail_table.obj
 0002:0000b2a0       __two_to_jby64_head_table  000000018005f2a0     libucrt:two_to_jby64_head_tail_table.obj
 0002:0000b4a0       __two_to_jby64_tail_table  000000018005f4a0     libucrt:two_to_jby64_head_tail_table.obj
 0002:0000b6a0       ??_C@_04MBFDLNIM@powf?$AA@ 000000018005f6a0     libucrt:pow_special.obj
 0002:0000b6b0       __two_to_jby64_table       000000018005f6b0     libucrt:two_to_jby64_table.obj
 0002:0000b8b0       __log_F_inv_qword          000000018005f8b0     libucrt:log_f_inv_qword_table.obj
 0002:0000c0e0       ??_C@_01GBGANLPD@0?$AA@    00000001800600e0     libucrt:cfout.obj
 0002:0000c0e4       ??_C@_05DNEBIAHO@1?$CDINF?$AA@ 00000001800600e4     libucrt:cfout.obj
 0002:0000c0ec       ??_C@_06IMKFLFPG@1?$CDQNAN?$AA@ 00000001800600ec     libucrt:cfout.obj
 0002:0000c0f4       ??_C@_06PGGFOGJG@1?$CDSNAN?$AA@ 00000001800600f4     libucrt:cfout.obj
 0002:0000c0fc       ??_C@_05PHHOCPM@1?$CDIND?$AA@ 00000001800600fc     libucrt:cfout.obj
 0002:0000c108       ??_C@_1BC@LLOKLNP@?$AAa?$AAm?$AAe?$AAr?$AAi?$AAc?$AAa?$AAn?$AA?$AA@ 0000000180060108     libucrt:get_qualified_locale.obj
 0002:0000c120       ??_C@_1CC@HEIGCDGG@?$AAa?$AAm?$AAe?$AAr?$AAi?$AAc?$AAa?$AAn?$AA?5?$AAe?$AAn?$AAg?$AAl?$AAi?$AAs?$AAh?$AA?$AA@ 0000000180060120     libucrt:get_qualified_locale.obj
 0002:0000c148       ??_C@_1CC@IHCNOMIN@?$AAa?$AAm?$AAe?$AAr?$AAi?$AAc?$AAa?$AAn?$AA?9?$AAe?$AAn?$AAg?$AAl?$AAi?$AAs?$AAh?$AA?$AA@ 0000000180060148     libucrt:get_qualified_locale.obj
 0002:0000c170       ??_C@_1BG@GKAGPCGG@?$AAa?$AAu?$AAs?$AAt?$AAr?$AAa?$AAl?$AAi?$AAa?$AAn?$AA?$AA@ 0000000180060170     libucrt:get_qualified_locale.obj
 0002:0000c188       ??_C@_1BA@GMENCENF@?$AAb?$AAe?$AAl?$AAg?$AAi?$AAa?$AAn?$AA?$AA@ 0000000180060188     libucrt:get_qualified_locale.obj
 0002:0000c198       ??_C@_1BC@PJMIIAAN@?$AAc?$AAa?$AAn?$AAa?$AAd?$AAi?$AAa?$AAn?$AA?$AA@ 0000000180060198     libucrt:get_qualified_locale.obj
 0002:0000c1b0       ??_C@_17NOIMNFBF@?$AAc?$AAh?$AAh?$AA?$AA@ 00000001800601b0     libucrt:get_qualified_locale.obj
 0002:0000c1b8       ??_C@_17GGDALCHA@?$AAc?$AAh?$AAi?$AA?$AA@ 00000001800601b8     libucrt:get_qualified_locale.obj
 0002:0000c1c0       ??_C@_1BA@NPNJKIBL@?$AAc?$AAh?$AAi?$AAn?$AAe?$AAs?$AAe?$AA?$AA@ 00000001800601c0     libucrt:get_qualified_locale.obj
 0002:0000c1d0       ??_C@_1CC@DINBAMMJ@?$AAc?$AAh?$AAi?$AAn?$AAe?$AAs?$AAe?$AA?9?$AAh?$AAo?$AAn?$AAg?$AAk?$AAo?$AAn?$AAg?$AA?$AA@ 00000001800601d0     libucrt:get_qualified_locale.obj
 0002:0000c1f8       ??_C@_1CG@IOBJPACO@?$AAc?$AAh?$AAi?$AAn?$AAe?$AAs?$AAe?$AA?9?$AAs?$AAi?$AAm?$AAp?$AAl?$AAi?$AAf?$AAi?$AAe?$AAd?$AA?$AA@ 00000001800601f8     libucrt:get_qualified_locale.obj
 0002:0000c220       ??_C@_1CE@GAJNDCKG@?$AAc?$AAh?$AAi?$AAn?$AAe?$AAs?$AAe?$AA?9?$AAs?$AAi?$AAn?$AAg?$AAa?$AAp?$AAo?$AAr?$AAe?$AA?$AA@ 0000000180060220     libucrt:get_qualified_locale.obj
 0002:0000c248       ??_C@_1CI@PAJPIOOD@?$AAc?$AAh?$AAi?$AAn?$AAe?$AAs?$AAe?$AA?9?$AAt?$AAr?$AAa?$AAd?$AAi?$AAt?$AAi?$AAo?$AAn?$AAa?$AAl?$AA?$AA@ 0000000180060248     libucrt:get_qualified_locale.obj
 0002:0000c270       ??_C@_1BM@NILJBMMD@?$AAd?$AAu?$AAt?$AAc?$AAh?$AA?9?$AAb?$AAe?$AAl?$AAg?$AAi?$AAa?$AAn?$AA?$AA@ 0000000180060270     libucrt:get_qualified_locale.obj
 0002:0000c290       ??_C@_1CC@OOJPJNEJ@?$AAe?$AAn?$AAg?$AAl?$AAi?$AAs?$AAh?$AA?9?$AAa?$AAm?$AAe?$AAr?$AAi?$AAc?$AAa?$AAn?$AA?$AA@ 0000000180060290     libucrt:get_qualified_locale.obj
 0002:0000c2b8       ??_C@_1BI@IOLFEEM@?$AAe?$AAn?$AAg?$AAl?$AAi?$AAs?$AAh?$AA?9?$AAa?$AAu?$AAs?$AA?$AA@ 00000001800602b8     libucrt:get_qualified_locale.obj
 0002:0000c2d0       ??_C@_1BO@HFFNLENJ@?$AAe?$AAn?$AAg?$AAl?$AAi?$AAs?$AAh?$AA?9?$AAb?$AAe?$AAl?$AAi?$AAz?$AAe?$AA?$AA@ 00000001800602d0     libucrt:get_qualified_locale.obj
 0002:0000c2f0       ??_C@_1BI@HAPKJMPO@?$AAe?$AAn?$AAg?$AAl?$AAi?$AAs?$AAh?$AA?9?$AAc?$AAa?$AAn?$AA?$AA@ 00000001800602f0     libucrt:get_qualified_locale.obj
 0002:0000c308       ??_C@_1CE@HLNDMIOJ@?$AAe?$AAn?$AAg?$AAl?$AAi?$AAs?$AAh?$AA?9?$AAc?$AAa?$AAr?$AAi?$AAb?$AAb?$AAe?$AAa?$AAn?$AA?$AA@ 0000000180060308     libucrt:get_qualified_locale.obj
 0002:0000c330       ??_C@_1BI@LDHJHHAC@?$AAe?$AAn?$AAg?$AAl?$AAi?$AAs?$AAh?$AA?9?$AAi?$AAr?$AAe?$AA?$AA@ 0000000180060330     libucrt:get_qualified_locale.obj
 0002:0000c348       ??_C@_1CA@NJMMCFOC@?$AAe?$AAn?$AAg?$AAl?$AAi?$AAs?$AAh?$AA?9?$AAj?$AAa?$AAm?$AAa?$AAi?$AAc?$AAa?$AA?$AA@ 0000000180060348     libucrt:get_qualified_locale.obj
 0002:0000c368       ??_C@_1BG@BHJEBBGG@?$AAe?$AAn?$AAg?$AAl?$AAi?$AAs?$AAh?$AA?9?$AAn?$AAz?$AA?$AA@ 0000000180060368     libucrt:get_qualified_locale.obj
 0002:0000c380       ??_C@_1CK@FGOEJJCO@?$AAe?$AAn?$AAg?$AAl?$AAi?$AAs?$AAh?$AA?9?$AAs?$AAo?$AAu?$AAt?$AAh?$AA?5?$AAa?$AAf?$AAr?$AAi?$AAc?$AAa?$AA?$AA@ 0000000180060380     libucrt:get_qualified_locale.obj
 0002:0000c3b0       ??_C@_1DE@PDBJPCJ@?$AAe?$AAn?$AAg?$AAl?$AAi?$AAs?$AAh?$AA?9?$AAt?$AAr?$AAi?$AAn?$AAi?$AAd?$AAa?$AAd?$AA?5?$AAy?$AA?5?$AAt?$AAo?$AAb?$AAa?$AAg?$AAo?$AA?$AA@ 00000001800603b0     libucrt:get_qualified_locale.obj
 0002:0000c3e8       ??_C@_1BG@JGCANDME@?$AAe?$AAn?$AAg?$AAl?$AAi?$AAs?$AAh?$AA?9?$AAu?$AAk?$AA?$AA@ 00000001800603e8     libucrt:get_qualified_locale.obj
 0002:0000c400       ??_C@_1BG@DINKMLE@?$AAe?$AAn?$AAg?$AAl?$AAi?$AAs?$AAh?$AA?9?$AAu?$AAs?$AA?$AA@ 0000000180060400     libucrt:get_qualified_locale.obj
 0002:0000c418       ??_C@_1BI@NMFDBHJE@?$AAe?$AAn?$AAg?$AAl?$AAi?$AAs?$AAh?$AA?9?$AAu?$AAs?$AAa?$AA?$AA@ 0000000180060418     libucrt:get_qualified_locale.obj
 0002:0000c430       ??_C@_1BO@OIHKJKII@?$AAf?$AAr?$AAe?$AAn?$AAc?$AAh?$AA?9?$AAb?$AAe?$AAl?$AAg?$AAi?$AAa?$AAn?$AA?$AA@ 0000000180060430     libucrt:get_qualified_locale.obj
 0002:0000c450       ??_C@_1CA@NKAELJKI@?$AAf?$AAr?$AAe?$AAn?$AAc?$AAh?$AA?9?$AAc?$AAa?$AAn?$AAa?$AAd?$AAi?$AAa?$AAn?$AA?$AA@ 0000000180060450     libucrt:get_qualified_locale.obj
 0002:0000c470       ??_C@_1CE@MGKCNLGN@?$AAf?$AAr?$AAe?$AAn?$AAc?$AAh?$AA?9?$AAl?$AAu?$AAx?$AAe?$AAm?$AAb?$AAo?$AAu?$AAr?$AAg?$AA?$AA@ 0000000180060470     libucrt:get_qualified_locale.obj
 0002:0000c498       ??_C@_1BK@CEGEAILM@?$AAf?$AAr?$AAe?$AAn?$AAc?$AAh?$AA?9?$AAs?$AAw?$AAi?$AAs?$AAs?$AA?$AA@ 0000000180060498     libucrt:get_qualified_locale.obj
 0002:0000c4b8       ??_C@_1CA@PAFKEOCC@?$AAg?$AAe?$AAr?$AAm?$AAa?$AAn?$AA?9?$AAa?$AAu?$AAs?$AAt?$AAr?$AAi?$AAa?$AAn?$AA?$AA@ 00000001800604b8     libucrt:get_qualified_locale.obj
 0002:0000c4d8       ??_C@_1CI@HCFHGOFD@?$AAg?$AAe?$AAr?$AAm?$AAa?$AAn?$AA?9?$AAl?$AAi?$AAc?$AAh?$AAt?$AAe?$AAn?$AAs?$AAt?$AAe?$AAi?$AAn?$AA?$AA@ 00000001800604d8     libucrt:get_qualified_locale.obj
 0002:0000c500       ??_C@_1CE@FEDDNPDG@?$AAg?$AAe?$AAr?$AAm?$AAa?$AAn?$AA?9?$AAl?$AAu?$AAx?$AAe?$AAm?$AAb?$AAo?$AAu?$AAr?$AAg?$AA?$AA@ 0000000180060500     libucrt:get_qualified_locale.obj
 0002:0000c528       ??_C@_1BK@LIMINNMN@?$AAg?$AAe?$AAr?$AAm?$AAa?$AAn?$AA?9?$AAs?$AAw?$AAi?$AAs?$AAs?$AA?$AA@ 0000000180060528     libucrt:get_qualified_locale.obj
 0002:0000c548       ??_C@_1BM@LGMDBEPD@?$AAi?$AAr?$AAi?$AAs?$AAh?$AA?9?$AAe?$AAn?$AAg?$AAl?$AAi?$AAs?$AAh?$AA?$AA@ 0000000180060548     libucrt:get_qualified_locale.obj
 0002:0000c568       ??_C@_1BM@NNCFBAEE@?$AAi?$AAt?$AAa?$AAl?$AAi?$AAa?$AAn?$AA?9?$AAs?$AAw?$AAi?$AAs?$AAs?$AA?$AA@ 0000000180060568     libucrt:get_qualified_locale.obj
 0002:0000c588       ??_C@_1BE@FEDJNPIB@?$AAn?$AAo?$AAr?$AAw?$AAe?$AAg?$AAi?$AAa?$AAn?$AA?$AA@ 0000000180060588     libucrt:get_qualified_locale.obj
 0002:0000c5a0       ??_C@_1CC@CILKDEIE@?$AAn?$AAo?$AAr?$AAw?$AAe?$AAg?$AAi?$AAa?$AAn?$AA?9?$AAb?$AAo?$AAk?$AAm?$AAa?$AAl?$AA?$AA@ 00000001800605a0     libucrt:get_qualified_locale.obj
 0002:0000c5c8       ??_C@_1CE@DHMMHEPL@?$AAn?$AAo?$AAr?$AAw?$AAe?$AAg?$AAi?$AAa?$AAn?$AA?9?$AAn?$AAy?$AAn?$AAo?$AAr?$AAs?$AAk?$AA?$AA@ 00000001800605c8     libucrt:get_qualified_locale.obj
 0002:0000c5f0       ??_C@_1CK@OPNMHECD@?$AAp?$AAo?$AAr?$AAt?$AAu?$AAg?$AAu?$AAe?$AAs?$AAe?$AA?9?$AAb?$AAr?$AAa?$AAz?$AAi?$AAl?$AAi?$AAa?$AAn?$AA?$AA@ 00000001800605f0     libucrt:get_qualified_locale.obj
 0002:0000c620       ??_C@_1CE@KEEHCDB@?$AAs?$AAp?$AAa?$AAn?$AAi?$AAs?$AAh?$AA?9?$AAa?$AAr?$AAg?$AAe?$AAn?$AAt?$AAi?$AAn?$AAa?$AA?$AA@ 0000000180060620     libucrt:get_qualified_locale.obj
 0002:0000c648       ??_C@_1CA@GIAOLHJD@?$AAs?$AAp?$AAa?$AAn?$AAi?$AAs?$AAh?$AA?9?$AAb?$AAo?$AAl?$AAi?$AAv?$AAi?$AAa?$AA?$AA@ 0000000180060648     libucrt:get_qualified_locale.obj
 0002:0000c668       ??_C@_1BM@OJNDFNPD@?$AAs?$AAp?$AAa?$AAn?$AAi?$AAs?$AAh?$AA?9?$AAc?$AAh?$AAi?$AAl?$AAe?$AA?$AA@ 0000000180060668     libucrt:get_qualified_locale.obj
 0002:0000c688       ??_C@_1CC@OCOLPALL@?$AAs?$AAp?$AAa?$AAn?$AAi?$AAs?$AAh?$AA?9?$AAc?$AAo?$AAl?$AAo?$AAm?$AAb?$AAi?$AAa?$AA?$AA@ 0000000180060688     libucrt:get_qualified_locale.obj
 0002:0000c6b0       ??_C@_1CG@BPOFMKBB@?$AAs?$AAp?$AAa?$AAn?$AAi?$AAs?$AAh?$AA?9?$AAc?$AAo?$AAs?$AAt?$AAa?$AA?5?$AAr?$AAi?$AAc?$AAa?$AA?$AA@ 00000001800606b0     libucrt:get_qualified_locale.obj
 0002:0000c6d8       ??_C@_1DG@IGOBAPBB@?$AAs?$AAp?$AAa?$AAn?$AAi?$AAs?$AAh?$AA?9?$AAd?$AAo?$AAm?$AAi?$AAn?$AAi?$AAc?$AAa?$AAn?$AA?5?$AAr?$AAe?$AAp?$AAu?$AAb?$AAl?$AAi?$AAc?$AA?$AA@ 00000001800606d8     libucrt:get_qualified_locale.obj
 0002:0000c710       ??_C@_1CA@JHAPGEGI@?$AAs?$AAp?$AAa?$AAn?$AAi?$AAs?$AAh?$AA?9?$AAe?$AAc?$AAu?$AAa?$AAd?$AAo?$AAr?$AA?$AA@ 0000000180060710     libucrt:get_qualified_locale.obj
 0002:0000c730       ??_C@_1CI@LAPALJPP@?$AAs?$AAp?$AAa?$AAn?$AAi?$AAs?$AAh?$AA?9?$AAe?$AAl?$AA?5?$AAs?$AAa?$AAl?$AAv?$AAa?$AAd?$AAo?$AAr?$AA?$AA@ 0000000180060730     libucrt:get_qualified_locale.obj
 0002:0000c758       ??_C@_1CE@PDGBOFOM@?$AAs?$AAp?$AAa?$AAn?$AAi?$AAs?$AAh?$AA?9?$AAg?$AAu?$AAa?$AAt?$AAe?$AAm?$AAa?$AAl?$AAa?$AA?$AA@ 0000000180060758     libucrt:get_qualified_locale.obj
 0002:0000c780       ??_C@_1CC@NBEBAODI@?$AAs?$AAp?$AAa?$AAn?$AAi?$AAs?$AAh?$AA?9?$AAh?$AAo?$AAn?$AAd?$AAu?$AAr?$AAa?$AAs?$AA?$AA@ 0000000180060780     libucrt:get_qualified_locale.obj
 0002:0000c7a8       ??_C@_1CA@LLKGHBMF@?$AAs?$AAp?$AAa?$AAn?$AAi?$AAs?$AAh?$AA?9?$AAm?$AAe?$AAx?$AAi?$AAc?$AAa?$AAn?$AA?$AA@ 00000001800607a8     libucrt:get_qualified_locale.obj
 0002:0000c7c8       ??_C@_1BO@LKNDOIGD@?$AAs?$AAp?$AAa?$AAn?$AAi?$AAs?$AAh?$AA?9?$AAm?$AAo?$AAd?$AAe?$AAr?$AAn?$AA?$AA@ 00000001800607c8     libucrt:get_qualified_locale.obj
 0002:0000c7e8       ??_C@_1CE@NMDMOEEB@?$AAs?$AAp?$AAa?$AAn?$AAi?$AAs?$AAh?$AA?9?$AAn?$AAi?$AAc?$AAa?$AAr?$AAa?$AAg?$AAu?$AAa?$AA?$AA@ 00000001800607e8     libucrt:get_qualified_locale.obj
 0002:0000c810       ??_C@_1BO@LLCBEJGB@?$AAs?$AAp?$AAa?$AAn?$AAi?$AAs?$AAh?$AA?9?$AAp?$AAa?$AAn?$AAa?$AAm?$AAa?$AA?$AA@ 0000000180060810     libucrt:get_qualified_locale.obj
 0002:0000c830       ??_C@_1CC@FKPGGIHO@?$AAs?$AAp?$AAa?$AAn?$AAi?$AAs?$AAh?$AA?9?$AAp?$AAa?$AAr?$AAa?$AAg?$AAu?$AAa?$AAy?$AA?$AA@ 0000000180060830     libucrt:get_qualified_locale.obj
 0002:0000c858       ??_C@_1BK@CDEIHOOP@?$AAs?$AAp?$AAa?$AAn?$AAi?$AAs?$AAh?$AA?9?$AAp?$AAe?$AAr?$AAu?$AA?$AA@ 0000000180060858     libucrt:get_qualified_locale.obj
 0002:0000c878       ??_C@_1CI@GAHAKKGP@?$AAs?$AAp?$AAa?$AAn?$AAi?$AAs?$AAh?$AA?9?$AAp?$AAu?$AAe?$AAr?$AAt?$AAo?$AA?5?$AAr?$AAi?$AAc?$AAo?$AA?$AA@ 0000000180060878     libucrt:get_qualified_locale.obj
 0002:0000c8a0       ??_C@_1CA@NKJBCAGP@?$AAs?$AAp?$AAa?$AAn?$AAi?$AAs?$AAh?$AA?9?$AAu?$AAr?$AAu?$AAg?$AAu?$AAa?$AAy?$AA?$AA@ 00000001800608a0     libucrt:get_qualified_locale.obj
 0002:0000c8c0       ??_C@_1CE@ODILCONM@?$AAs?$AAp?$AAa?$AAn?$AAi?$AAs?$AAh?$AA?9?$AAv?$AAe?$AAn?$AAe?$AAz?$AAu?$AAe?$AAl?$AAa?$AA?$AA@ 00000001800608c0     libucrt:get_qualified_locale.obj
 0002:0000c8e8       ??_C@_1CA@OBNMCGFO@?$AAs?$AAw?$AAe?$AAd?$AAi?$AAs?$AAh?$AA?9?$AAf?$AAi?$AAn?$AAl?$AAa?$AAn?$AAd?$AA?$AA@ 00000001800608e8     libucrt:get_qualified_locale.obj
 0002:0000c908       ??_C@_1M@PIPDDPPI@?$AAs?$AAw?$AAi?$AAs?$AAs?$AA?$AA@ 0000000180060908     libucrt:get_qualified_locale.obj
 0002:0000c914       ??_C@_15GMFIMNFM@?$AAu?$AAs?$AA?$AA@ 0000000180060914     libucrt:get_qualified_locale.obj
 0002:0000c920       ??_C@_17HAEBFAGL@?$AAu?$AAs?$AAa?$AA?$AA@ 0000000180060920     libucrt:get_qualified_locale.obj
 0002:0000c928       ??_C@_1BA@DPFJEPHB@?$AAa?$AAm?$AAe?$AAr?$AAi?$AAc?$AAa?$AA?$AA@ 0000000180060928     libucrt:get_qualified_locale.obj
 0002:0000c938       ??_C@_1BA@ELOGGFK@?$AAb?$AAr?$AAi?$AAt?$AAa?$AAi?$AAn?$AA?$AA@ 0000000180060938     libucrt:get_qualified_locale.obj
 0002:0000c948       ??_C@_1M@GHBGIGDA@?$AAc?$AAh?$AAi?$AAn?$AAa?$AA?$AA@ 0000000180060948     libucrt:get_qualified_locale.obj
 0002:0000c958       ??_C@_1M@NCHEJOPO@?$AAc?$AAz?$AAe?$AAc?$AAh?$AA?$AA@ 0000000180060958     libucrt:get_qualified_locale.obj
 0002:0000c968       ??_C@_1BA@BKPAPBLA@?$AAe?$AAn?$AAg?$AAl?$AAa?$AAn?$AAd?$AA?$AA@ 0000000180060968     libucrt:get_qualified_locale.obj
 0002:0000c978       ??_C@_1BM@HKBCKIPC@?$AAg?$AAr?$AAe?$AAa?$AAt?$AA?5?$AAb?$AAr?$AAi?$AAt?$AAa?$AAi?$AAn?$AA?$AA@ 0000000180060978     libucrt:get_qualified_locale.obj
 0002:0000c998       ??_C@_1BA@PPCHPGJB@?$AAh?$AAo?$AAl?$AAl?$AAa?$AAn?$AAd?$AA?$AA@ 0000000180060998     libucrt:get_qualified_locale.obj
 0002:0000c9a8       ??_C@_1BE@JBMPEGDG@?$AAh?$AAo?$AAn?$AAg?$AA?9?$AAk?$AAo?$AAn?$AAg?$AA?$AA@ 00000001800609a8     libucrt:get_qualified_locale.obj
 0002:0000c9c0       ??_C@_1BI@KOELBBPJ@?$AAn?$AAe?$AAw?$AA?9?$AAz?$AAe?$AAa?$AAl?$AAa?$AAn?$AAd?$AA?$AA@ 00000001800609c0     libucrt:get_qualified_locale.obj
 0002:0000c9d8       ??_C@_15HIEBHAIO@?$AAn?$AAz?$AA?$AA@ 00000001800609d8     libucrt:get_qualified_locale.obj
 0002:0000c9e0       ??_C@_1BC@CHBCPFPI@?$AAp?$AAr?$AA?5?$AAc?$AAh?$AAi?$AAn?$AAa?$AA?$AA@ 00000001800609e0     libucrt:get_qualified_locale.obj
 0002:0000c9f8       ??_C@_1BC@JAOIIFKD@?$AAp?$AAr?$AA?9?$AAc?$AAh?$AAi?$AAn?$AAa?$AA?$AA@ 00000001800609f8     libucrt:get_qualified_locale.obj
 0002:0000ca10       ??_C@_1BI@BEHPPHKC@?$AAp?$AAu?$AAe?$AAr?$AAt?$AAo?$AA?9?$AAr?$AAi?$AAc?$AAo?$AA?$AA@ 0000000180060a10     libucrt:get_qualified_locale.obj
 0002:0000ca28       ??_C@_1O@PAEOFKDI@?$AAs?$AAl?$AAo?$AAv?$AAa?$AAk?$AA?$AA@ 0000000180060a28     libucrt:get_qualified_locale.obj
 0002:0000ca38       ??_C@_1BK@FIHMCKAM@?$AAs?$AAo?$AAu?$AAt?$AAh?$AA?5?$AAa?$AAf?$AAr?$AAi?$AAc?$AAa?$AA?$AA@ 0000000180060a38     libucrt:get_qualified_locale.obj
 0002:0000ca58       ??_C@_1BI@NAEOODKB@?$AAs?$AAo?$AAu?$AAt?$AAh?$AA?5?$AAk?$AAo?$AAr?$AAe?$AAa?$AA?$AA@ 0000000180060a58     libucrt:get_qualified_locale.obj
 0002:0000ca70       ??_C@_1BK@FBDGGIFF@?$AAs?$AAo?$AAu?$AAt?$AAh?$AA?9?$AAa?$AAf?$AAr?$AAi?$AAc?$AAa?$AA?$AA@ 0000000180060a70     libucrt:get_qualified_locale.obj
 0002:0000ca90       ??_C@_1BI@GHLEJDPK@?$AAs?$AAo?$AAu?$AAt?$AAh?$AA?9?$AAk?$AAo?$AAr?$AAe?$AAa?$AA?$AA@ 0000000180060a90     libucrt:get_qualified_locale.obj
 0002:0000caa8       ??_C@_1CE@PLHLOMJF@?$AAt?$AAr?$AAi?$AAn?$AAi?$AAd?$AAa?$AAd?$AA?5?$AA?$CG?$AA?5?$AAt?$AAo?$AAb?$AAa?$AAg?$AAo?$AA?$AA@ 0000000180060aa8     libucrt:get_qualified_locale.obj
 0002:0000cad0       ??_C@_1BO@MODIMHHI@?$AAu?$AAn?$AAi?$AAt?$AAe?$AAd?$AA?9?$AAk?$AAi?$AAn?$AAg?$AAd?$AAo?$AAm?$AA?$AA@ 0000000180060ad0     libucrt:get_qualified_locale.obj
 0002:0000caf0       ??_C@_1BM@FFHJONBJ@?$AAu?$AAn?$AAi?$AAt?$AAe?$AAd?$AA?9?$AAs?$AAt?$AAa?$AAt?$AAe?$AAs?$AA?$AA@ 0000000180060af0     libucrt:get_qualified_locale.obj
 0002:0000cb10       __acrt_rg_language         0000000180060b10     libucrt:get_qualified_locale.obj
 0002:0000cf20       __acrt_rg_language_count   0000000180060f20     libucrt:get_qualified_locale.obj
 0002:0000cf30       __acrt_rg_country          0000000180060f30     libucrt:get_qualified_locale.obj
 0002:0000d0a0       __acrt_rg_country_count    00000001800610a0     libucrt:get_qualified_locale.obj
 0002:0000d0a8       ??_C@_17DNCLJFIF@?$AAA?$AAC?$AAP?$AA?$AA@ 00000001800610a8     libucrt:get_qualified_locale.obj
 0002:0000d0b0       ??_C@_17CIKBIHLH@?$AAO?$AAC?$AAP?$AA?$AA@ 00000001800610b0     libucrt:get_qualified_locale.obj
 0002:0000d0b8       __rglangidNotDefault       00000001800610b8     libucrt:getqloc_downlevel.obj
 0002:0000efb0       __log10_256_lead           0000000180062fb0     libucrt:log10_256_lead_tail_table.obj
 0002:0000f7c0       __log10_256_tail           00000001800637c0     libucrt:log10_256_lead_tail_table.obj
 0002:0000ffc8       ??_C@_1BA@BALFACEM@?$AAC?$AAO?$AAN?$AAO?$AAU?$AAT?$AA$?$AA?$AA@ 0000000180063fc8     libucrt:initcon.obj
 0002:0000ffd8       ??_C@_1BK@DBDEIDLH@?$AAK?$AAE?$AAR?$AAN?$AAE?$AAL?$AA3?$AA2?$AA?4?$AAD?$AAL?$AAL?$AA?$AA@ 0000000180063fd8     DelayImp:delayhlp.obj
 0002:0000fff8       __pfnDliFailureHook2       0000000180063ff8     DelayImp:delayhk1.obj
 0002:00010000       _load_config_used          0000000180064000     LIBCMT:loadcfg.obj
 0002:000100a0       ??_C@_0BC@BDKFLDHL@unknown?5exception?$AA@ 00000001800640a0     njsOracle.obj
 0002:000100b8       ??_C@_1DG@OKCGPKIB@?$AAp?$AAe?$AAr?$AAs?$AAi?$AAs?$AAt?$AAe?$AAn?$AAt?$AA?$CI?$AA?$CJ?$AA?4?$AAI?$AAs?$AAN?$AAe?$AAa?$AAr?$AAD?$AAe?$AAa?$AAt?$AAh?$AA?$CI?$AA?$CJ?$AA?$AA@ 00000001800640b8     njsOracle.obj
 0002:000100f0       ??_C@_1CO@EGNPJLKI@?$AAp?$AAe?$AAr?$AAs?$AAi?$AAs?$AAt?$AAe?$AAn?$AAt?$AA?$CI?$AA?$CJ?$AA?4?$AAI?$AAs?$AAE?$AAm?$AAp?$AAt?$AAy?$AA?$CI?$AA?$CJ?$AA?$AA@ 00000001800640f0     njsOracle.obj
 0002:00010120       ??_C@_1DA@FBGAEOIO@?$AA?$CB?$AAp?$AAe?$AAr?$AAs?$AAi?$AAs?$AAt?$AAe?$AAn?$AAt?$AA?$CI?$AA?$CJ?$AA?4?$AAI?$AAs?$AAE?$AAm?$AAp?$AAt?$AAy?$AA?$CI?$AA?$CJ?$AA?$AA@ 0000000180064120     njsOracle.obj
 0002:00010150       ??_C@_1CO@JCKLEFMA@?$AA?$CB?$AAp?$AAe?$AAr?$AAs?$AAi?$AAs?$AAt?$AAe?$AAn?$AAt?$AA?$CI?$AA?$CJ?$AA?4?$AAI?$AAs?$AAW?$AAe?$AAa?$AAk?$AA?$CI?$AA?$CJ?$AA?$AA@ 0000000180064150     njsOracle.obj
 0002:00010180       ??_C@_1BE@GMLLOIPJ@?$AAr?$AAe?$AAf?$AAs?$AA_?$AA?5?$AA?$DO?$AA?5?$AA0?$AA?$AA@ 0000000180064180     njsOracle.obj
 0002:00010198       ??_C@_1CC@GBFLAAPF@?$AAw?$AAr?$AAa?$AAp?$AA?9?$AA?$DO?$AAr?$AAe?$AAf?$AAs?$AA_?$AA?5?$AA?$DN?$AA?$DN?$AA?5?$AA0?$AA?$AA@ 0000000180064198     njsOracle.obj
 0002:000101c0       ??_C@_0BA@ELKIONDK@bad?5locale?5name?$AA@ 00000001800641c0     njsOracle.obj
 0002:000101d0       ??_C@_05LAPONLG@false?$AA@ 00000001800641d0     njsOracle.obj
 0002:000101d8       ??_C@_04LOAJBDKD@true?$AA@ 00000001800641d8     njsOracle.obj
 0002:000101dd       ??_C@_00CNPNBAHC@?$AA@     00000001800641dd     njsOracle.obj
 0002:000101e0       ??_C@_02LMMGGCAJ@?3?5?$AA@ 00000001800641e0     njsOracle.obj
 0002:000101e8       ??_C@_08LLGCOLLL@iostream?$AA@ 00000001800641e8     njsOracle.obj
 0002:000101f8       ??_C@_0BG@PADBLCHM@iostream?5stream?5error?$AA@ 00000001800641f8     njsOracle.obj
 0002:00010210       ??_C@_0BF@PHHKMMFD@ios_base?3?3badbit?5set?$AA@ 0000000180064210     njsOracle.obj
 0002:00010228       ??_C@_0BG@FMKFHCIL@ios_base?3?3failbit?5set?$AA@ 0000000180064228     njsOracle.obj
 0002:00010240       ??_C@_0BF@OOHOMBOF@ios_base?3?3eofbit?5set?$AA@ 0000000180064240     njsOracle.obj
 0002:00010258       ??_C@_0BA@JFNIOLAK@string?5too?5long?$AA@ 0000000180064258     njsOracle.obj
 0002:00010270       ??_C@_1KO@POHFECJK@?$AAc?$AA?3?$AA?2?$AAu?$AAs?$AAe?$AAr?$AAs?$AA?2?$AAs?$AAa?$AAs?$AAm?$AAb?$AA?2?$AAw?$AAe?$AAb?$AAs?$AAt?$AAo?$AAr?$AAm?$AAp?$AAr?$AAo?$AAj?$AAe?$AAc?$AAt?$AAs?$AA?2@ 0000000180064270     njsOracle.obj
 0002:00010320       ??_C@_1FK@CBGIJHDF@?$AAv?$AAa?$AAl?$AAu?$AAe?$AA?4?$AAs?$AAi?$AAz?$AAe?$AA?$CI?$AA?$CJ?$AA?5?$AA?$DM?$AA?$DN?$AA?5?$AAI?$AAN?$AAT?$AA_?$AAM?$AAA?$AAX?$AA?5?$AA?$CG?$AA?$CG?$AA?5?$AA?$CC?$AAs?$AAt?$AAr?$AAi@ 0000000180064320     njsOracle.obj
 0002:00010380       ??_C@_1JK@BAGAHGKJ@?$AAc?$AA?3?$AA?2?$AAu?$AAs?$AAe?$AAr?$AAs?$AA?2?$AAs?$AAa?$AAs?$AAm?$AAb?$AA?2?$AAw?$AAe?$AAb?$AAs?$AAt?$AAo?$AAr?$AAm?$AAp?$AAr?$AAo?$AAj?$AAe?$AAc?$AAt?$AAs?$AA?2@ 0000000180064380     njsOracle.obj
 0002:00010420       ??_C@_1EC@MGGLMBLC@?$AAo?$AAb?$AAj?$AAe?$AAc?$AAt?$AA?9?$AA?$DO?$AAI?$AAn?$AAt?$AAe?$AAr?$AAn?$AAa?$AAl?$AAF?$AAi?$AAe?$AAl?$AAd?$AAC?$AAo?$AAu?$AAn?$AAt?$AA?$CI?$AA?$CJ?$AA?5?$AA?$DO?$AA?5?$AA0@ 0000000180064420     njsOracle.obj
 0002:00010468       ??_C@_1DI@ELDBKNAK@?$AAw?$AAr?$AAa?$AAp?$AA?9?$AA?$DO?$AAh?$AAa?$AAn?$AAd?$AAl?$AAe?$AA_?$AA?4?$AAI?$AAs?$AAN?$AAe?$AAa?$AAr?$AAD?$AAe?$AAa?$AAt?$AAh?$AA?$CI?$AA?$CJ?$AA?$AA@ 0000000180064468     njsOracle.obj
 0002:000104a0       ??_C@_03MCPBMLDJ@?5?3?5?$AA@ 00000001800644a0     njsOracle.obj
 0002:000104a8       ??_C@_0O@HGNEKDAO@node?9oracledb?$AA@ 00000001800644a8     njsOracle.obj
 0002:000104b8       ??_C@_01LFCBOECM@?4?$AA@   00000001800644b8     njsOracle.obj
 0002:000104c0       ??_C@_08BNCGHMGL@Oracledb?$AA@ 00000001800644c0     njsOracle.obj
 0002:000104d0       ??_C@_0O@GICFJCLP@getConnection?$AA@ 00000001800644d0     njsOracle.obj
 0002:000104e0       ??_C@_0L@DEMMGFLI@createPool?$AA@ 00000001800644e0     njsOracle.obj
 0002:000104f0       ??_C@_07CJJOHIMA@poolMax?$AA@ 00000001800644f0     njsOracle.obj
 0002:000104f8       ??_C@_07DLBFJMKP@poolMin?$AA@ 00000001800644f8     njsOracle.obj
 0002:00010500       ??_C@_0O@CEEKNGK@poolIncrement?$AA@ 0000000180064500     njsOracle.obj
 0002:00010510       ??_C@_0M@KJCBBGHI@poolTimeout?$AA@ 0000000180064510     njsOracle.obj
 0002:00010520       ??_C@_0O@MCOBCHKC@stmtCacheSize?$AA@ 0000000180064520     njsOracle.obj
 0002:00010530       ??_C@_0N@GLFJDLAP@prefetchRows?$AA@ 0000000180064530     njsOracle.obj
 0002:00010540       ??_C@_0L@JJDMGLON@autoCommit?$AA@ 0000000180064540     njsOracle.obj
 0002:00010550       ??_C@_0BB@NCBAEODJ@extendedMetaData?$AA@ 0000000180064550     njsOracle.obj
 0002:00010568       ??_C@_07GPLJHCBP@maxRows?$AA@ 0000000180064568     njsOracle.obj
 0002:00010570       ??_C@_09DINGKNNM@outFormat?$AA@ 0000000180064570     njsOracle.obj
 0002:00010580       ??_C@_07CPCPJPKL@version?$AA@ 0000000180064580     njsOracle.obj
 0002:00010588       ??_C@_0BA@GPOPFKB@connectionClass?$AA@ 0000000180064588     njsOracle.obj
 0002:00010598       ??_C@_0N@DGEJBIKB@externalAuth?$AA@ 0000000180064598     njsOracle.obj
 0002:000105a8       ??_C@_0O@KBLMAIHK@fetchAsString?$AA@ 00000001800645a8     njsOracle.obj
 0002:000105b8       ??_C@_0O@FNKKGEEE@fetchAsBuffer?$AA@ 00000001800645b8     njsOracle.obj
 0002:000105c8       ??_C@_0BA@NCMFLOHA@lobPrefetchSize?$AA@ 00000001800645c8     njsOracle.obj
 0002:000105d8       ??_C@_0BE@HLPLDCII@oracleClientVersion?$AA@ 00000001800645d8     njsOracle.obj
 0002:000105f0       ??_C@_0BB@GCCMNFHO@poolPingInterval?$AA@ 00000001800645f0     njsOracle.obj
 0002:00010608       ??_C@_0BB@BBCNNNEI@pingPoolInterval?$AA@ 0000000180064608     njsOracle.obj
 0002:0001061c       ??_C@_04CCHAHKJA@user?$AA@ 000000018006461c     njsOracle.obj
 0002:00010628       ??_C@_08NLHBPEGP@password?$AA@ 0000000180064628     njsOracle.obj
 0002:00010638       ??_C@_0O@GBMHGACH@connectString?$AA@ 0000000180064638     njsOracle.obj
 0002:00010648       ??_C@_0O@KFEBOKGH@GetConnection?$AA@ 0000000180064648     njsOracle.obj
 0002:00010658       ??_C@_0O@BEGDKJHM@uv_queue_work?$AA@ 0000000180064658     njsOracle.obj
 0002:00010668       ??_C@_0L@LCFAOKGP@CreatePool?$AA@ 0000000180064668     njsOracle.obj
 0002:00010678       ??_C@_0BN@CPKFGOJG@?4?4?2src?2njs?2src?2njsOracle?4cpp?$AA@ 0000000180064678     njsOracle.obj
 0002:00010698       ??_C@_08JPNHPOMI@oracledb?$AA@ 0000000180064698     njsOracle.obj
 0002:000106a4       ??_C@_02BBAHNLBA@?$CFp?$AA@ 00000001800646a4     njsOracle.obj
 0002:000106a8       ??_C@_02MDKMJEGG@eE?$AA@   00000001800646a8     njsOracle.obj
 0002:000106ac       ??_C@_02OOPEBDOJ@pP?$AA@   00000001800646ac     njsOracle.obj
 0002:000106b0       ??_C@_0BI@CFPLBAOH@invalid?5string?5position?$AA@ 00000001800646b0     njsOracle.obj
 0002:000106c8       ??_C@_1CE@LNAGEONJ@?$AA?$CB?$AAo?$AAb?$AAj?$AAe?$AAc?$AAt?$AA?4?$AAI?$AAs?$AAE?$AAm?$AAp?$AAt?$AAy?$AA?$CI?$AA?$CJ?$AA?$AA@ 00000001800646c8     njsOracle.obj
 0002:000106f0       ??_7?$basic_streambuf@DU?$char_traits@D@std@@@std@@6B@ 00000001800646f0     njsOracle.obj
 0002:00010768       ??_7error_category@std@@6B@ 0000000180064768     njsOracle.obj
 0002:00010798       ??_7_Iostream_error_category@std@@6B@ 0000000180064798     njsOracle.obj
 0002:000107c8       ??_7ios_base@std@@6B@      00000001800647c8     njsOracle.obj
 0002:000107d0       ??_8?$basic_stringstream@DU?$char_traits@D@std@@V?$allocator@D@2@@std@@7B?$basic_ostream@DU?$char_traits@D@std@@@1@@ 00000001800647d0     njsOracle.obj
 0002:000107d8       ??_7?$basic_ios@DU?$char_traits@D@std@@@std@@6B@ 00000001800647d8     njsOracle.obj
 0002:000107e0       ??_7Oracledb@@6B@          00000001800647e0     njsOracle.obj
 0002:000107f8       ??_7?$basic_iostream@DU?$char_traits@D@std@@@std@@6B@ 00000001800647f8     njsOracle.obj
 0002:00010800       ??_7exception@stdext@@6B@  0000000180064800     njsOracle.obj
 0002:00010818       ??_7?$basic_stringbuf@DU?$char_traits@D@std@@V?$allocator@D@2@@std@@6B@ 0000000180064818     njsOracle.obj
 0002:00010890       ??_7?$basic_stringstream@DU?$char_traits@D@std@@V?$allocator@D@2@@std@@6B@ 0000000180064890     njsOracle.obj
 0002:00010898       ??_7?$basic_istream@DU?$char_traits@D@std@@@std@@6B@ 0000000180064898     njsOracle.obj
 0002:000108a0       ??_7ObjectWrap@Nan@@6B@    00000001800648a0     njsOracle.obj
 0002:000108b8       ??_8?$basic_stringstream@DU?$char_traits@D@std@@V?$allocator@D@2@@std@@7B?$basic_istream@DU?$char_traits@D@std@@@1@@ 00000001800648b8     njsOracle.obj
 0002:000108c0       ??_7?$basic_ostream@DU?$char_traits@D@std@@@std@@6B@ 00000001800648c0     njsOracle.obj
 0002:000108c8       ??_7failure@ios_base@std@@6B@ 00000001800648c8     njsOracle.obj
 0002:000108c8       ??_7system_error@std@@6B@  00000001800648c8     njsOracle.obj
 0002:000108c8       ??_7_System_error@std@@6B@ 00000001800648c8     njsOracle.obj
 0002:000108e0       ??_C@_04OIEIIIMK@Pool?$AA@ 00000001800648e0     njsPool.obj
 0002:000108e8       ??_C@_09DACGJFPO@terminate?$AA@ 00000001800648e8     njsPool.obj
 0002:000108f8       ??_C@_0BA@ILIHCEPM@connectionsOpen?$AA@ 00000001800648f8     njsPool.obj
 0002:00010908       ??_C@_0BB@EBFGKEIN@connectionsInUse?$AA@ 0000000180064908     njsPool.obj
 0002:00010920       ??_C@_09HPHLJGCO@Terminate?$AA@ 0000000180064920     njsPool.obj
 0002:00010930       ??_7Pool@@6B@              0000000180064930     njsPool.obj
 0002:00010950       ??_C@_1IC@CHNDFOJD@?$AAC?$AA?3?$AA?2?$AAU?$AAs?$AAe?$AAr?$AAs?$AA?2?$AAs?$AAa?$AAs?$AAm?$AAb?$AA?2?$AAW?$AAe?$AAb?$AAs?$AAt?$AAo?$AAr?$AAm?$AAP?$AAr?$AAo?$AAj?$AAe?$AAc?$AAt?$AAs?$AA?2@ 0000000180064950     njsConnection.obj
 0002:000109e0       ??_C@_1FM@LOELJOFK@?$AAs?$AAi?$AAz?$AAe?$AA?5?$AA?$DM?$AA?$DN?$AA?5?$AAi?$AAm?$AAp?$AA?3?$AA?3?$AAk?$AAM?$AAa?$AAx?$AAL?$AAe?$AAn?$AAg?$AAt?$AAh?$AA?5?$AA?$CG?$AA?$CG?$AA?5?$AA?$CC?$AAt?$AAo?$AAo?$AA?5@ 00000001800649e0     njsConnection.obj
 0002:00010a40       ??_C@_0L@PJJKMLL@Connection?$AA@ 0000000180064a40     njsConnection.obj
 0002:00010a50       ??_C@_07EMGJIMLB@execute?$AA@ 0000000180064a50     njsConnection.obj
 0002:00010a58       ??_C@_07EOGFDLKI@release?$AA@ 0000000180064a58     njsConnection.obj
 0002:00010a60       ??_C@_06IFNEBLAJ@commit?$AA@ 0000000180064a60     njsConnection.obj
 0002:00010a68       ??_C@_08FBLICIPL@rollback?$AA@ 0000000180064a68     njsConnection.obj
 0002:00010a74       ??_C@_05ELPHFHOI@break?$AA@ 0000000180064a74     njsConnection.obj
 0002:00010a80       ??_C@_09EJNJPPHA@createLob?$AA@ 0000000180064a80     njsConnection.obj
 0002:00010a90       ??_C@_08BMOJCBA@clientId?$AA@ 0000000180064a90     njsConnection.obj
 0002:00010a9c       ??_C@_06BIEEJMKO@module?$AA@ 0000000180064a9c     njsConnection.obj
 0002:00010aa4       ??_C@_06DDLLCOJG@action?$AA@ 0000000180064aa4     njsConnection.obj
 0002:00010ab0       ??_C@_0BE@FLLIGNEJ@oracleServerVersion?$AA@ 0000000180064ab0     njsConnection.obj
 0002:00010ac8       ??_C@_07LFBPOOOH@Execute?$AA@ 0000000180064ac8     njsConnection.obj
 0002:00010ad0       ??_C@_09MLCBPDGD@resultSet?$AA@ 0000000180064ad0     njsConnection.obj
 0002:00010ae0       ??_C@_09IALOBJIC@fetchInfo?$AA@ 0000000180064ae0     njsConnection.obj
 0002:00010aec       ??_C@_04GPMDFGEJ@type?$AA@ 0000000180064aec     njsConnection.obj
 0002:00010af4       ??_C@_01JLIPDDHJ@?3?$AA@   0000000180064af4     njsConnection.obj
 0002:00010af8       ??_C@_03DAPAKLGM@dir?$AA@  0000000180064af8     njsConnection.obj
 0002:00010b00       ??_C@_07GDPCCCPH@maxSize?$AA@ 0000000180064b00     njsConnection.obj
 0002:00010b08       ??_C@_03BALCFKBP@val?$AA@  0000000180064b08     njsConnection.obj
 0002:00010b10       ??_C@_0N@HGIHOFAC@maxArraySize?$AA@ 0000000180064b10     njsConnection.obj
 0002:00010b20       ??_C@_04GIHNHPGD@iLob?$AA@ 0000000180064b20     njsConnection.obj
 0002:00010b28       ??_C@_09KHNPILMG@DoDefines?$AA@ 0000000180064b28     njsConnection.obj
 0002:00010b38       ??_C@_08JNCPAJPH@default?3?$AA@ 0000000180064b38     njsConnection.obj
 0002:00010b44       ??_C@_04IMCGAIPI@rows?$AA@ 0000000180064b44     njsConnection.obj
 0002:00010b50       ??_C@_08CADMLJEK@outBinds?$AA@ 0000000180064b50     njsConnection.obj
 0002:00010b60       ??_C@_0N@KAPCDOFA@rowsAffected?$AA@ 0000000180064b60     njsConnection.obj
 0002:00010b70       ??_C@_08PGKJPPDP@metaData?$AA@ 0000000180064b70     njsConnection.obj
 0002:00010b7c       ??_C@_04MEMAJGDJ@name?$AA@ 0000000180064b7c     njsConnection.obj
 0002:00010b88       ??_C@_09DHEEBCNP@fetchType?$AA@ 0000000180064b88     njsConnection.obj
 0002:00010b94       ??_C@_06MPIJJHIJ@dbType?$AA@ 0000000180064b94     njsConnection.obj
 0002:00010ba0       ??_C@_08OABDNNOP@byteSize?$AA@ 0000000180064ba0     njsConnection.obj
 0002:00010bb0       ??_C@_09HJGOLHNF@precision?$AA@ 0000000180064bb0     njsConnection.obj
 0002:00010bbc       ??_C@_05MHMEBBGO@scale?$AA@ 0000000180064bbc     njsConnection.obj
 0002:00010bc8       ??_C@_08DGPNALPA@nullable?$AA@ 0000000180064bc8     njsConnection.obj
 0002:00010bd8       ??_C@_07LHBDFJPO@Release?$AA@ 0000000180064bd8     njsConnection.obj
 0002:00010be0       ??_C@_06EKGJCCJF@Commit?$AA@ 0000000180064be0     njsConnection.obj
 0002:00010be8       ??_C@_08NDEJKKFI@Rollback?$AA@ 0000000180064be8     njsConnection.obj
 0002:00010bf4       ??_C@_05EMFLFCNO@Break?$AA@ 0000000180064bf4     njsConnection.obj
 0002:00010c00       ??_C@_09GIEPMKA@CreateLob?$AA@ 0000000180064c00     njsConnection.obj
 0002:00010c0c       ??_C@_06GPFDNHLC@newLob?$AA@ 0000000180064c0c     njsConnection.obj
 0002:00010c18       ??_C@_0BD@OLBABOEK@vector?$DMT?$DO?5too?5long?$AA@ 0000000180064c18     njsConnection.obj
 0002:00010c30       ??_7Connection@@6B@        0000000180064c30     njsConnection.obj
 0002:00010c48       ??_C@_09IEHMPALD@ResultSet?$AA@ 0000000180064c48     njsResultSet.obj
 0002:00010c54       ??_C@_05LBOHBHFK@close?$AA@ 0000000180064c54     njsResultSet.obj
 0002:00010c5c       ??_C@_06DKBICOAJ@getRow?$AA@ 0000000180064c5c     njsResultSet.obj
 0002:00010c68       ??_C@_07HNPEIKLP@getRows?$AA@ 0000000180064c68     njsResultSet.obj
 0002:00010c70       ??_C@_0O@BENJIPMF@GetRowsCommon?$AA@ 0000000180064c70     njsResultSet.obj
 0002:00010c80       ??_C@_0P@CLHDOECI@ResultSetClose?$AA@ 0000000180064c80     njsResultSet.obj
 0002:00010c90       ??_7ResultSet@@6B@         0000000180064c90     njsResultSet.obj
 0002:00010ca8       ??_C@_0BB@EBPPLLMA@NJS?9000?3?5success?$AA@ 0000000180064ca8     njsMessages.obj
 0002:00010cc0       ??_C@_0CN@EAPPLFIE@NJS?9001?3?5expected?5callback?5as?5la@ 0000000180064cc0     njsMessages.obj
 0002:00010cf0       ??_C@_0BG@CPODOMNC@NJS?9002?3?5invalid?5pool?$AA@ 0000000180064cf0     njsMessages.obj
 0002:00010d08       ??_C@_0BM@JFAMIHMB@NJS?9003?3?5invalid?5connection?$AA@ 0000000180064d08     njsMessages.obj
 0002:00010d28       ??_C@_0CH@LDFPEIAC@NJS?9004?3?5invalid?5value?5for?5prope@ 0000000180064d28     njsMessages.obj
 0002:00010d50       ??_C@_0CI@LJKIPLLG@NJS?9005?3?5invalid?5value?5for?5param@ 0000000180064d50     njsMessages.obj
 0002:00010d78       ??_C@_0CH@LNEBGLBI@NJS?9006?3?5invalid?5type?5for?5parame@ 0000000180064d78     njsMessages.obj
 0002:00010da0       ??_C@_0DA@LLNCMIBF@NJS?9007?3?5invalid?5value?5for?5?$CC?$CFs?$CC?5@ 0000000180064da0     njsMessages.obj
 0002:00010dd0       ??_C@_0CP@IGIOFNIJ@NJS?9008?3?5invalid?5type?5for?5?$CC?$CFs?$CC?5i@ 0000000180064dd0     njsMessages.obj
 0002:00010e00       ??_C@_0CG@NEDBOLL@NJS?9009?3?5invalid?5number?5of?5param@ 0000000180064e00     njsMessages.obj
 0002:00010e28       ??_C@_0CO@NPMIEIEG@NJS?9010?3?5unsupported?5data?5type?5i@ 0000000180064e28     njsMessages.obj
 0002:00010e60       ??_C@_0EC@NNFBKLIL@NJS?9011?3?5encountered?5bind?5value?5@ 0000000180064e60     njsMessages.obj
 0002:00010ea8       ??_C@_0DM@ODFBBPME@NJS?9012?3?5encountered?5invalid?5bin@ 0000000180064ea8     njsMessages.obj
 0002:00010ee8       ??_C@_0CA@BACDJBHC@NJS?9013?3?5invalid?5bind?5direction?$AA@ 0000000180064ee8     njsMessages.obj
 0002:00010f08       ??_C@_0CE@JHOFBEHB@NJS?9014?3?5?$CFs?5is?5a?5read?9only?5prope@ 0000000180064f08     njsMessages.obj
 0002:00010f30       ??_C@_0CP@JOOECMDP@NJS?9015?3?5type?5was?5not?5specified?5@ 0000000180064f30     njsMessages.obj
 0002:00010f60       ??_C@_0CL@LPGLEDEI@NJS?9016?3?5buffer?5is?5too?5small?5for@ 0000000180064f60     njsMessages.obj
 0002:00010f90       ??_C@_0DM@BJIOPMLG@NJS?9017?3?5concurrent?5operations?5o@ 0000000180064f90     njsMessages.obj
 0002:00010fd0       ??_C@_0BL@KIHNNALH@NJS?9018?3?5invalid?5ResultSet?$AA@ 0000000180064fd0     njsMessages.obj
 0002:00010ff0       ??_C@_0DP@HMGLKLNL@NJS?9019?3?5ResultSet?5cannot?5be?5ret@ 0000000180064ff0     njsMessages.obj
 0002:00011030       ??_C@_0DN@GENKDPOG@NJS?9020?3?5empty?5array?5was?5specifi@ 0000000180065030     njsMessages.obj
 0002:00011070       ??_C@_0CP@EDPFAMJK@NJS?9021?3?5invalid?5type?5for?5conver@ 0000000180065070     njsMessages.obj
 0002:000110a0       ??_C@_0BF@EAGHGEHI@NJS?9022?3?5invalid?5Lob?$AA@ 00000001800650a0     njsMessages.obj
 0002:000110b8       ??_C@_0DI@FLAMFHCO@NJS?9023?3?5concurrent?5operations?5o@ 00000001800650b8     njsMessages.obj
 0002:000110f0       ??_C@_0CC@HFOJMIAK@NJS?9024?3?5memory?5allocation?5faile@ 00000001800650f0     njsMessages.obj
 0002:00011118       ??_C@_0DI@IOFJHOEH@NJS?9025?3?5overflow?5when?5calculati@ 0000000180065118     njsMessages.obj
 0002:00011150       ??_C@_0CL@CJKMEINN@NJS?9026?3?5maxRows?5must?5be?5greater@ 0000000180065150     njsMessages.obj
 0002:00011180       ??_C@_0CG@GKLPAPFN@NJS?9027?3?5unexpected?5SQL?5parsing?5@ 0000000180065180     njsMessages.obj
 0002:000111b0       ??_C@_0EK@HKOEANNA@NJS?9028?3?5RAW?5database?5type?5is?5no@ 00000001800651b0     njsMessages.obj
 0002:00011200       ??_C@_0CI@GNLLBCJN@NJS?9029?3?5invalid?5object?5from?5Jav@ 0000000180065200     njsMessages.obj
 0002:00011230       ??_C@_0EO@LBKHOOCH@NJS?9030?3?5connection?5cannot?5be?5re@ 0000000180065230     njsMessages.obj
 0002:00011280       ??_C@_0FE@IIHCGNKK@NJS?9031?3?5connection?5cannot?5be?5re@ 0000000180065280     njsMessages.obj
 0002:000112e0       ??_C@_0EO@IIBEDJAF@NJS?9032?3?5connection?5cannot?5be?5re@ 00000001800652e0     njsMessages.obj
 0002:00011330       ??_C@_0CO@BBIFBNCF@NJS?9033?3?5an?5internal?5error?5occur@ 0000000180065330     njsMessages.obj
 0002:00011360       ??_C@_0DB@LPMKGDAI@NJS?9034?3?5data?5type?5is?5unsupporte@ 0000000180065360     njsMessages.obj
 0002:00011398       ??_C@_0DI@GIABIGIA@NJS?9035?3?5maxArraySize?5is?5require@ 0000000180065398     njsMessages.obj
 0002:000113d0       ??_C@_0DK@CJKKNDFP@NJS?9036?3?5given?5array?5is?5of?5size?5@ 00000001800653d0     njsMessages.obj
 0002:00011410       ??_C@_0DL@OEKBIKCP@NJS?9037?3?5invalid?5data?5type?5at?5ar@ 0000000180065410     njsMessages.obj
 0002:00011450       ??_C@_0DI@IPDIHFKI@NJS?9038?3?5maxArraySize?5value?5shou@ 0000000180065450     njsMessages.obj
 0002:00011488       ??_C@_0DA@MGPCJFHJ@NJS?9039?3?5empty?5array?5is?5not?5allo@ 0000000180065488     njsMessages.obj
 0002:000114b8       ??_C@_0CE@LNNNGBGB@NJS?9040?3?5connection?5request?5time@ 00000001800654b8     njsMessages.obj
 0002:000114e0       ??_C@_0EI@HKOKPOIO@NJS?9041?3?5cannot?5convert?5ResultSe@ 00000001800654e0     njsMessages.obj
 0002:00011530       ??_C@_0EJ@EGFNABEI@NJS?9042?3?5cannot?5invoke?5ResultSet@ 0000000180065530     njsMessages.obj
 0002:00011580       ??_C@_0DE@NMIFCHOP@NJS?9043?3?5ResultSet?5already?5conve@ 0000000180065580     njsMessages.obj
 0002:000115b8       ??_C@_0DL@HIIGKHG@NJS?9044?3?5named?5JSON?5object?5is?5no@ 00000001800655b8     njsMessages.obj
 0002:000115f8       ??_C@_0DA@OIEKOIC@NJS?9045?3?5cannot?5load?5the?5oracled@ 00000001800655f8     njsMessages.obj
 0002:00011630       ??_C@_0EF@ICDLGKFG@NJS?9046?3?5pool?5alias?5?$CC?$CFs?$CC?5already@ 0000000180065630     njsMessages.obj
 0002:00011680       ??_C@_0EA@DLMJKHLN@NJS?9047?3?5pool?5alias?5?$CC?$CFs?$CC?5not?5fou@ 0000000180065680     njsMessages.obj
 0002:000116c0       ??_C@_0FA@FJJJFLHM@NJS?9048?3?5operation?5not?5permitted@ 00000001800656c0     njsMessages.obj
 0002:00011710       ??_C@_0EB@NEBCGMKM@NJS?9049?3?5Temporary?5LOBs?5were?5ope@ 0000000180065710     njsMessages.obj
 0002:00011758       ??_C@_0CG@LOIBHGAO@NJS?9050?3?5data?5must?5be?5shorter?5th@ 0000000180065758     njsMessages.obj
 0002:00011780       ??_C@_0CD@OHMJLAHD@NJS?9051?3?5?$CC?$CFs?$CC?5must?5be?5less?5than?5@ 0000000180065780     njsMessages.obj
 0002:000117b0       ??_C@_0EC@NMPEHBDL@NJS?9052?3?5invalid?5data?5type?5at?5ar@ 00000001800657b0     njsMessages.obj
 0002:000119a8       __pfnDliNotifyHook2        00000001800659a8     win_delay_load_hook.obj
 0002:00011a00       ??_C@_04KJLMFAGH@ILob?$AA@ 0000000180065a00     njsIntLob.obj
 0002:00011a08       ??_C@_04POLDLDMI@read?$AA@ 0000000180065a08     njsIntLob.obj
 0002:00011a10       ??_C@_05NGFEDHGN@write?$AA@ 0000000180065a10     njsIntLob.obj
 0002:00011a18       ??_C@_09OEGFCDGF@chunkSize?$AA@ 0000000180065a18     njsIntLob.obj
 0002:00011a24       ??_C@_06IJDLPEM@length?$AA@ 0000000180065a24     njsIntLob.obj
 0002:00011a30       ??_C@_09BIOBDMFG@pieceSize?$AA@ 0000000180065a30     njsIntLob.obj
 0002:00011a3c       ??_C@_06KLHHMIGM@offset?$AA@ 0000000180065a3c     njsIntLob.obj
 0002:00011a48       ??_C@_0N@PFFDGBBL@autoCloseLob?$AA@ 0000000180065a48     njsIntLob.obj
 0002:00011a58       ??_C@_05HDPIMK@valid?$AA@  0000000180065a58     njsIntLob.obj
 0002:00011a60       ??_C@_08MMMELIKJ@LobClose?$AA@ 0000000180065a60     njsIntLob.obj
 0002:00011a70       ??_C@_07NKICPBEH@LobRead?$AA@ 0000000180065a70     njsIntLob.obj
 0002:00011a78       ??_C@_08KLHHJIJO@LobWrite?$AA@ 0000000180065a78     njsIntLob.obj
 0002:00011a88       ??_7ILob@@6B@              0000000180065a88     njsIntLob.obj
 0002:00011aa0       ??_7Env@dpi@@6B@           0000000180065aa0     dpiEnv.obj
 0002:00011b50       ??_7EnvImpl@@6B@           0000000180065b50     dpiEnvImpl.obj
 0002:00011c28       ??_7ExceptionImpl@@6B@     0000000180065c28     dpiEnvImpl.obj
 0002:00011c50       ??_7Exception@dpi@@6B@     0000000180065c50     dpiEnvImpl.obj
 0002:00011c78       ??_C@_07CIFAGBMG@unknown?$AA@ 0000000180065c78     dpiExceptionImpl.obj
 0002:00011c80       ??_C@_0N@FKKFHCIB@not?5an?5error?$AA@ 0000000180065c80     dpiExceptionImpl.obj
 0002:00011c90       ??_C@_0P@LPIEGNHB@internal?5error?$AA@ 0000000180065c90     dpiExceptionImpl.obj
 0002:00011ca0       ??_C@_0CA@EGKFLPDP@could?5not?5get?5OCI?5error?5message?$AA@ 0000000180065ca0     dpiExceptionImpl.obj
 0002:00011cc0       ??_C@_0CC@DONOAHM@no?5OCI?5environment?5handle?5create@ 0000000180065cc0     dpiExceptionImpl.obj
 0002:00011ce8       ??_C@_0CL@NBAEMACC@invalid?5state?5while?5working?5with@ 0000000180065ce8     dpiExceptionImpl.obj
 0002:00011d18       ??_C@_0DB@DLEOEFBD@uninitialized?5state?5while?5workin@ 0000000180065d18     dpiExceptionImpl.obj
 0002:00011d50       ??_C@_0EH@IBENPCCD@user?5and?5password?5should?5not?5be?5@ 0000000180065d50     dpiExceptionImpl.obj
 0002:00011d98       ??_C@_0CB@DEGMBPIK@invalid?5OCI?5handle?5or?5descriptor@ 0000000180065d98     dpiExceptionImpl.obj
 0002:00011dc0       ??_C@_0BJ@FDBIHNP@memory?5allocation?5failed?$AA@ 0000000180065dc0     dpiExceptionImpl.obj
 0002:00011de0       ??_C@_0BG@COLCDFLN@unexpected?5NULL?5value?$AA@ 0000000180065de0     dpiExceptionImpl.obj
 0002:00011df8       ??_C@_03IHMKDFHF@DPI?$AA@  0000000180065df8     dpiExceptionImpl.obj
 0002:00011dfc       ??_C@_01JOAMLHOP@?9?$AA@   0000000180065dfc     dpiExceptionImpl.obj
 0002:00011e00       ??_C@_0M@LMACPLJG@TIME_2_PING?$AA@ 0000000180065e00     dpiConnImpl.obj
 0002:00011e10       ??_7Conn@dpi@@6B@          0000000180065e10     dpiConnImpl.obj
 0002:00011eb8       ??_7ConnImpl@@6B@          0000000180065eb8     dpiConnImpl.obj
 0002:00011f68       ??_C@_06GOMJDJGK@?$CL00?300?$AA@ 0000000180065f68     dpiDateTimeArrayImpl.obj
 0002:00011f70       ??_7DateTimeArrayImpl@dpi@@6B@ 0000000180065f70     dpiDateTimeArrayImpl.obj
 0002:00011f98       ??_7DateTimeArray@dpi@@6B@ 0000000180065f98     dpiDateTimeArrayImpl.obj
 0002:00011fc0       ??_7SPool@dpi@@6B@         0000000180065fc0     dpiPoolImpl.obj
 0002:00011ff0       ??_7PoolImpl@@6B@          0000000180065ff0     dpiPoolImpl.obj
 0002:00012038       ??_7Stmt@dpi@@6B@          0000000180066038     dpiStmtImpl.obj
 0002:000120b8       ??_7StmtImpl@@6B@          00000001800660b8     dpiStmtImpl.obj
 0002:00012138       ??_C@_03JLJGOMBC@ORA?$AA@  0000000180066138     dpiUtils.obj
 0002:00012140       ??_C@_08HCOMDCCD@iojs?4exe?$AA@ 0000000180066140     win_delay_load_hook.obj
 0002:00012150       ??_C@_08JDDNMFDB@node?4exe?$AA@ 0000000180066150     win_delay_load_hook.obj
 0002:00012ed0       __real@3ff0000000000000    0000000180066ed0     njsIntLob.obj
 0002:00012ed8       __real@408f400000000000    0000000180066ed8     dpiDateTimeArrayImpl.obj
 0002:00012ee0       __real@40ed4c0000000000    0000000180066ee0     dpiDateTimeArrayImpl.obj
 0002:00012ee8       __real@412e848000000000    0000000180066ee8     dpiDateTimeArrayImpl.obj
 0002:00012ef0       __real@414b774000000000    0000000180066ef0     dpiDateTimeArrayImpl.obj
 0002:00012ef8       __real@4194997000000000    0000000180066ef8     dpiDateTimeArrayImpl.obj
 0002:00012f00       __real@4202a05f20000000    0000000180066f00     njsOracle.obj
 0002:00012f08       __real@43e0000000000000    0000000180066f08     njsIntLob.obj
 0002:00012f10       __real@43f0000000000000    0000000180066f10     njsIntLob.obj
 0002:00012f20       __xmm@7fffffffffffffff7fffffffffffffff 0000000180066f20     njsOracle.obj
 0002:000147c8       _tls_used                  00000001800687c8     LIBCMT:tlssup.obj
 0002:000147f0       ??_R4_Facet_base@std@@6B@  00000001800687f0     libcpmt:locale0.obj
 0002:00014818       ??_R3_Facet_base@std@@8    0000000180068818     libcpmt:locale0.obj
 0002:00014830       ??_R2_Facet_base@std@@8    0000000180068830     libcpmt:locale0.obj
 0002:00014840       ??_R1A@?0A@EA@_Facet_base@std@@8 0000000180068840     libcpmt:locale0.obj
 0002:00014868       ??_R4_Locimp@locale@std@@6B@ 0000000180068868     libcpmt:locale0.obj
 0002:00014890       ??_R3_Locimp@locale@std@@8 0000000180068890     libcpmt:locale0.obj
 0002:000148a8       ??_R2_Locimp@locale@std@@8 00000001800688a8     libcpmt:locale0.obj
 0002:000148d0       ??_R1A@?0A@EA@_Locimp@locale@std@@8 00000001800688d0     libcpmt:locale0.obj
 0002:000148f8       ??_R1A@?0A@EA@facet@locale@std@@8 00000001800688f8     libcpmt:locale0.obj
 0002:00014920       ??_R3facet@locale@std@@8   0000000180068920     libcpmt:locale0.obj
 0002:00014938       ??_R2facet@locale@std@@8   0000000180068938     libcpmt:locale0.obj
 0002:00014958       ??_R17?0A@EA@_Crt_new_delete@std@@8 0000000180068958     libcpmt:locale0.obj
 0002:00014980       ??_R3_Crt_new_delete@std@@8 0000000180068980     libcpmt:locale0.obj
 0002:00014998       ??_R2_Crt_new_delete@std@@8 0000000180068998     libcpmt:locale0.obj
 0002:000149a8       ??_R1A@?0A@EA@_Crt_new_delete@std@@8 00000001800689a8     libcpmt:locale0.obj
 0002:000149d0       ??_R4exception@std@@6B@    00000001800689d0     libcpmt:xthrow.obj
 0002:000149f8       ??_R3exception@std@@8      00000001800689f8     libcpmt:xthrow.obj
 0002:00014a10       ??_R2exception@std@@8      0000000180068a10     libcpmt:xthrow.obj
 0002:00014a20       ??_R1A@?0A@EA@exception@std@@8 0000000180068a20     libcpmt:xthrow.obj
 0002:00014a48       ??_R4bad_alloc@std@@6B@    0000000180068a48     libcpmt:xthrow.obj
 0002:00014a70       ??_R3bad_alloc@std@@8      0000000180068a70     libcpmt:xthrow.obj
 0002:00014a88       ??_R2bad_alloc@std@@8      0000000180068a88     libcpmt:xthrow.obj
 0002:00014aa0       ??_R1A@?0A@EA@bad_alloc@std@@8 0000000180068aa0     libcpmt:xthrow.obj
 0002:00014ac8       ??_R4logic_error@std@@6B@  0000000180068ac8     libcpmt:xthrow.obj
 0002:00014af0       ??_R3logic_error@std@@8    0000000180068af0     libcpmt:xthrow.obj
 0002:00014b08       ??_R2logic_error@std@@8    0000000180068b08     libcpmt:xthrow.obj
 0002:00014b20       ??_R1A@?0A@EA@logic_error@std@@8 0000000180068b20     libcpmt:xthrow.obj
 0002:00014b48       ??_R4length_error@std@@6B@ 0000000180068b48     libcpmt:xthrow.obj
 0002:00014b70       ??_R3length_error@std@@8   0000000180068b70     libcpmt:xthrow.obj
 0002:00014b88       ??_R2length_error@std@@8   0000000180068b88     libcpmt:xthrow.obj
 0002:00014ba8       ??_R1A@?0A@EA@length_error@std@@8 0000000180068ba8     libcpmt:xthrow.obj
 0002:00014bd0       ??_R4out_of_range@std@@6B@ 0000000180068bd0     libcpmt:xthrow.obj
 0002:00014bf8       ??_R3out_of_range@std@@8   0000000180068bf8     libcpmt:xthrow.obj
 0002:00014c10       ??_R2out_of_range@std@@8   0000000180068c10     libcpmt:xthrow.obj
 0002:00014c30       ??_R1A@?0A@EA@out_of_range@std@@8 0000000180068c30     libcpmt:xthrow.obj
 0002:00014c58       ??_R4runtime_error@std@@6B@ 0000000180068c58     libcpmt:xthrow.obj
 0002:00014c80       ??_R3runtime_error@std@@8  0000000180068c80     libcpmt:xthrow.obj
 0002:00014c98       ??_R2runtime_error@std@@8  0000000180068c98     libcpmt:xthrow.obj
 0002:00014cb0       ??_R1A@?0A@EA@runtime_error@std@@8 0000000180068cb0     libcpmt:xthrow.obj
 0002:00014cd8       ??_R3ctype_base@std@@8     0000000180068cd8     libcpmt:locale.obj
 0002:00014cf0       ??_R2ctype_base@std@@8     0000000180068cf0     libcpmt:locale.obj
 0002:00014d18       ??_R1A@?0A@EA@ctype_base@std@@8 0000000180068d18     libcpmt:locale.obj
 0002:00014d40       ??_R4?$ctype@D@std@@6B@    0000000180068d40     libcpmt:locale.obj
 0002:00014d68       ??_R3?$ctype@D@std@@8      0000000180068d68     libcpmt:locale.obj
 0002:00014d80       ??_R2?$ctype@D@std@@8      0000000180068d80     libcpmt:locale.obj
 0002:00014db0       ??_R1A@?0A@EA@?$ctype@D@std@@8 0000000180068db0     libcpmt:locale.obj
 0002:00014dd8       ??_R4?$num_put@DV?$ostreambuf_iterator@DU?$char_traits@D@std@@@std@@@std@@6B@ 0000000180068dd8     libcpmt:locale.obj
 0002:00014e00       ??_R3?$num_put@DV?$ostreambuf_iterator@DU?$char_traits@D@std@@@std@@@std@@8 0000000180068e00     libcpmt:locale.obj
 0002:00014e18       ??_R2?$num_put@DV?$ostreambuf_iterator@DU?$char_traits@D@std@@@std@@@std@@8 0000000180068e18     libcpmt:locale.obj
 0002:00014e40       ??_R1A@?0A@EA@?$num_put@DV?$ostreambuf_iterator@DU?$char_traits@D@std@@@std@@@std@@8 0000000180068e40     libcpmt:locale.obj
 0002:00014e68       ??_R4?$numpunct@D@std@@6B@ 0000000180068e68     libcpmt:locale.obj
 0002:00014e90       ??_R3?$numpunct@D@std@@8   0000000180068e90     libcpmt:locale.obj
 0002:00014ea8       ??_R2?$numpunct@D@std@@8   0000000180068ea8     libcpmt:locale.obj
 0002:00014ed0       ??_R1A@?0A@EA@?$numpunct@D@std@@8 0000000180068ed0     libcpmt:locale.obj
 0002:00014ef8       ??_R4type_info@@6B@        0000000180068ef8     LIBCMT:std_type_info_static.obj
 0002:00014f20       ??_R3type_info@@8          0000000180068f20     LIBCMT:std_type_info_static.obj
 0002:00014f38       ??_R2type_info@@8          0000000180068f38     LIBCMT:std_type_info_static.obj
 0002:00014f48       ??_R1A@?0A@EA@type_info@@8 0000000180068f48     LIBCMT:std_type_info_static.obj
 0002:00014f70       ??_R4bad_array_new_length@std@@6B@ 0000000180068f70     LIBCMT:throw_bad_alloc.obj
 0002:00014f98       ??_R3bad_array_new_length@std@@8 0000000180068f98     LIBCMT:throw_bad_alloc.obj
 0002:00014fb0       ??_R2bad_array_new_length@std@@8 0000000180068fb0     LIBCMT:throw_bad_alloc.obj
 0002:00014fd0       ??_R1A@?0A@EA@bad_array_new_length@std@@8 0000000180068fd0     LIBCMT:throw_bad_alloc.obj
 0002:00014ff8       ??_R4bad_exception@std@@6B@ 0000000180068ff8     libvcruntime:frame.obj
 0002:00015020       ??_R3bad_exception@std@@8  0000000180069020     libvcruntime:frame.obj
 0002:00015038       ??_R2bad_exception@std@@8  0000000180069038     libvcruntime:frame.obj
 0002:00015050       ??_R1A@?0A@EA@bad_exception@std@@8 0000000180069050     libvcruntime:frame.obj
 0002:00015500       __rtc_iaa                  0000000180069500     LIBCMT:_initsect_.obj
 0002:00015508       __rtc_izz                  0000000180069508     LIBCMT:_initsect_.obj
 0002:00015510       __rtc_taa                  0000000180069510     LIBCMT:_initsect_.obj
 0002:00015518       __rtc_tzz                  0000000180069518     LIBCMT:_initsect_.obj
 0002:0001d018       _TI2?AVbad_alloc@std@@     0000000180071018     libcpmt:xthrow.obj
 0002:0001d038       _CTA2?AVbad_alloc@std@@    0000000180071038     libcpmt:xthrow.obj
 0002:0001d050       _CT??_R0?AVbad_alloc@std@@@8??0bad_alloc@std@@QEAA@AEBV01@@Z24 0000000180071050     libcpmt:xthrow.obj
 0002:0001d078       _CT??_R0?AVexception@std@@@8??0exception@std@@QEAA@AEBV01@@Z24 0000000180071078     libcpmt:xthrow.obj
 0002:0001d0a0       _CT??_R0?AVlogic_error@std@@@8??0logic_error@std@@QEAA@AEBV01@@Z24 00000001800710a0     libcpmt:xthrow.obj
 0002:0001d0c8       _TI3?AVlength_error@std@@  00000001800710c8     libcpmt:xthrow.obj
 0002:0001d0e8       _CTA3?AVlength_error@std@@ 00000001800710e8     libcpmt:xthrow.obj
 0002:0001d108       _CT??_R0?AVlength_error@std@@@8??0length_error@std@@QEAA@AEBV01@@Z24 0000000180071108     libcpmt:xthrow.obj
 0002:0001d130       _TI3?AVout_of_range@std@@  0000000180071130     libcpmt:xthrow.obj
 0002:0001d150       _CTA3?AVout_of_range@std@@ 0000000180071150     libcpmt:xthrow.obj
 0002:0001d170       _CT??_R0?AVout_of_range@std@@@8??0out_of_range@std@@QEAA@AEBV01@@Z24 0000000180071170     libcpmt:xthrow.obj
 0002:0001d198       _TI3?AVbad_array_new_length@std@@ 0000000180071198     LIBCMT:throw_bad_alloc.obj
 0002:0001d1b8       _CTA3?AVbad_array_new_length@std@@ 00000001800711b8     LIBCMT:throw_bad_alloc.obj
 0002:0001d1d8       _CT??_R0?AVbad_array_new_length@std@@@8??0bad_array_new_length@std@@QEAA@AEBV01@@Z24 00000001800711d8     LIBCMT:throw_bad_alloc.obj
 0002:0001d200       _TI2?AVbad_exception@std@@ 0000000180071200     libvcruntime:frame.obj
 0002:0001d220       _CTA2?AVbad_exception@std@@ 0000000180071220     libvcruntime:frame.obj
 0002:0001d238       _CT??_R0?AVbad_exception@std@@@8??0bad_exception@std@@QEAA@AEBV01@@Z24 0000000180071238     libvcruntime:frame.obj
 0002:0001d260       _CTA3?AVExceptionImpl@@    0000000180071260     dpiEnvImpl.obj
 0002:0001d280       _CT??_R0?AVException@dpi@@@816 0000000180071280     dpiEnvImpl.obj
 0002:0001d2a8       _CT??_R0?AVExceptionImpl@@@888 00000001800712a8     dpiEnvImpl.obj
 0002:0001d2d0       _TI3?AVExceptionImpl@@     00000001800712d0     dpiEnvImpl.obj
 0002:0001d2f0       _CT??_R0?AVexception@stdext@@@816 00000001800712f0     dpiEnvImpl.obj
 0002:0001d314       __DELAY_IMPORT_DESCRIPTOR_node_exe 0000000180071314     node:node.exe
 0002:0001d334       __NULL_DELAY_IMPORT_DESCRIPTOR 0000000180071334     node:node.exe
 0002:0001d600       \177node_NULL_THUNK_DATA_DLN 0000000180071600     node:node.exe
 0002:0001ebc8       \177node_NULL_THUNK_DATA_DLB 0000000180072bc8     node:node.exe
 0002:0001eec4       __IMPORT_DESCRIPTOR_KERNEL32 0000000180072ec4     kernel32:KERNEL32.dll
 0002:0001eed8       __IMPORT_DESCRIPTOR_OCI    0000000180072ed8     oci:OCI.dll
 0002:0001eeec       __NULL_IMPORT_DESCRIPTOR   0000000180072eec     kernel32:KERNEL32.dll
 0003:00000004       ?_Sync@ios_base@std@@0_NA  0000000180074004     libcpmt:ios.obj
 0003:00000020       ?_PJP_CPP_Copyright@@3PADA 0000000180074020     libcpmt:iosptrs.obj
 0003:00000080       _Init_global_epoch         0000000180074080     LIBCMT:thread_safe_statics.obj
 0003:00000084       __scrt_native_dllmain_reason 0000000180074084     LIBCMT:utility.obj
 0003:00000088       __security_cookie_complement 0000000180074088     LIBCMT:gs_cookie.obj
 0003:00000090       __security_cookie          0000000180074090     LIBCMT:gs_cookie.obj
 0003:00000098       _fltused                   0000000180074098     LIBCMT:fltused.obj
 0003:000000a0       __memcpy_nt_iters          00000001800740a0     LIBCMT:_cpu_disp_.obj
 0003:000000a8       __isa_available            00000001800740a8     LIBCMT:_cpu_disp_.obj
 0003:000000ac       __isa_enabled              00000001800740ac     LIBCMT:_cpu_disp_.obj
 0003:000000c0       __abort_behavior           00000001800740c0     libucrt:abort.obj
 0003:000000c4       __acrt_lconv_static_decimal 00000001800740c4     libucrt:localeconv.obj
 0003:000000c8       __acrt_lconv_static_W_decimal 00000001800740c8     libucrt:localeconv.obj
 0003:000000d0       __acrt_lconv_c             00000001800740d0     libucrt:localeconv.obj
 0003:00000168       __acrt_lconv               0000000180074168     libucrt:localeconv.obj
 0003:00000170       _pctype                    0000000180074170     libucrt:ctype.obj
 0003:00000178       _pwctype                   0000000180074178     libucrt:ctype.obj
 0003:000001a0       _iob                       00000001800741a0     libucrt:_file.obj
 0003:000002b0       __mb_cur_max               00000001800742b0     libucrt:nlsdata.obj
 0003:000002c0       __acrt_initial_locale_data 00000001800742c0     libucrt:nlsdata.obj
 0003:00000418       __acrt_initial_locale_pointers 0000000180074418     libucrt:nlsdata.obj
 0003:00000428       __acrt_wide_c_locale_string 0000000180074428     libucrt:nlsdata.obj
 0003:00000430       __badioinfo                0000000180074430     libucrt:ioinit.obj
 0003:00000474       __globallocalestatus       0000000180074474     libucrt:glstatus.obj
 0003:00000820       __acrt_initial_multibyte_data 0000000180074820     libucrt:mbctype.obj
 0003:00000aa0       ??_R0?AV_Facet_base@std@@@8 0000000180074aa0     libcpmt:locale0.obj
 0003:00000ac8       ??_R0?AV_Locimp@locale@std@@@8 0000000180074ac8     libcpmt:locale0.obj
 0003:00000af8       ??_R0?AVfacet@locale@std@@@8 0000000180074af8     libcpmt:locale0.obj
 0003:00000b20       ??_R0?AU_Crt_new_delete@std@@@8 0000000180074b20     libcpmt:locale0.obj
 0003:00000b50       ??_R0?AVbad_alloc@std@@@8  0000000180074b50     libcpmt:xthrow.obj
 0003:00000b78       ??_R0?AVexception@std@@@8  0000000180074b78     libcpmt:xthrow.obj
 0003:00000ba0       ??_R0?AVlogic_error@std@@@8 0000000180074ba0     libcpmt:xthrow.obj
 0003:00000bc8       ??_R0?AVlength_error@std@@@8 0000000180074bc8     libcpmt:xthrow.obj
 0003:00000bf0       ??_R0?AVout_of_range@std@@@8 0000000180074bf0     libcpmt:xthrow.obj
 0003:00000c18       ??_R0?AVruntime_error@std@@@8 0000000180074c18     libcpmt:xthrow.obj
 0003:00000c40       ??_R0?AUctype_base@std@@@8 0000000180074c40     libcpmt:locale.obj
 0003:00000c68       ??_R0?AV?$ctype@D@std@@@8  0000000180074c68     libcpmt:locale.obj
 0003:00000c90       ??_R0?AV?$num_put@DV?$ostreambuf_iterator@DU?$char_traits@D@std@@@std@@@std@@@8 0000000180074c90     libcpmt:locale.obj
 0003:00000cf0       ??_R0?AV?$numpunct@D@std@@@8 0000000180074cf0     libcpmt:locale.obj
 0003:00000d18       ??_R0?AVtype_info@@@8      0000000180074d18     LIBCMT:std_type_info_static.obj
 0003:00000d38       ??_R0?AVbad_array_new_length@std@@@8 0000000180074d38     LIBCMT:throw_bad_alloc.obj
 0003:00000d68       ??_R0?AVbad_exception@std@@@8 0000000180074d68     libvcruntime:frame.obj
 0003:00000d90       ??_R0?AVException@dpi@@@8  0000000180074d90     njsOracle.obj
 0003:00000db8       ??_R0?AVexception@stdext@@@8 0000000180074db8     dpiEnvImpl.obj
 0003:00000de0       ??_R0?AVExceptionImpl@@@8  0000000180074de0     dpiEnvImpl.obj
 0003:00000e08       __imp_uv_queue_work        0000000180074e08     node:node.exe
 0003:00000e10       __imp_?Global@Context@v8@@QEAA?AV?$Local@VObject@v8@@@2@XZ 0000000180074e10     node:node.exe
 0003:00000e18       __imp_?Value@External@v8@@QEBAPEAXXZ 0000000180074e18     node:node.exe
 0003:00000e20       __imp_?New@External@v8@@SA?AV?$Local@VExternal@v8@@@2@PEAVIsolate@2@PEAX@Z 0000000180074e20     node:node.exe
 0003:00000e28       __imp_?NewFromUnsigned@Integer@v8@@SA?AV?$Local@VInteger@v8@@@2@PEAVIsolate@2@I@Z 0000000180074e28     node:node.exe
 0003:00000e30       __imp_?New@Integer@v8@@SA?AV?$Local@VInteger@v8@@@2@PEAVIsolate@2@H@Z 0000000180074e30     node:node.exe
 0003:00000e38       __imp_?New@Signature@v8@@SA?AV?$Local@VSignature@v8@@@2@PEAVIsolate@2@V?$Local@VFunctionTemplate@v8@@@2@@Z 0000000180074e38     node:node.exe
 0003:00000e40       __imp_?ThrowException@Isolate@v8@@QEAA?AV?$Local@VValue@v8@@@2@V32@@Z 0000000180074e40     node:node.exe
 0003:00000e48       __imp_?GetCurrentContext@Isolate@v8@@QEAA?AV?$Local@VContext@v8@@@2@XZ 0000000180074e48     node:node.exe
 0003:00000e50       __imp_?GetCurrent@Isolate@v8@@SAPEAV12@XZ 0000000180074e50     node:node.exe
 0003:00000e58       __imp_?CreateHandle@HandleScope@v8@@KAPEAPEAVObject@internal@2@PEAVIsolate@42@PEAV342@@Z 0000000180074e58     node:node.exe
 0003:00000e60       __imp_?CreateHandle@HandleScope@v8@@CAPEAPEAVObject@internal@2@PEAVHeapObject@42@PEAV342@@Z 0000000180074e60     node:node.exe
 0003:00000e68       __imp_??1HandleScope@v8@@QEAA@XZ 0000000180074e68     node:node.exe
 0003:00000e70       __imp_??0HandleScope@v8@@QEAA@PEAVIsolate@1@@Z 0000000180074e70     node:node.exe
 0003:00000e78       __imp_?Set@Template@v8@@QEAAXV?$Local@VName@v8@@@2@V?$Local@VData@v8@@@2@W4PropertyAttribute@2@@Z 0000000180074e78     node:node.exe
 0003:00000e80       __imp_?Error@Exception@v8@@SA?AV?$Local@VValue@v8@@@2@V?$Local@VString@v8@@@2@@Z 0000000180074e80     node:node.exe
 0003:00000e88       __imp_?New@Array@v8@@SA?AV?$Local@VArray@v8@@@2@PEAVIsolate@2@H@Z 0000000180074e88     node:node.exe
 0003:00000e90       __imp_?Length@Array@v8@@QEBAIXZ 0000000180074e90     node:node.exe
 0003:00000e98       __imp_?SetClassName@FunctionTemplate@v8@@QEAAXV?$Local@VString@v8@@@2@@Z 0000000180074e98     node:node.exe
 0003:00000ea0       __imp_?PrototypeTemplate@FunctionTemplate@v8@@QEAA?AV?$Local@VObjectTemplate@v8@@@2@XZ 0000000180074ea0     node:node.exe
 0003:00000ea8       __imp_?InstanceTemplate@FunctionTemplate@v8@@QEAA?AV?$Local@VObjectTemplate@v8@@@2@XZ 0000000180074ea8     node:node.exe
 0003:00000eb0       __imp_?GetFunction@FunctionTemplate@v8@@QEAA?AV?$Local@VFunction@v8@@@2@XZ 0000000180074eb0     node:node.exe
 0003:00000eb8       __imp_?GetFunction@FunctionTemplate@v8@@QEAA?AV?$MaybeLocal@VFunction@v8@@@2@V?$Local@VContext@v8@@@2@@Z 0000000180074eb8     node:node.exe
 0003:00000ec0       __imp_?New@FunctionTemplate@v8@@SA?AV?$Local@VFunctionTemplate@v8@@@2@PEAVIsolate@2@P6AXAEBV?$FunctionCallbackInfo@VValue@v8@@@2@@ZV?$Local@VValue@v8@@@2@V?$Local@VSignature@v8@@@2@HW4ConstructorBehavior@2@@Z 0000000180074ec0     node:node.exe
 0003:00000ec8       __imp_?Value@Boolean@v8@@QEBA_NXZ 0000000180074ec8     node:node.exe
 0003:00000ed0       __imp_?ToLocalEmpty@V8@v8@@CAXXZ 0000000180074ed0     node:node.exe
 0003:00000ed8       __imp_?FromJustIsNothing@V8@v8@@CAXXZ 0000000180074ed8     node:node.exe
 0003:00000ee0       __imp_?ClearWeak@V8@v8@@CAPEAXPEAPEAVObject@internal@2@@Z 0000000180074ee0     node:node.exe
 0003:00000ee8       __imp_?MakeWeak@V8@v8@@CAXPEAPEAVObject@internal@2@PEAXP6AXAEBV?$WeakCallbackInfo@X@2@@ZW4WeakCallbackType@2@@Z 0000000180074ee8     node:node.exe
 0003:00000ef0       __imp_?DisposeGlobal@V8@v8@@CAXPEAPEAVObject@internal@2@@Z 0000000180074ef0     node:node.exe
 0003:00000ef8       __imp_?GlobalizeReference@V8@v8@@CAPEAPEAVObject@internal@2@PEAVIsolate@42@PEAPEAV342@@Z 0000000180074ef8     node:node.exe
 0003:00000f00       __imp_?Int32Value@Value@v8@@QEBA?AV?$Maybe@H@2@V?$Local@VContext@v8@@@2@@Z 0000000180074f00     node:node.exe
 0003:00000f08       __imp_?Uint32Value@Value@v8@@QEBA?AV?$Maybe@I@2@V?$Local@VContext@v8@@@2@@Z 0000000180074f08     node:node.exe
 0003:00000f10       __imp_?ToInteger@Value@v8@@QEBA?AV?$MaybeLocal@VInteger@v8@@@2@V?$Local@VContext@v8@@@2@@Z 0000000180074f10     node:node.exe
 0003:00000f18       __imp_?IsUint32@Value@v8@@QEBA_NXZ 0000000180074f18     node:node.exe
 0003:00000f20       __imp_?IsInt32@Value@v8@@QEBA_NXZ 0000000180074f20     node:node.exe
 0003:00000f28       __imp_?IsNumber@Value@v8@@QEBA_NXZ 0000000180074f28     node:node.exe
 0003:00000f30       __imp_?IsObject@Value@v8@@QEBA_NXZ 0000000180074f30     node:node.exe
 0003:00000f38       __imp_?IsArray@Value@v8@@QEBA_NXZ 0000000180074f38     node:node.exe
 0003:00000f40       __imp_?IsFunction@Value@v8@@QEBA_NXZ 0000000180074f40     node:node.exe
 0003:00000f48       __imp_?HasCaught@TryCatch@v8@@QEBA_NXZ 0000000180074f48     node:node.exe
 0003:00000f50       __imp_??1TryCatch@v8@@QEAA@XZ 0000000180074f50     node:node.exe
 0003:00000f58       __imp_??0TryCatch@v8@@QEAA@PEAVIsolate@1@@Z 0000000180074f58     node:node.exe
 0003:00000f60       __imp_?Escape@EscapableHandleScope@v8@@AEAAPEAPEAVObject@internal@2@PEAPEAV342@@Z 0000000180074f60     node:node.exe
 0003:00000f68       __imp_??0EscapableHandleScope@v8@@QEAA@PEAVIsolate@1@@Z 0000000180074f68     node:node.exe
 0003:00000f70       __imp_??1Utf8Value@String@v8@@QEAA@XZ 0000000180074f70     node:node.exe
 0003:00000f78       __imp_??0Utf8Value@String@v8@@QEAA@V?$Local@VValue@v8@@@2@@Z 0000000180074f78     node:node.exe
 0003:00000f80       __imp_?NewFromUtf8@String@v8@@SA?AV?$MaybeLocal@VString@v8@@@2@PEAVIsolate@2@PEBDW4NewStringType@2@H@Z 0000000180074f80     node:node.exe
 0003:00000f88       __imp_?SlowGetAlignedPointerFromInternalField@Object@v8@@AEAAPEAXH@Z 0000000180074f88     node:node.exe
 0003:00000f90       __imp_?SlowGetInternalField@Object@v8@@AEAA?AV?$Local@VValue@v8@@@2@H@Z 0000000180074f90     node:node.exe
 0003:00000f98       __imp_?SetAlignedPointerInInternalField@Object@v8@@QEAAXHPEAX@Z 0000000180074f98     node:node.exe
 0003:00000fa0       __imp_?SetInternalField@Object@v8@@QEAAXHV?$Local@VValue@v8@@@2@@Z 0000000180074fa0     node:node.exe
 0003:00000fa8       __imp_?InternalFieldCount@Object@v8@@QEAAHXZ 0000000180074fa8     node:node.exe
 0003:00000fb0       __imp_?Get@Object@v8@@QEAA?AV?$Local@VValue@v8@@@2@V32@@Z 0000000180074fb0     node:node.exe
 0003:00000fb8       __imp_?Get@Object@v8@@QEAA?AV?$Local@VValue@v8@@@2@I@Z 0000000180074fb8     node:node.exe
 0003:00000fc0       __imp_?Set@Object@v8@@QEAA?AV?$Maybe@_N@2@V?$Local@VContext@v8@@@2@V?$Local@VValue@v8@@@2@1@Z 0000000180074fc0     node:node.exe
 0003:00000fc8       __imp_?Set@Object@v8@@QEAA_NIV?$Local@VValue@v8@@@2@@Z 0000000180074fc8     node:node.exe
 0003:00000fd0       __imp_?SetInternalFieldCount@ObjectTemplate@v8@@QEAAXH@Z 0000000180074fd0     node:node.exe
 0003:00000fd8       __imp_?SetAccessor@ObjectTemplate@v8@@QEAAXV?$Local@VName@v8@@@2@P6AX0AEBV?$PropertyCallbackInfo@VValue@v8@@@2@@ZP6AX0V?$Local@VValue@v8@@@2@AEBV?$PropertyCallbackInfo@X@2@@Z3W4AccessControl@2@W4PropertyAttribute@2@V?$Local@VAccessorSignature@v8@@@2@@Z 0000000180074fd8     node:node.exe
 0003:00000fe0       __imp_?NewInstance@ObjectTemplate@v8@@QEAA?AV?$MaybeLocal@VObject@v8@@@2@V?$Local@VContext@v8@@@2@@Z 0000000180074fe0     node:node.exe
 0003:00000fe8       __imp_?New@ObjectTemplate@v8@@SA?AV?$Local@VObjectTemplate@v8@@@2@PEAVIsolate@2@V?$Local@VFunctionTemplate@v8@@@2@@Z 0000000180074fe8     node:node.exe
 0003:00000ff0       __imp_?FatalException@node@@YAXPEAVIsolate@v8@@AEBVTryCatch@3@@Z 0000000180074ff0     node:node.exe
 0003:00000ff8       __imp_node_module_register 0000000180074ff8     node:node.exe
 0003:00001000       __imp_?MakeCallback@node@@YA?AV?$Local@VValue@v8@@@v8@@PEAVIsolate@3@V?$Local@VObject@v8@@@3@V?$Local@VFunction@v8@@@3@HPEAV23@@Z 0000000180075000     node:node.exe
 0003:00001008       __imp_uv_default_loop      0000000180075008     node:node.exe
 0003:00001010       __imp_?ToObject@Value@v8@@QEBA?AV?$Local@VObject@v8@@@2@XZ 0000000180075010     node:node.exe
 0003:00001018       __imp_?ToString@Value@v8@@QEBA?AV?$Local@VString@v8@@@2@XZ 0000000180075018     node:node.exe
 0003:00001020       __imp_?ToBoolean@Value@v8@@QEBA?AV?$Local@VBoolean@v8@@@2@XZ 0000000180075020     node:node.exe
 0003:00001028       __imp_?NewInstance@Function@v8@@QEBA?AV?$MaybeLocal@VObject@v8@@@2@V?$Local@VContext@v8@@@2@@Z 0000000180075028     node:node.exe
 0003:00001030       __imp_??1EscapableHandleScope@v8@@QEAA@XZ 0000000180075030     node:node.exe
 0003:00001038       __imp_?New@Date@v8@@SA?AV?$MaybeLocal@VValue@v8@@@2@V?$Local@VContext@v8@@@2@N@Z 0000000180075038     node:node.exe
 0003:00001040       __imp_?NumberValue@Value@v8@@QEBANXZ 0000000180075040     node:node.exe
 0003:00001048       __imp_?IsDate@Value@v8@@QEBA_NXZ 0000000180075048     node:node.exe
 0003:00001050       __imp_?New@Number@v8@@SA?AV?$Local@VNumber@v8@@@2@PEAVIsolate@2@N@Z 0000000180075050     node:node.exe
 0003:00001058       __imp_?New@Object@v8@@SA?AV?$Local@VObject@v8@@@2@PEAVIsolate@2@@Z 0000000180075058     node:node.exe
 0003:00001060       __imp_?GetOwnPropertyNames@Object@v8@@QEAA?AV?$Local@VArray@v8@@@2@XZ 0000000180075060     node:node.exe
 0003:00001068       __imp_?ForceSet@Object@v8@@QEAA?AV?$Maybe@_N@2@V?$Local@VContext@v8@@@2@V?$Local@VValue@v8@@@2@1W4PropertyAttribute@2@@Z 0000000180075068     node:node.exe
 0003:00001070       __imp_?Set@Object@v8@@QEAA?AV?$Maybe@_N@2@V?$Local@VContext@v8@@@2@IV?$Local@VValue@v8@@@2@@Z 0000000180075070     node:node.exe
 0003:00001078       __imp_?Call@Function@v8@@QEAA?AV?$Local@VValue@v8@@@2@V32@HQEAV32@@Z 0000000180075078     node:node.exe
 0003:00001080       __imp_?HasInstance@Buffer@node@@YA_NV?$Local@VValue@v8@@@v8@@@Z 0000000180075080     node:node.exe
 0003:00001088       __imp_?HasInstance@Buffer@node@@YA_NV?$Local@VObject@v8@@@v8@@@Z 0000000180075088     node:node.exe
 0003:00001090       __imp_?Data@Buffer@node@@YAPEADV?$Local@VObject@v8@@@v8@@@Z 0000000180075090     node:node.exe
 0003:00001098       __imp_?Copy@Buffer@node@@YA?AV?$MaybeLocal@VObject@v8@@@v8@@PEAVIsolate@4@PEBD_K@Z 0000000180075098     node:node.exe
 0003:000010a0       __imp_?Length@Buffer@node@@YA_KV?$Local@VObject@v8@@@v8@@@Z 00000001800750a0     node:node.exe
 0003:000010a8       __imp_?HasInstance@FunctionTemplate@v8@@QEAA_NV?$Local@VValue@v8@@@2@@Z 00000001800750a8     node:node.exe
 0003:000010b0       \177node_NULL_THUNK_DATA_DLA 00000001800750b0     node:node.exe
 0003:000010c0       __hmod__node_exe           00000001800750c0     node:node.exe
 0003:00001230       ?_Id_cnt@id@locale@std@@0HA 0000000180075230     libcpmt:locale0.obj
 0003:00001238       ?_Clocptr@_Locimp@locale@std@@0PEAV123@EA 0000000180075238     libcpmt:locale0.obj
 0003:00001240       ?id@?$ctype@_W@std@@2V0locale@2@A 0000000180075240     libcpmt:locale0.obj
 0003:00001248       ?id@?$ctype@D@std@@2V0locale@2@A 0000000180075248     libcpmt:locale0.obj
 0003:00001250       ?id@?$codecvt@GDU_Mbstatet@@@std@@2V0locale@2@A 0000000180075250     libcpmt:locale0.obj
 0003:00001258       ?id@?$ctype@G@std@@2V0locale@2@A 0000000180075258     libcpmt:locale0.obj
 0003:00001270       ?id@?$codecvt@_WDU_Mbstatet@@@std@@2V0locale@2@A 0000000180075270     libcpmt:locale0.obj
 0003:000012dc       ?_Index@ios_base@std@@0HA  00000001800752dc     libcpmt:ios.obj
 0003:000012e0       ?_Raise_handler@std@@3P6AXAEBVexception@stdext@@@ZEA 00000001800752e0     libcpmt:raisehan.obj
 0003:00001340       ?_Ptr_cin@std@@3PEAV?$basic_istream@DU?$char_traits@D@std@@@1@EA 0000000180075340     libcpmt:iosptrs.obj
 0003:00001348       ?_Ptr_cout@std@@3PEAV?$basic_ostream@DU?$char_traits@D@std@@@1@EA 0000000180075348     libcpmt:iosptrs.obj
 0003:00001350       ?_Ptr_cerr@std@@3PEAV?$basic_ostream@DU?$char_traits@D@std@@@1@EA 0000000180075350     libcpmt:iosptrs.obj
 0003:00001358       ?_Ptr_clog@std@@3PEAV?$basic_ostream@DU?$char_traits@D@std@@@1@EA 0000000180075358     libcpmt:iosptrs.obj
 0003:00001360       ?_Ptr_wcin@std@@3PEAV?$basic_istream@_WU?$char_traits@_W@std@@@1@EA 0000000180075360     libcpmt:iosptrs.obj
 0003:00001368       ?_Ptr_wcout@std@@3PEAV?$basic_ostream@_WU?$char_traits@_W@std@@@1@EA 0000000180075368     libcpmt:iosptrs.obj
 0003:00001370       ?_Ptr_wcerr@std@@3PEAV?$basic_ostream@_WU?$char_traits@_W@std@@@1@EA 0000000180075370     libcpmt:iosptrs.obj
 0003:00001378       ?_Ptr_wclog@std@@3PEAV?$basic_ostream@_WU?$char_traits@_W@std@@@1@EA 0000000180075378     libcpmt:iosptrs.obj
 0003:00001388       ?id@?$num_get@DV?$istreambuf_iterator@DU?$char_traits@D@std@@@std@@@std@@2V0locale@2@A 0000000180075388     libcpmt:locale.obj
 0003:00001390       ?id@?$codecvt@DDU_Mbstatet@@@std@@2V0locale@2@A 0000000180075390     libcpmt:locale.obj
 0003:000013a0       __encodedKERNEL32Functions 00000001800753a0     libcpmt:winapisupp.obj
 0003:000014e0       ?id@?$time_put@_WV?$ostreambuf_iterator@_WU?$char_traits@_W@std@@@std@@@std@@2V0locale@2@A 00000001800754e0     libcpmt:wlocale.obj
 0003:000014e8       ?id@?$num_get@_WV?$istreambuf_iterator@_WU?$char_traits@_W@std@@@std@@@std@@2V0locale@2@A 00000001800754e8     libcpmt:wlocale.obj
 0003:000014f0       ?id@?$num_put@_WV?$ostreambuf_iterator@_WU?$char_traits@_W@std@@@std@@@std@@2V0locale@2@A 00000001800754f0     libcpmt:wlocale.obj
 0003:000014f8       ?id@?$numpunct@_W@std@@2V0locale@2@A 00000001800754f8     libcpmt:wlocale.obj
 0003:00001500       ?id@?$collate@_W@std@@2V0locale@2@A 0000000180075500     libcpmt:wlocale.obj
 0003:00001508       ?id@?$messages@_W@std@@2V0locale@2@A 0000000180075508     libcpmt:wlocale.obj
 0003:00001510       ?id@?$money_get@_WV?$istreambuf_iterator@_WU?$char_traits@_W@std@@@std@@@std@@2V0locale@2@A 0000000180075510     libcpmt:wlocale.obj
 0003:00001518       ?id@?$money_put@_WV?$ostreambuf_iterator@_WU?$char_traits@_W@std@@@std@@@std@@2V0locale@2@A 0000000180075518     libcpmt:wlocale.obj
 0003:00001520       ?id@?$moneypunct@_W$0A@@std@@2V0locale@2@A 0000000180075520     libcpmt:wlocale.obj
 0003:00001528       ?id@?$moneypunct@_W$00@std@@2V0locale@2@A 0000000180075528     libcpmt:wlocale.obj
 0003:00001530       ?id@?$time_get@_WV?$istreambuf_iterator@_WU?$char_traits@_W@std@@@std@@@std@@2V0locale@2@A 0000000180075530     libcpmt:wlocale.obj
 0003:00001538       ?id@?$num_get@GV?$istreambuf_iterator@GU?$char_traits@G@std@@@std@@@std@@2V0locale@2@A 0000000180075538     libcpmt:wlocale.obj
 0003:00001540       ?id@?$num_put@GV?$ostreambuf_iterator@GU?$char_traits@G@std@@@std@@@std@@2V0locale@2@A 0000000180075540     libcpmt:wlocale.obj
 0003:00001548       ?id@?$numpunct@G@std@@2V0locale@2@A 0000000180075548     libcpmt:wlocale.obj
 0003:00001550       ?id@?$collate@G@std@@2V0locale@2@A 0000000180075550     libcpmt:wlocale.obj
 0003:00001558       ?id@?$messages@G@std@@2V0locale@2@A 0000000180075558     libcpmt:wlocale.obj
 0003:00001560       ?id@?$money_get@GV?$istreambuf_iterator@GU?$char_traits@G@std@@@std@@@std@@2V0locale@2@A 0000000180075560     libcpmt:wlocale.obj
 0003:00001568       ?id@?$money_put@GV?$ostreambuf_iterator@GU?$char_traits@G@std@@@std@@@std@@2V0locale@2@A 0000000180075568     libcpmt:wlocale.obj
 0003:00001570       ?id@?$moneypunct@G$0A@@std@@2V0locale@2@A 0000000180075570     libcpmt:wlocale.obj
 0003:00001578       ?id@?$moneypunct@G$00@std@@2V0locale@2@A 0000000180075578     libcpmt:wlocale.obj
 0003:00001580       ?id@?$time_get@GV?$istreambuf_iterator@GU?$char_traits@G@std@@@std@@@std@@2V0locale@2@A 0000000180075580     libcpmt:wlocale.obj
 0003:00001588       ?id@?$time_put@GV?$ostreambuf_iterator@GU?$char_traits@G@std@@@std@@@std@@2V0locale@2@A 0000000180075588     libcpmt:wlocale.obj
 0003:00001590       ?id@?$collate@D@std@@2V0locale@2@A 0000000180075590     libcpmt:xlocale.obj
 0003:00001598       ?id@?$messages@D@std@@2V0locale@2@A 0000000180075598     libcpmt:xlocale.obj
 0003:000015a0       ?id@?$money_get@DV?$istreambuf_iterator@DU?$char_traits@D@std@@@std@@@std@@2V0locale@2@A 00000001800755a0     libcpmt:xlocale.obj
 0003:000015a8       ?id@?$money_put@DV?$ostreambuf_iterator@DU?$char_traits@D@std@@@std@@@std@@2V0locale@2@A 00000001800755a8     libcpmt:xlocale.obj
 0003:000015b0       ?id@?$moneypunct@D$0A@@std@@2V0locale@2@A 00000001800755b0     libcpmt:xlocale.obj
 0003:000015b8       ?id@?$moneypunct@D$00@std@@2V0locale@2@A 00000001800755b8     libcpmt:xlocale.obj
 0003:000015c0       ?id@?$time_get@DV?$istreambuf_iterator@DU?$char_traits@D@std@@@std@@@std@@2V0locale@2@A 00000001800755c0     libcpmt:xlocale.obj
 0003:000015c8       ?id@?$time_put@DV?$ostreambuf_iterator@DU?$char_traits@D@std@@@std@@@std@@2V0locale@2@A 00000001800755c8     libcpmt:xlocale.obj
 0003:00001618       __scrt_current_native_startup_state 0000000180075618     LIBCMT:utility.obj
 0003:00001620       __scrt_native_startup_lock 0000000180075620     LIBCMT:utility.obj
 0003:00001bd4       __scrt_debugger_hook_flag  0000000180075bd4     LIBCMT:utility_desktop.obj
 0003:00001bd8       _tls_index                 0000000180075bd8     LIBCMT:tlssup.obj
 0003:00001bdc       __favor                    0000000180075bdc     LIBCMT:_cpu_disp_.obj
 0003:00001be0       ?__type_info_root_node@@3U__type_info_node@@A 0000000180075be0     LIBCMT:tncleanup.obj
 0003:00001bf0       ?_OptionsStorage@?1??__local_stdio_scanf_options@@9@4_KA 0000000180075bf0     LIBCMT:default_local_stdio_options.obj
 0003:00001bf8       ?g_OutOfMemoryExceptionCallback@@3P6APEAXXZEA 0000000180075bf8     libvcruntime:frame.obj
 0003:00001cb8       __pPurecall                0000000180075cb8     libvcruntime:purevirt_data.obj
 0003:00001cf0       ?pArgList@UnDecorator@@0PEAVReplicator@@EA 0000000180075cf0     libvcruntime:undname.obj
 0003:00001cf8       ?pZNameList@UnDecorator@@0PEAVReplicator@@EA 0000000180075cf8     libvcruntime:undname.obj
 0003:00001d00       ?pTemplateArgList@UnDecorator@@0PEAVReplicator@@EA 0000000180075d00     libvcruntime:undname.obj
 0003:00001d08       ?gName@UnDecorator@@0PEBDEB 0000000180075d08     libvcruntime:undname.obj
 0003:00001d10       ?name@UnDecorator@@0PEBDEB 0000000180075d10     libvcruntime:undname.obj
 0003:00001d18       ?outputString@UnDecorator@@0PEADEA 0000000180075d18     libvcruntime:undname.obj
 0003:00001d20       ?maxStringLength@UnDecorator@@0HA 0000000180075d20     libvcruntime:undname.obj
 0003:00001d24       ?disableFlags@UnDecorator@@0KA 0000000180075d24     libvcruntime:undname.obj
 0003:00001d28       ?fExplicitTemplateParams@UnDecorator@@0_NA 0000000180075d28     libvcruntime:undname.obj
 0003:00001d29       ?fGetTemplateArgumentList@UnDecorator@@0_NA 0000000180075d29     libvcruntime:undname.obj
 0003:00001d30       ?m_pGetParameter@UnDecorator@@0P6APEADJ@ZEA 0000000180075d30     libvcruntime:undname.obj
 0003:00001d68       __acrt_lconv_static_null   0000000180075d68     libucrt:localeconv.obj
 0003:00001d6c       __acrt_lconv_static_W_null 0000000180075d6c     libucrt:localeconv.obj
 0003:00001fc0       ?c_exit_complete@?1???R<lambda_6e4b09c48022b2350581041d5f6b0c4c>@@QEBA@XZ@4_NA 0000000180075fc0     libucrt:exit.obj
 0003:000020d8       _environ_table             00000001800760d8     libucrt:environment_initialization.obj
 0003:000020e0       _wenviron_table            00000001800760e0     libucrt:environment_initialization.obj
 0003:000020e8       __dcrt_initial_wide_environment 00000001800760e8     libucrt:environment_initialization.obj
 0003:000020f0       __dcrt_initial_narrow_environment 00000001800760f0     libucrt:environment_initialization.obj
 0003:000020f8       __acrt_atexit_table        00000001800760f8     libucrt:onexit.obj
 0003:00002110       __acrt_at_quick_exit_table 0000000180076110     libucrt:onexit.obj
 0003:00002148       _nstream                   0000000180076148     libucrt:_file.obj
 0003:00002150       __piob                     0000000180076150     libucrt:_file.obj
 0003:00002158       _cflush                    0000000180076158     libucrt:_file.obj
 0003:00002168       __acrt_stdout_buffer       0000000180076168     libucrt:_sftbuf.obj
 0003:00002170       __acrt_stderr_buffer       0000000180076170     libucrt:_sftbuf.obj
 0003:00002178       __acrt_locale_changed_data 0000000180076178     libucrt:wsetlocale.obj
 0003:00002180       __acrt_current_locale_data 0000000180076180     libucrt:nlsdata.obj
 0003:00002190       __pioinfo                  0000000180076190     libucrt:ioinit.obj
 0003:00002590       _nhandle                   0000000180076590     libucrt:ioinit.obj
 0003:00002760       __acrt_heap                0000000180076760     libucrt:heap_handle.obj
 0003:00002768       __fma3_is_available        0000000180076768     libucrt:fma3_available.obj
 0003:0000276c       __use_fma3_lib             000000018007676c     libucrt:fma3_available.obj
 0003:00002770       ?_timezone@@3V?$dual_state_global@J@__crt_state_management@@A 0000000180076770     libucrt:timeset.obj
 0003:00002774       ?_daylight@@3V?$dual_state_global@H@__crt_state_management@@A 0000000180076774     libucrt:timeset.obj
 0003:00002778       ?_dstbias@@3V?$dual_state_global@J@__crt_state_management@@A 0000000180076778     libucrt:timeset.obj
 0003:00002858       _mbctype                   0000000180076858     libucrt:mbctype.obj
 0003:00002860       _mbcasemap                 0000000180076860     libucrt:mbctype.obj
 0003:00002868       __acrt_current_multibyte_data 0000000180076868     libucrt:mbctype.obj
 0003:00002878       __argc                     0000000180076878     libucrt:argv_data.obj
 0003:00002880       __argv                     0000000180076880     libucrt:argv_data.obj
 0003:00002888       __wargv                    0000000180076888     libucrt:argv_data.obj
 0003:00002890       _acmdln                    0000000180076890     libucrt:argv_data.obj
 0003:00002898       _wcmdln                    0000000180076898     libucrt:argv_data.obj
 0003:000028a0       _pgmptr                    00000001800768a0     libucrt:argv_data.obj
 0003:000028b0       ?DloadKernel32@@3PEAUHINSTANCE__@@EA 00000001800768b0     DelayImp:delayhlp.obj
 0003:000028b8       ?DloadAcquireSRWLockExclusive@@3P6AXPEA_K@ZEA 00000001800768b8     DelayImp:delayhlp.obj
 0003:000028c0       ?DloadReleaseSRWLockExclusive@@3P6AXPEA_K@ZEA 00000001800768c0     DelayImp:delayhlp.obj
 0003:000028c8       ?DloadSrwLock@@3_KA        00000001800768c8     DelayImp:delayhlp.obj
 0003:000028d0       ?DloadSectionLockCount@@3KA 00000001800768d0     DelayImp:delayhlp.obj
 0003:000028d4       ?DloadSectionOldProtection@@3KA 00000001800768d4     DelayImp:delayhlp.obj
 0003:000028d8       ?DloadSectionCommitPermanent@@3KA 00000001800768d8     DelayImp:delayhlp.obj
 0003:000028e0       ?_Static@?1???$_Immortalize@V_Iostream_error_category@std@@@std@@YAAEAV_Iostream_error_category@1@XZ@4U?$_Immortalizer@V_Iostream_error_category@std@@@1@A 00000001800768e0     njsOracle.obj
 0003:000028f0       ?$TSS0@?1???$_Immortalize@V_Iostream_error_category@std@@@std@@YAAEAV_Iostream_error_category@1@XZ@4HA 00000001800768f0     njsOracle.obj
 0003:000028f8       ?_OptionsStorage@?1??__local_stdio_printf_options@@9@4_KA 00000001800768f8     njsOracle.obj
 0003:00002900       ?_Psave@?$_Facetptr@V?$numpunct@D@std@@@std@@2PEBVfacet@locale@2@EB 0000000180076900     njsOracle.obj
 0003:00002908       ?_Psave@?$_Facetptr@V?$num_put@DV?$ostreambuf_iterator@DU?$char_traits@D@std@@@std@@@std@@@std@@2PEBVfacet@locale@2@EB 0000000180076908     njsOracle.obj
 0003:00002910       ?_Psave@?$_Facetptr@V?$ctype@D@std@@@std@@2PEBVfacet@locale@2@EB 0000000180076910     njsOracle.obj
 0003:00002918       ?baseDate_@DateTimeArrayImpl@dpi@@0PEAUOCIDateTime@@EA 0000000180076918     dpiDateTimeArrayImpl.obj
 0003:00002920       ?oracledbTemplate_s@Oracledb@@0V?$Persistent@VFunctionTemplate@v8@@V?$NonCopyablePersistentTraits@VFunctionTemplate@v8@@@2@@Nan@@A 0000000180076920     njsOracle.obj
 0003:00002928       ?poolTemplate_s@Pool@@2V?$Persistent@VFunctionTemplate@v8@@V?$NonCopyablePersistentTraits@VFunctionTemplate@v8@@@2@@Nan@@A 0000000180076928     njsPool.obj
 0003:00002930       ?connectionTemplate_s@Connection@@2V?$Persistent@VFunctionTemplate@v8@@V?$NonCopyablePersistentTraits@VFunctionTemplate@v8@@@2@@Nan@@A 0000000180076930     njsConnection.obj
 0003:00002938       ?resultSetTemplate_s@ResultSet@@2V?$Persistent@VFunctionTemplate@v8@@V?$NonCopyablePersistentTraits@VFunctionTemplate@v8@@@2@@Nan@@A 0000000180076938     njsResultSet.obj
 0003:00002940       ?iLobTemplate_s@ILob@@2V?$Persistent@VFunctionTemplate@v8@@V?$NonCopyablePersistentTraits@VFunctionTemplate@v8@@@2@@Nan@@A 0000000180076940     njsIntLob.obj
 0003:00002948       ?s_propPingName_@ConnImpl@@0V?$basic_string@DU?$char_traits@D@std@@V?$allocator@D@2@@std@@A 0000000180076948     dpiConnImpl.obj
 0003:00002968       ?id@?$num_put@DV?$ostreambuf_iterator@DU?$char_traits@D@std@@@std@@@std@@2V0locale@2@A 0000000180076968     njsOracle.obj
 0003:00002970       ?id@?$numpunct@D@std@@2V0locale@2@A 0000000180076970     njsOracle.obj
 0003:00002978       __dyn_tls_init_callback    0000000180076978     <common>
 0003:00002980       __scrt_ucrt_dll_is_in_use  0000000180076980     <common>
 0005:00000000       _tls_start                 000000018007b000     LIBCMT:tlssup.obj
 0005:00000004       _Init_thread_epoch         000000018007b004     LIBCMT:thread_safe_statics.obj
 0005:00000008       _tls_end                   000000018007b008     LIBCMT:tlssup.obj

 entry point at        0001:000319c4

 Static symbols

 0000:fff81000       .debug$S                   0000000180000000     kernel32:KERNEL32.dll
 0000:fff81000       .debug$S                   0000000180000000     kernel32:KERNEL32.dll
 0000:fff81000       .debug$S                   0000000180000000     kernel32:KERNEL32.dll
 0000:fff81000       .debug$S                   0000000180000000     kernel32:KERNEL32.dll
 0000:fff81000       .debug$S                   0000000180000000     kernel32:KERNEL32.dll
 0000:fff81000       .debug$S                   0000000180000000     kernel32:KERNEL32.dll
 0000:fff81000       .debug$S                   0000000180000000     kernel32:KERNEL32.dll
 0000:fff81000       .debug$S                   0000000180000000     kernel32:KERNEL32.dll
 0000:fff81000       .debug$S                   0000000180000000     kernel32:KERNEL32.dll
 0000:fff81000       .debug$S                   0000000180000000     kernel32:KERNEL32.dll
 0000:fff81000       .debug$S                   0000000180000000     kernel32:KERNEL32.dll
 0000:fff81000       .debug$S                   0000000180000000     kernel32:KERNEL32.dll
 0000:fff81000       .debug$S                   0000000180000000     kernel32:KERNEL32.dll
 0000:fff81000       .debug$S                   0000000180000000     kernel32:KERNEL32.dll
 0000:fff81000       .debug$S                   0000000180000000     kernel32:KERNEL32.dll
 0000:fff81000       .debug$S                   0000000180000000     kernel32:KERNEL32.dll
 0000:fff81000       .debug$S                   0000000180000000     kernel32:KERNEL32.dll
 0000:fff81000       .debug$S                   0000000180000000     kernel32:KERNEL32.dll
 0000:fff81000       .debug$S                   0000000180000000     kernel32:KERNEL32.dll
 0000:fff81000       .debug$S                   0000000180000000     kernel32:KERNEL32.dll
 0000:fff81000       .debug$S                   0000000180000000     kernel32:KERNEL32.dll
 0000:fff81000       .debug$S                   0000000180000000     kernel32:KERNEL32.dll
 0000:fff81000       .debug$S                   0000000180000000     kernel32:KERNEL32.dll
 0000:fff81000       .debug$S                   0000000180000000     kernel32:KERNEL32.dll
 0000:fff81000       .debug$S                   0000000180000000     node:node.exe
 0000:fff81000       .debug$S                   0000000180000000     node:node.exe
 0000:fff81000       .debug$S                   0000000180000000     node:node.exe
 0000:fff81000       .debug$S                   0000000180000000     kernel32:KERNEL32.dll
 0000:fff81000       .debug$S                   0000000180000000     kernel32:KERNEL32.dll
 0000:fff81000       .debug$S                   0000000180000000     kernel32:KERNEL32.dll
 0000:fff81000       .debug$S                   0000000180000000     kernel32:KERNEL32.dll
 0000:fff81000       .debug$S                   0000000180000000     kernel32:KERNEL32.dll
 0000:fff81000       .debug$S                   0000000180000000     kernel32:KERNEL32.dll
 0000:fff81000       .debug$S                   0000000180000000     kernel32:KERNEL32.dll
 0000:fff81000       .debug$S                   0000000180000000     kernel32:KERNEL32.dll
 0000:fff81000       .debug$S                   0000000180000000     kernel32:KERNEL32.dll
 0000:fff81000       .debug$S                   0000000180000000     kernel32:KERNEL32.dll
 0000:fff81000       .debug$S                   0000000180000000     kernel32:KERNEL32.dll
 0000:fff81000       .debug$S                   0000000180000000     kernel32:KERNEL32.dll
 0000:fff81000       .debug$S                   0000000180000000     kernel32:KERNEL32.dll
 0000:fff81000       .debug$S                   0000000180000000     kernel32:KERNEL32.dll
 0000:fff81000       .debug$S                   0000000180000000     kernel32:KERNEL32.dll
 0000:fff81000       .debug$S                   0000000180000000     node:node.exe
 0000:fff81000       .debug$S                   0000000180000000     node:node.exe
 0000:fff81000       .debug$S                   0000000180000000     node:node.exe
 0000:fff81000       .debug$S                   0000000180000000     kernel32:KERNEL32.dll
 0000:fff81000       .debug$S                   0000000180000000     node:node.exe
 0000:fff81000       .debug$S                   0000000180000000     kernel32:KERNEL32.dll
 0000:fff81000       .debug$S                   0000000180000000     kernel32:KERNEL32.dll
 0000:fff81000       .debug$S                   0000000180000000     node:node.exe
 0000:fff81000       .debug$S                   0000000180000000     kernel32:KERNEL32.dll
 0000:fff81000       .debug$S                   0000000180000000     node:node.exe
 0000:fff81000       .debug$S                   0000000180000000     kernel32:KERNEL32.dll
 0000:fff81000       .debug$S                   0000000180000000     kernel32:KERNEL32.dll
 0000:fff81000       .debug$S                   0000000180000000     kernel32:KERNEL32.dll
 0000:fff81000       .debug$S                   0000000180000000     kernel32:KERNEL32.dll
 0000:fff81000       .debug$S                   0000000180000000     kernel32:KERNEL32.dll
 0000:fff81000       .debug$S                   0000000180000000     node:node.exe
 0000:fff81000       .debug$S                   0000000180000000     node:node.exe
 0000:fff81000       .debug$S                   0000000180000000     node:node.exe
 0000:fff81000       .debug$S                   0000000180000000     node:node.exe
 0000:fff81000       .debug$S                   0000000180000000     node:node.exe
 0000:fff81000       .debug$S                   0000000180000000     node:node.exe
 0000:fff81000       .debug$S                   0000000180000000     node:node.exe
 0000:fff81000       .debug$S                   0000000180000000     node:node.exe
 0000:fff81000       .debug$S                   0000000180000000     node:node.exe
 0000:fff81000       .debug$S                   0000000180000000     node:node.exe
 0000:fff81000       .debug$S                   0000000180000000     node:node.exe
 0000:fff81000       .debug$S                   0000000180000000     node:node.exe
 0000:fff81000       .debug$S                   0000000180000000     node:node.exe
 0000:fff81000       .debug$S                   0000000180000000     kernel32:KERNEL32.dll
 0000:fff81000       .debug$S                   0000000180000000     node:node.exe
 0000:fff81000       .debug$S                   0000000180000000     oci:OCI.dll
 0000:fff81000       .debug$S                   0000000180000000     oci:OCI.dll
 0000:fff81000       .debug$S                   0000000180000000     oci:OCI.dll
 0000:fff81000       .debug$S                   0000000180000000     oci:OCI.dll
 0000:fff81000       .debug$S                   0000000180000000     oci:OCI.dll
 0000:fff81000       .debug$S                   0000000180000000     oci:OCI.dll
 0000:fff81000       .debug$S                   0000000180000000     oci:OCI.dll
 0000:fff81000       .debug$S                   0000000180000000     oci:OCI.dll
 0000:fff81000       .debug$S                   0000000180000000     oci:OCI.dll
 0000:fff81000       .debug$S                   0000000180000000     oci:OCI.dll
 0000:fff81000       .debug$S                   0000000180000000     oci:OCI.dll
 0000:fff81000       .debug$S                   0000000180000000     oci:OCI.dll
 0000:fff81000       .debug$S                   0000000180000000     node:node.exe
 0000:fff81000       .debug$S                   0000000180000000     oci:OCI.dll
 0000:fff81000       .debug$S                   0000000180000000     oci:OCI.dll
 0000:fff81000       .debug$S                   0000000180000000     kernel32:KERNEL32.dll
 0000:fff81000       .debug$S                   0000000180000000     oci:OCI.dll
 0000:fff81000       .debug$S                   0000000180000000     oci:OCI.dll
 0000:fff81000       .debug$S                   0000000180000000     oci:OCI.dll
 0000:fff81000       .debug$S                   0000000180000000     oci:OCI.dll
 0000:fff81000       .debug$S                   0000000180000000     oci:OCI.dll
 0000:fff81000       .debug$S                   0000000180000000     oci:OCI.dll
 0000:fff81000       .debug$S                   0000000180000000     oci:OCI.dll
 0000:fff81000       .debug$S                   0000000180000000     oci:OCI.dll
 0000:fff81000       .debug$S                   0000000180000000     oci:OCI.dll
 0000:fff81000       .debug$S                   0000000180000000     oci:OCI.dll
 0000:fff81000       .debug$S                   0000000180000000     oci:OCI.dll
 0000:fff81000       .debug$S                   0000000180000000     oci:OCI.dll
 0000:fff81000       .debug$S                   0000000180000000     oci:OCI.dll
 0000:fff81000       .debug$S                   0000000180000000     oci:OCI.dll
 0000:fff81000       .debug$S                   0000000180000000     oci:OCI.dll
 0000:fff81000       .debug$S                   0000000180000000     oci:OCI.dll
 0000:fff81000       .debug$S                   0000000180000000     oci:OCI.dll
 0000:fff81000       .debug$S                   0000000180000000     oci:OCI.dll
 0000:fff81000       .debug$S                   0000000180000000     oci:OCI.dll
 0000:fff81000       .debug$S                   0000000180000000     oci:OCI.dll
 0000:fff81000       .debug$S                   0000000180000000     oci:OCI.dll
 0000:fff81000       .debug$S                   0000000180000000     oci:OCI.dll
 0000:fff81000       .debug$S                   0000000180000000     oci:OCI.dll
 0000:fff81000       .debug$S                   0000000180000000     oci:OCI.dll
 0000:fff81000       .debug$S                   0000000180000000     oci:OCI.dll
 0000:fff81000       .debug$S                   0000000180000000     oci:OCI.dll
 0000:fff81000       .debug$S                   0000000180000000     kernel32:KERNEL32.dll
 0000:fff81000       .debug$S                   0000000180000000     oci:OCI.dll
 0000:fff81000       .debug$S                   0000000180000000     oci:OCI.dll
 0000:fff81000       .debug$S                   0000000180000000     node:node.exe
 0000:fff81000       .debug$S                   0000000180000000     node:node.exe
 0000:fff81000       .debug$S                   0000000180000000     node:node.exe
 0000:fff81000       .debug$S                   0000000180000000     node:node.exe
 0000:fff81000       .debug$S                   0000000180000000     kernel32:KERNEL32.dll
 0000:fff81000       .debug$S                   0000000180000000     kernel32:KERNEL32.dll
 0000:fff81000       .debug$S                   0000000180000000     node:node.exe
 0000:fff81000       .debug$S                   0000000180000000     kernel32:KERNEL32.dll
 0000:fff81000       .debug$S                   0000000180000000     kernel32:KERNEL32.dll
 0000:fff81000       .debug$S                   0000000180000000     kernel32:KERNEL32.dll
 0000:fff81000       .debug$S                   0000000180000000     kernel32:KERNEL32.dll
 0000:fff81000       .debug$S                   0000000180000000     node:node.exe
 0000:fff81000       .debug$S                   0000000180000000     node:node.exe
 0000:fff81000       .debug$S                   0000000180000000     node:node.exe
 0000:fff81000       .debug$S                   0000000180000000     node:node.exe
 0000:fff81000       .debug$S                   0000000180000000     node:node.exe
 0000:fff81000       .debug$S                   0000000180000000     node:node.exe
 0000:fff81000       .debug$S                   0000000180000000     node:node.exe
 0000:fff81000       .debug$S                   0000000180000000     node:node.exe
 0000:fff81000       .debug$S                   0000000180000000     node:node.exe
 0000:fff81000       .debug$S                   0000000180000000     node:node.exe
 0000:fff81000       .debug$S                   0000000180000000     node:node.exe
 0000:fff81000       .debug$S                   0000000180000000     node:node.exe
 0000:fff81000       .debug$S                   0000000180000000     node:node.exe
 0000:fff81000       .debug$S                   0000000180000000     node:node.exe
 0000:fff81000       .debug$S                   0000000180000000     node:node.exe
 0000:fff81000       .debug$S                   0000000180000000     kernel32:KERNEL32.dll
 0000:fff81000       .debug$S                   0000000180000000     kernel32:KERNEL32.dll
 0000:fff81000       .debug$S                   0000000180000000     kernel32:KERNEL32.dll
 0000:fff81000       .debug$S                   0000000180000000     kernel32:KERNEL32.dll
 0000:fff81000       .debug$S                   0000000180000000     kernel32:KERNEL32.dll
 0000:fff81000       .debug$S                   0000000180000000     kernel32:KERNEL32.dll
 0000:fff81000       .debug$S                   0000000180000000     kernel32:KERNEL32.dll
 0000:fff81000       .debug$S                   0000000180000000     kernel32:KERNEL32.dll
 0000:fff81000       .debug$S                   0000000180000000     node:node.exe
 0000:fff81000       .debug$S                   0000000180000000     node:node.exe
 0000:fff81000       .debug$S                   0000000180000000     node:node.exe
 0000:fff81000       .debug$S                   0000000180000000     node:node.exe
 0000:fff81000       .debug$S                   0000000180000000     node:node.exe
 0000:fff81000       .debug$S                   0000000180000000     node:node.exe
 0000:fff81000       .debug$S                   0000000180000000     node:node.exe
 0000:fff81000       .debug$S                   0000000180000000     node:node.exe
 0000:fff81000       .debug$S                   0000000180000000     node:node.exe
 0000:fff81000       .debug$S                   0000000180000000     node:node.exe
 0000:fff81000       .debug$S                   0000000180000000     node:node.exe
 0000:fff81000       .debug$S                   0000000180000000     node:node.exe
 0000:fff81000       .debug$S                   0000000180000000     node:node.exe
 0000:fff81000       .debug$S                   0000000180000000     node:node.exe
 0000:fff81000       .debug$S                   0000000180000000     node:node.exe
 0000:fff81000       .debug$S                   0000000180000000     node:node.exe
 0000:fff81000       .debug$S                   0000000180000000     node:node.exe
 0000:fff81000       .debug$S                   0000000180000000     node:node.exe
 0000:fff81000       .debug$S                   0000000180000000     node:node.exe
 0000:fff81000       .debug$S                   0000000180000000     node:node.exe
 0000:fff81000       .debug$S                   0000000180000000     node:node.exe
 0000:fff81000       .debug$S                   0000000180000000     node:node.exe
 0000:fff81000       .debug$S                   0000000180000000     node:node.exe
 0000:fff81000       .debug$S                   0000000180000000     node:node.exe
 0000:fff81000       .debug$S                   0000000180000000     node:node.exe
 0000:fff81000       .debug$S                   0000000180000000     node:node.exe
 0000:fff81000       .debug$S                   0000000180000000     node:node.exe
 0000:fff81000       .debug$S                   0000000180000000     node:node.exe
 0000:fff81000       .debug$S                   0000000180000000     node:node.exe
 0000:fff81000       .debug$S                   0000000180000000     node:node.exe
 0000:fff81000       .debug$S                   0000000180000000     node:node.exe
 0000:fff81000       .debug$S                   0000000180000000     node:node.exe
 0000:fff81000       .debug$S                   0000000180000000     kernel32:KERNEL32.dll
 0000:fff81000       .debug$S                   0000000180000000     kernel32:KERNEL32.dll
 0000:fff81000       .debug$S                   0000000180000000     node:node.exe
 0000:fff81000       .debug$S                   0000000180000000     node:node.exe
 0000:fff81000       .debug$S                   0000000180000000     node:node.exe
 0000:fff81000       .debug$S                   0000000180000000     node:node.exe
 0000:fff81000       .debug$S                   0000000180000000     node:node.exe
 0000:fff81000       .debug$S                   0000000180000000     node:node.exe
 0000:fff81000       .debug$S                   0000000180000000     node:node.exe
 0000:fff81000       .debug$S                   0000000180000000     node:node.exe
 0000:fff81000       .debug$S                   0000000180000000     node:node.exe
 0000:fff81000       .debug$S                   0000000180000000     node:node.exe
 0000:fff81000       .debug$S                   0000000180000000     node:node.exe
 0000:fff81000       .debug$S                   0000000180000000     node:node.exe
 0000:fff81000       .debug$S                   0000000180000000     kernel32:KERNEL32.dll
 0000:fff81000       .debug$S                   0000000180000000     node:node.exe
 0000:fff81000       .debug$S                   0000000180000000     node:node.exe
 0000:fff81000       .debug$S                   0000000180000000     node:node.exe
 0000:fff81000       .debug$S                   0000000180000000     kernel32:KERNEL32.dll
 0000:fff81000       .debug$S                   0000000180000000     kernel32:KERNEL32.dll
 0000:fff81000       .debug$S                   0000000180000000     node:node.exe
 0000:fff81000       .debug$S                   0000000180000000     node:node.exe
 0000:fff81000       .debug$S                   0000000180000000     node:node.exe
 0000:fff81000       .debug$S                   0000000180000000     node:node.exe
 0000:fff81000       .debug$S                   0000000180000000     node:node.exe
 0000:fff81000       .debug$S                   0000000180000000     kernel32:KERNEL32.dll
 0000:fff81000       .debug$S                   0000000180000000     node:node.exe
 0000:fff81000       .debug$S                   0000000180000000     node:node.exe
 0000:fff81000       .debug$S                   0000000180000000     oracledb.exp
 0000:fff81000       .debug$S                   0000000180000000     kernel32:KERNEL32.dll
 0000:fff81000       .debug$S                   0000000180000000     kernel32:KERNEL32.dll
 0000:fff81000       .debug$S                   0000000180000000     kernel32:KERNEL32.dll
 0000:fff81000       .debug$S                   0000000180000000     kernel32:KERNEL32.dll
 0000:fff81000       .debug$S                   0000000180000000     kernel32:KERNEL32.dll
 0000:fff81000       .debug$S                   0000000180000000     kernel32:KERNEL32.dll
 0000:fff81000       .debug$S                   0000000180000000     kernel32:KERNEL32.dll
 0000:fff81000       .debug$S                   0000000180000000     kernel32:KERNEL32.dll
 0000:fff81000       .debug$S                   0000000180000000     kernel32:KERNEL32.dll
 0000:fff81000       .debug$S                   0000000180000000     node:node.exe
 0000:fff81000       .debug$S                   0000000180000000     kernel32:KERNEL32.dll
 0000:fff81000       .debug$S                   0000000180000000     kernel32:KERNEL32.dll
 0000:fff81000       .debug$S                   0000000180000000     kernel32:KERNEL32.dll
 0000:fff81000       .debug$S                   0000000180000000     kernel32:KERNEL32.dll
 0000:fff81000       .debug$S                   0000000180000000     kernel32:KERNEL32.dll
 0000:fff81000       .debug$S                   0000000180000000     kernel32:KERNEL32.dll
 0000:fff81000       .debug$S                   0000000180000000     kernel32:KERNEL32.dll
 0000:fff81000       .debug$S                   0000000180000000     node:node.exe
 0000:fff81000       .debug$S                   0000000180000000     kernel32:KERNEL32.dll
 0000:fff81000       .debug$S                   0000000180000000     kernel32:KERNEL32.dll
 0000:fff81000       .debug$S                   0000000180000000     kernel32:KERNEL32.dll
 0000:fff81000       .debug$S                   0000000180000000     kernel32:KERNEL32.dll
 0000:fff81000       .debug$S                   0000000180000000     kernel32:KERNEL32.dll
 0000:fff81000       .debug$S                   0000000180000000     kernel32:KERNEL32.dll
 0000:fff81000       .debug$S                   0000000180000000     kernel32:KERNEL32.dll
 0000:fff81000       .debug$S                   0000000180000000     kernel32:KERNEL32.dll
 0000:fff81000       .debug$S                   0000000180000000     node:node.exe
 0000:fff81000       .debug$S                   0000000180000000     node:node.exe
 0000:fff81000       .debug$S                   0000000180000000     node:node.exe
 0000:fff81000       .debug$S                   0000000180000000     kernel32:KERNEL32.dll
 0000:fff81000       .debug$S                   0000000180000000     kernel32:KERNEL32.dll
 0000:fff81000       .debug$S                   0000000180000000     kernel32:KERNEL32.dll
 0000:fff81000       .debug$S                   0000000180000000     kernel32:KERNEL32.dll
 0001:00000000       ??__E?oracledbTemplate_s@Oracledb@@0V?$Persistent@VFunctionTemplate@v8@@V?$NonCopyablePersistentTraits@VFunctionTemplate@v8@@@2@@Nan@@A@@YAXXZ 0000000180001000 f   njsOracle.obj
 0001:00000010       ??__E?poolTemplate_s@Pool@@2V?$Persistent@VFunctionTemplate@v8@@V?$NonCopyablePersistentTraits@VFunctionTemplate@v8@@@2@@Nan@@A@@YAXXZ 0000000180001010 f   njsPool.obj
 0001:00000020       ??__E?connectionTemplate_s@Connection@@2V?$Persistent@VFunctionTemplate@v8@@V?$NonCopyablePersistentTraits@VFunctionTemplate@v8@@@2@@Nan@@A@@YAXXZ 0000000180001020 f   njsConnection.obj
 0001:00000030       ??__E?resultSetTemplate_s@ResultSet@@2V?$Persistent@VFunctionTemplate@v8@@V?$NonCopyablePersistentTraits@VFunctionTemplate@v8@@@2@@Nan@@A@@YAXXZ 0000000180001030 f   njsResultSet.obj
 0001:00000040       ??__E?iLobTemplate_s@ILob@@2V?$Persistent@VFunctionTemplate@v8@@V?$NonCopyablePersistentTraits@VFunctionTemplate@v8@@@2@@Nan@@A@@YAXXZ 0000000180001040 f   njsIntLob.obj
 0001:00000050       ??__E?s_propPingName_@ConnImpl@@0V?$basic_string@DU?$char_traits@D@std@@V?$allocator@D@2@@std@@A@@YAXXZ 0000000180001050 f   dpiConnImpl.obj
 0001:000000a8       ??__Einitlocks@std@@YAXXZ  00000001800010a8 f   libcpmt:xlock.obj
 0001:000000c8       ??__E_Fac_tidy_reg@std@@YAXXZ 00000001800010c8 f   libcpmt:locale0.obj
 0001:000000d4       ??__Eclassic_locale@std@@YAXXZ 00000001800010d4 f   libcpmt:locale0.obj
 0001:000000e0       ??__Einit_atexit@@YAXXZ    00000001800010e0 f   libcpmt:iosptrs.obj
 0001:000000ec       ??__Einitlocks@std@@YAXXZ  00000001800010ec f   libcpmt:iosptrs.obj
 0001:00000d50       ?FunctionCallbackWrapper@imp@Nan@@YAXAEBV?$FunctionCallbackInfo@VValue@v8@@@v8@@@Z 0000000180001d50 f   njsOracle.obj
 0001:00000e20       ?GetterCallbackWrapper@imp@Nan@@YAXV?$Local@VName@v8@@@v8@@AEBV?$PropertyCallbackInfo@VValue@v8@@@4@@Z 0000000180001e20 f   njsOracle.obj
 0001:00000ef0       ?SetterCallbackWrapper@imp@Nan@@YAXV?$Local@VName@v8@@@v8@@V?$Local@VValue@v8@@@4@AEBV?$PropertyCallbackInfo@X@4@@Z 0000000180001ef0 f   njsOracle.obj
 0001:00009350       init                       000000018000a350 f   njsOracle.obj
 0001:00009390       _register_oracledb         000000018000a390 f   njsOracle.obj
 0001:0000a020       no_op_initialize           000000018000b020 f i libucrt:wsetlocale.obj
 0001:00016bac       $LN141                     0000000180017bac     njsConnection.obj
 0001:00017a74       $LN873                     0000000180018a74     njsConnection.obj
 0001:0001ad48       $LN394                     000000018001bd48     njsConnection.obj
 0001:0001ad6c       $LN393                     000000018001bd6c     njsConnection.obj
 0001:0001aea4       $LN9                       000000018001bea4     njsConnection.obj
 0001:0001aeb4       $LN8                       000000018001beb4     njsConnection.obj
 0001:0001b1bc       $LN52                      000000018001c1bc     njsConnection.obj
 0001:0001b1cc       $LN51                      000000018001c1cc     njsConnection.obj
 0001:0001c288       $LN994                     000000018001d288     njsConnection.obj
 0001:0001c2a4       $LN993                     000000018001d2a4     njsConnection.obj
 0001:0001d710       $LN346                     000000018001e710     njsConnection.obj
 0001:0001d720       $LN345                     000000018001e720     njsConnection.obj
 0001:0001e1a0       $LN156                     000000018001f1a0     njsConnection.obj
 0001:0001e1bc       $LN155                     000000018001f1bc     njsConnection.obj
 0001:0001e7c4       $LN207                     000000018001f7c4     njsConnection.obj
 0001:0001e7dc       $LN206                     000000018001f7dc     njsConnection.obj
 0001:000220b0       $LN914                     00000001800230b0     njsConnection.obj
 0001:000220d4       $LN913                     00000001800230d4     njsConnection.obj
 0001:00022314       $LN23                      0000000180023314     njsConnection.obj
 0001:0002232c       $LN22                      000000018002332c     njsConnection.obj
 0001:000229c0       ??$_Resize@V<lambda_27fc62b364300129d37f074ac1a3b580>@@@?$vector@PEAUExtDefine@@V?$allocator@PEAUExtDefine@@@std@@@std@@AEAAX_KV<lambda_27fc62b364300129d37f074ac1a3b580>@@@Z 00000001800239c0 f   njsConnection.obj
 0001:0002ed60       ?ociCallCommon@@YAXHPEAXI@Z 000000018002fd60 f   dpiUtils.obj
 0001:0002ee50       ?load_exe_hook@@YAP6A_JXZIPEAUDelayLoadInfo@@@Z 000000018002fe50 f   win_delay_load_hook.obj
 0001:0002f8b0       tidy_global                00000001800308b0 f   libcpmt:locale0.obj
 0001:00030068       ?swfun@std@@YAXAEAVios_base@1@_J@Z 0000000180031068 f   libcpmt:iomanip.obj
 0001:000303c4       ?initialize_pointers@@YAHXZ 00000001800313c4 f   libcpmt:winapisupp.obj
 0001:00030ad0       $$000000                   0000000180031ad0     LIBCMT:_amdsecgs_.obj
 0001:00030b0c       ?__scrt_initialize_thread_safe_statics@@YAHXZ 0000000180031b0c f   LIBCMT:thread_safe_statics.obj
 0001:00030c58       ?__scrt_uninitialize_thread_safe_statics@@YAXXZ 0000000180031c58 f   LIBCMT:thread_safe_statics.obj
 0001:000315a4       capture_current_context    00000001800325a4 f   LIBCMT:gs_report.obj
 0001:00031614       capture_previous_context   0000000180032614 f   LIBCMT:gs_report.obj
 0001:00031688       ?dllmain_crt_dispatch@@YAHQEAUHINSTANCE__@@KQEAX@Z 0000000180032688 f   LIBCMT:dll_dllmain.obj
 0001:000316d8       ?dllmain_crt_process_attach@@YAHQEAUHINSTANCE__@@QEAX@Z 00000001800326d8 f   LIBCMT:dll_dllmain.obj
 0001:000317ec       ?dllmain_crt_process_detach@@YAH_N@Z 00000001800327ec f   LIBCMT:dll_dllmain.obj
 0001:00031878       ?dllmain_dispatch@@YAHQEAUHINSTANCE__@@KQEAX@Z 0000000180032878 f   LIBCMT:dll_dllmain.obj
 0001:00031970       ?dllmain_raw@@YAHQEAUHINSTANCE__@@KQEAX@Z 0000000180032970 f   LIBCMT:dll_dllmain.obj
 0001:00031b10       $$000000                   0000000180032b10     LIBCMT:_chkstk_.obj
 0001:00032750       $$000000                   0000000180033750     libvcruntime:memcpy.obj
 0001:000327f7       MoveSmall                  00000001800337f7     libvcruntime:memcpy.obj
 0001:00032cb8       ?CatchIt@@YAXPEAUEHExceptionRecord@@PEA_KPEAU_CONTEXT@@PEAU_xDISPATCHER_CONTEXT@@PEBU_s_FuncInfo@@PEBU_s_HandlerType@@PEBU_s_CatchableType@@PEBU_s_TryBlockMapEntry@@H1EE@Z 0000000180033cb8 f   libvcruntime:frame.obj
 0001:00032d7c       ?ExFilterRethrow@@YAHPEAU_EXCEPTION_POINTERS@@PEAUEHExceptionRecord@@PEAH@Z 0000000180033d7c f   libvcruntime:frame.obj
 0001:00032e04       ?FindHandler@@YAXPEAUEHExceptionRecord@@PEA_KPEAU_CONTEXT@@PEAU_xDISPATCHER_CONTEXT@@PEBU_s_FuncInfo@@EH1@Z 0000000180033e04 f   libvcruntime:frame.obj
 0001:000332d4       ?FindHandlerForForeignException@@YAXPEAUEHExceptionRecord@@PEA_KPEAU_CONTEXT@@PEAU_xDISPATCHER_CONTEXT@@PEBU_s_FuncInfo@@HH1@Z 00000001800342d4 f   libvcruntime:frame.obj
 0001:00033540       ?IsInExceptionSpec@@YAEPEAUEHExceptionRecord@@PEBU_s_ESTypeList@@@Z 0000000180034540 f   libvcruntime:frame.obj
 0001:00034200       $$000000                   0000000180035200     libvcruntime:memset.obj
 0001:000342ec       MsetTab                    00000001800352ec     libvcruntime:memset.obj
 0001:000343b0       $$000000                   00000001800353b0     libvcruntime:memcmp.obj
 0001:00034488       ?try_get_function@@YAPEAXW4function_id@?A0x37284e77@@QEBDQEBW4module_id@2@2@Z 0000000180035488 f   libvcruntime:winapi_downlevel.obj
 0001:00034e80       $$000000                   0000000180035e80     libvcruntime:handlers.obj
 0001:00034f10       $$000000                   0000000180035f10     libvcruntime:_jmpuwind_.obj
 0001:000353b0       ??$?RV<lambda_0d412022a4b28cc8a401ea49574e8ae6>@@AEAV<lambda_a775ed57af18ba8e4d5dc780aa9068fe>@@V<lambda_975a71a6baa488a08f4e15f6b0339b9e>@@@?$__crt_seh_guarded_call@H@@QEAAH$$QEAV<lambda_0d412022a4b28cc8a401ea49574e8ae6>@@AEAV<lambda_a775ed57af18ba8e4d5dc780aa9068fe>@@$$QEAV<lambda_975a71a6baa488a08f4e15f6b0339b9e>@@@Z 00000001800363b0 f   libucrt:output.obj
 0001:000353f0       ??$common_vsprintf@Vformat_validation_base@__crt_stdio_output@@D@@YAH_KQEAD0QEBDQEAU__crt_locale_pointers@@1@Z 00000001800363f0 f   libucrt:output.obj
 0001:000355bc       ??$common_vsprintf@Vstandard_base@__crt_stdio_output@@D@@YAH_KQEAD0QEBDQEAU__crt_locale_pointers@@1@Z 00000001800365bc f   libucrt:output.obj
 0001:00035788       ??$common_vsprintf@Vstandard_base@__crt_stdio_output@@_W@@YAH_KQEA_W0QEB_WQEAU__crt_locale_pointers@@QEAD@Z 0000000180036788 f   libucrt:output.obj
 0001:00035ef0       ??R<lambda_a775ed57af18ba8e4d5dc780aa9068fe>@@QEBAHXZ 0000000180036ef0 f   libucrt:output.obj
 0001:00038cbc       ??$common_assert_to_message_box@_W@@YAXQEB_W0IQEAX@Z 0000000180039cbc f   libucrt:assert.obj
 0001:00038d80       ??$common_assert_to_message_box_build_string@_W@@YAXQEA_W_KQEB_W2IQEAX@Z 0000000180039d80 f   libucrt:assert.obj
 0001:00039540       ??$common_assert_to_stderr@_W@@YAXQEB_W0I@Z 000000018003a540 f   libucrt:assert.obj
 0001:000396b0       ?get_assert_format@@YAPEB_W_W@Z 000000018003a6b0 f   libucrt:assert.obj
 0001:00039a00       ??$?RV<lambda_9bd929c17696992ce54f1d748594fc62>@@AEAV<lambda_082c17da81b0962e08c0587ee0fac50c>@@V<lambda_9c08ac857f4975304d44e9f601d9b878>@@@?$__crt_seh_guarded_call@PEAD@@QEAAPEAD$$QEAV<lambda_9bd929c17696992ce54f1d748594fc62>@@AEAV<lambda_082c17da81b0962e08c0587ee0fac50c>@@$$QEAV<lambda_9c08ac857f4975304d44e9f601d9b878>@@@Z 000000018003aa00 f   libucrt:setlocale.obj
 0001:00039a40       ??R<lambda_082c17da81b0962e08c0587ee0fac50c>@@QEBAPEADXZ 000000018003aa40 f   libucrt:setlocale.obj
 0001:0003a730       ?x_ismbbtype_l@@YAHPEAU__crt_locale_pointers@@IHH@Z 000000018003b730 f   libucrt:ismbbyte.obj
 0001:0003ad6c       memcpy_s                   000000018003bd6c f   libucrt:strtod.obj
 0001:0003ad6c       memcpy_s                   000000018003bd6c f   libucrt:cfout.obj
 0001:0003ae00       $$000000                   000000018003be00     libucrt:pow.obj
 0001:0003c4a0       $$000000                   000000018003d4a0     libucrt:powf.obj
 0001:0003d3c0       ?internal_isupper_l@@YA_NHQEAU__crt_locale_pointers@@@Z 000000018003e3c0 f   libucrt:tolower_toupper.obj
 0001:0003daf4       ??$?RV<lambda_d80eeec6fff315bfe5c115232f3240e3>@@AEAV<lambda_6e4b09c48022b2350581041d5f6b0c4c>@@V<lambda_2358e3775559c9db80273638284d5e45>@@@?$__crt_seh_guarded_call@X@@QEAAX$$QEAV<lambda_d80eeec6fff315bfe5c115232f3240e3>@@AEAV<lambda_6e4b09c48022b2350581041d5f6b0c4c>@@$$QEAV<lambda_2358e3775559c9db80273638284d5e45>@@@Z 000000018003eaf4 f   libucrt:exit.obj
 0001:0003db2c       ??R<lambda_6e4b09c48022b2350581041d5f6b0c4c>@@QEBA@XZ 000000018003eb2c f   libucrt:exit.obj
 0001:0003dc04       ?atexit_exception_filter@@YAHK@Z 000000018003ec04 f   libucrt:exit.obj
 0001:0003dc10       ?common_exit@@YAXHW4_crt_exit_cleanup_mode@@W4_crt_exit_return_mode@@@Z 000000018003ec10 f   libucrt:exit.obj
 0001:0003dccc       ?exit_or_terminate_process@@YAXI@Z 000000018003eccc f   libucrt:exit.obj
 0001:0003dd18       ?try_cor_exit_process@@YAXI@Z 000000018003ed18 f   libucrt:exit.obj
 0001:0003dda0       ??$parse_command_line@D@@YAXPEADPEAPEAD0PEA_K2@Z 000000018003eda0 f   libucrt:argv_parsing.obj
 0001:0003e144       ??$common_initialize_environment_nolock@D@@YAHXZ 000000018003f144 f   libucrt:environment_initialization.obj
 0001:0003e1b0       ??$create_environment@D@@YAQEAPEADQEAD@Z 000000018003f1b0 f   libucrt:environment_initialization.obj
 0001:0003e2bc       ??$free_environment@D@@YAXQEAPEAD@Z 000000018003f2bc f   libucrt:environment_initialization.obj
 0001:0003e2bc       ??$free_environment@_W@@YAXQEAPEA_W@Z 000000018003f2bc f   libucrt:environment_initialization.obj
 0001:0003e300       ??$uninitialize_environment_internal@D@@YAXAEAPEAPEAD@Z 000000018003f300 f   libucrt:environment_initialization.obj
 0001:0003e31c       ??$uninitialize_environment_internal@_W@@YAXAEAPEAPEA_W@Z 000000018003f31c f   libucrt:environment_initialization.obj
 0001:0003e378       ??$?RV<lambda_7777bce6b2f8c936911f934f8298dc43>@@AEAV<lambda_f03950bc5685219e0bcd2087efbe011e>@@V<lambda_3883c3dff614d5e0c5f61bb1ac94921c>@@@?$__crt_seh_guarded_call@H@@QEAAH$$QEAV<lambda_7777bce6b2f8c936911f934f8298dc43>@@AEAV<lambda_f03950bc5685219e0bcd2087efbe011e>@@$$QEAV<lambda_3883c3dff614d5e0c5f61bb1ac94921c>@@@Z 000000018003f378 f   libucrt:onexit.obj
 0001:0003e3b4       ??$?RV<lambda_8369fcb7c4df1e85de37618bd2b85f07>@@AEAV<lambda_a10e4b102d4a2c3aac6f4f48bbdf488f>@@V<lambda_5b7707bd6d7a0c4713179f36c7fd995d>@@@?$__crt_seh_guarded_call@H@@QEAAH$$QEAV<lambda_8369fcb7c4df1e85de37618bd2b85f07>@@AEAV<lambda_a10e4b102d4a2c3aac6f4f48bbdf488f>@@$$QEAV<lambda_5b7707bd6d7a0c4713179f36c7fd995d>@@@Z 000000018003f3b4 f   libucrt:onexit.obj
 0001:0003e3f0       ??R<lambda_a10e4b102d4a2c3aac6f4f48bbdf488f>@@QEBAHXZ 000000018003f3f0 f   libucrt:onexit.obj
 0001:0003e5b4       ??R<lambda_f03950bc5685219e0bcd2087efbe011e>@@QEBAHXZ 000000018003f5b4 f   libucrt:onexit.obj
 0001:0003e7d4       initialize_global_variables 000000018003f7d4 f   libucrt:initialization.obj
 0001:0003e7e8       initialize_c               000000018003f7e8 f   libucrt:initialization.obj
 0001:0003e80c       uninitialize_environment   000000018003f80c f   libucrt:initialization.obj
 0001:0003e81c       initialize_pointers        000000018003f81c f   libucrt:initialization.obj
 0001:0003e870       uninitialize_vcruntime     000000018003f870 f   libucrt:initialization.obj
 0001:0003e878       uninitialize_allocated_memory 000000018003f878 f   libucrt:initialization.obj
 0001:0003e908       uninitialize_c             000000018003f908 f   libucrt:initialization.obj
 0001:0003e908       initialize_environment     000000018003f908 f   libucrt:initialization.obj
 0001:0003e908       uninitialize_global_state_isolation 000000018003f908 f   libucrt:initialization.obj
 0001:0003e908       initialize_global_state_isolation 000000018003f908 f   libucrt:initialization.obj
 0001:0003e908       report_memory_leaks        000000018003f908 f   libucrt:initialization.obj
 0001:0003f4c4       ??$?RV<lambda_450d765d439847d4c735a33c368b5fc0>@@AEAV<lambda_44731a7d0e6d81c3e6aa82d741081786>@@V<lambda_601a2a7da3b7a96e9554ac7215c4b07c>@@@?$__crt_seh_guarded_call@P6AXH@Z@@QEAAP6AXH@Z$$QEAV<lambda_450d765d439847d4c735a33c368b5fc0>@@AEAV<lambda_44731a7d0e6d81c3e6aa82d741081786>@@$$QEAV<lambda_601a2a7da3b7a96e9554ac7215c4b07c>@@@Z 00000001800404c4 f   libucrt:signal.obj
 0001:0003f7d0       ??$?RV<lambda_0ae27a3a962d80f24befdcbee591983d>@@AEAV<lambda_8d0ee55de4b1038c4002e0adecdf1839>@@V<lambda_dc504788e8f1664fe9b84e20bfb512f2>@@@?$__crt_seh_guarded_call@X@@QEAAX$$QEAV<lambda_0ae27a3a962d80f24befdcbee591983d>@@AEAV<lambda_8d0ee55de4b1038c4002e0adecdf1839>@@$$QEAV<lambda_dc504788e8f1664fe9b84e20bfb512f2>@@@Z 00000001800407d0 f   libucrt:per_thread_data.obj
 0001:0003f810       ??$?RV<lambda_2d41944a1d46af3157314b8a01080d33>@@AEAV<lambda_8f455de75cd7d7f24b4096f044d8b9e6>@@V<lambda_aa500f224e6afead328df44964fe2772>@@@?$__crt_seh_guarded_call@X@@QEAAX$$QEAV<lambda_2d41944a1d46af3157314b8a01080d33>@@AEAV<lambda_8f455de75cd7d7f24b4096f044d8b9e6>@@$$QEAV<lambda_aa500f224e6afead328df44964fe2772>@@@Z 0000000180040810 f   libucrt:per_thread_data.obj
 0001:0003f850       ??$?RV<lambda_aa87e3671a710a21b5dc78c0bdf72e11>@@AEAV<lambda_92619d2358a28f41a33ba319515a20b9>@@V<lambda_6992ecaafeb10aed2b74cb1fae11a551>@@@?$__crt_seh_guarded_call@X@@QEAAX$$QEAV<lambda_aa87e3671a710a21b5dc78c0bdf72e11>@@AEAV<lambda_92619d2358a28f41a33ba319515a20b9>@@$$QEAV<lambda_6992ecaafeb10aed2b74cb1fae11a551>@@@Z 0000000180040850 f   libucrt:per_thread_data.obj
 0001:0003f898       ??$?RV<lambda_f2e299630e499de9f9a165e60fcd3db5>@@AEAV<lambda_2ae9d31cdba2644fcbeaf08da7c24588>@@V<lambda_40d01ff24d0e7b3814fdbdcee8eab3c7>@@@?$__crt_seh_guarded_call@X@@QEAAX$$QEAV<lambda_f2e299630e499de9f9a165e60fcd3db5>@@AEAV<lambda_2ae9d31cdba2644fcbeaf08da7c24588>@@$$QEAV<lambda_40d01ff24d0e7b3814fdbdcee8eab3c7>@@@Z 0000000180040898 f   libucrt:per_thread_data.obj
 0001:0003f8f8       ?construct_ptd_array@@YAXQEAU__acrt_ptd@@@Z 00000001800408f8 f   libucrt:per_thread_data.obj
 0001:0003f9c8       ?destroy_fls@@YAXPEAX@Z    00000001800409c8 f   libucrt:per_thread_data.obj
 0001:0003f9e8       ?destroy_ptd_array@@YAXQEAU__acrt_ptd@@@Z 00000001800409e8 f   libucrt:per_thread_data.obj
 0001:0003fae0       ?replace_current_thread_locale_nolock@@YAXQEAU__acrt_ptd@@QEAU__crt_locale_data@@@Z 0000000180040ae0 f   libucrt:per_thread_data.obj
 0001:00040248       ?fp_format_a@@YAHQEBNPEAD_KQEAD2H_NIQEAU__crt_locale_pointers@@@Z 0000000180041248 f   libucrt:cvt.obj
 0001:000405a4       ?fp_format_e@@YAHQEBNQEAD_K12H_NIQEAU__crt_locale_pointers@@@Z 00000001800415a4 f   libucrt:cvt.obj
 0001:00040674       ?fp_format_e_internal@@YAHQEAD_KH_NIQEAU_strflt@@2QEAU__crt_locale_pointers@@@Z 0000000180041674 f   libucrt:cvt.obj
 0001:00040848       ?fp_format_f_internal@@YAHQEAD_KHQEAU_strflt@@_NQEAU__crt_locale_pointers@@@Z 0000000180041848 f   libucrt:cvt.obj
 0001:00040990       ?fp_format_g@@YAHQEBNQEAD_K12H_NIQEAU__crt_locale_pointers@@@Z 0000000180041990 f   libucrt:cvt.obj
 0001:00040ac4       ?fp_format_nan_or_infinity@@YAHW4__acrt_fp_class@@_NPEAD_K1@Z 0000000180041ac4 f   libucrt:cvt.obj
 0001:000412cc       ??$?RV<lambda_410d79af7f07d98d83a3f525b3859a53>@@AEAV<lambda_3e16ef9562a7dcce91392c22ab16ea36>@@V<lambda_38119f0e861e05405d8a144b9b982f0a>@@@?$__crt_seh_guarded_call@X@@QEAAX$$QEAV<lambda_410d79af7f07d98d83a3f525b3859a53>@@AEAV<lambda_3e16ef9562a7dcce91392c22ab16ea36>@@$$QEAV<lambda_38119f0e861e05405d8a144b9b982f0a>@@@Z 00000001800422cc f   libucrt:wsetlocale.obj
 0001:0004133c       ??$?RV<lambda_9529fede68560d7205a1271ab16b352e>@@AEAV<lambda_ebf8c556deb379764da826e7bb46e993>@@V<lambda_db92443d3c9ace7c8a20b950bb983b5a>@@@?$__crt_seh_guarded_call@X@@QEAAX$$QEAV<lambda_9529fede68560d7205a1271ab16b352e>@@AEAV<lambda_ebf8c556deb379764da826e7bb46e993>@@$$QEAV<lambda_db92443d3c9ace7c8a20b950bb983b5a>@@@Z 000000018004233c f   libucrt:wsetlocale.obj
 0001:00041478       ??$?RV<lambda_d8a01803c7231904df012bb083be9e3a>@@AEAV<lambda_b163b37eafe0a13f2c371fafeb0365c9>@@AEAV<lambda_8dff2cf36a5417162780cd64fa2883ef>@@@?$__crt_seh_guarded_call@X@@QEAAX$$QEAV<lambda_d8a01803c7231904df012bb083be9e3a>@@AEAV<lambda_b163b37eafe0a13f2c371fafeb0365c9>@@AEAV<lambda_8dff2cf36a5417162780cd64fa2883ef>@@@Z 0000000180042478 f   libucrt:wsetlocale.obj
 0001:000414a4       ??R<lambda_b163b37eafe0a13f2c371fafeb0365c9>@@QEBA@XZ 00000001800424a4 f   libucrt:wsetlocale.obj
 0001:00041850       _copytlocinfo_nolock       0000000180042850 f   libucrt:wsetlocale.obj
 0001:00041e18       _wsetlocale_get_all        0000000180042e18 f   libucrt:wsetlocale.obj
 0001:00041ffc       _wsetlocale_nolock         0000000180042ffc f   libucrt:wsetlocale.obj
 0001:00042288       _wsetlocale_set_cat        0000000180043288 f   libucrt:wsetlocale.obj
 0001:000425c4       ?initialize_inherited_file_handles_nolock@@YAXXZ 00000001800435c4 f   libucrt:ioinit.obj
 0001:000426b0       ?initialize_stdio_handles_nolock@@YAXXZ 00000001800436b0 f   libucrt:ioinit.obj
 0001:000432bc       ??$common_xtox@K_W@@YAHKQEA_W_KI_N@Z 00000001800442bc f   libucrt:xtoa.obj
 0001:00043364       ??$common_xtox_s@K_W@@YAHKQEA_W_KI_N@Z 0000000180044364 f   libucrt:xtoa.obj
 0001:00043668       ??$?RV<lambda_842d9ff0dc9ef11c61343bbaebe7f885>@@AEAV<lambda_c5860995281e5c4ce005b3de8f5874ee>@@V<lambda_d90129c13df834fdcbf8d2b88dafcf2d>@@@?$__crt_seh_guarded_call@X@@QEAAX$$QEAV<lambda_842d9ff0dc9ef11c61343bbaebe7f885>@@AEAV<lambda_c5860995281e5c4ce005b3de8f5874ee>@@$$QEAV<lambda_d90129c13df834fdcbf8d2b88dafcf2d>@@@Z 0000000180044668 f   libucrt:fflush.obj
 0001:00043704       ??$?RV<lambda_886d6c58226a84441f68b9f2b8217b83>@@AEAV<lambda_ab61a845afdef5b7c387490eaf3616ee>@@V<lambda_f7f22ab5edc0698d5f6905b0d3f44752>@@@?$__crt_seh_guarded_call@X@@QEAAX$$QEAV<lambda_886d6c58226a84441f68b9f2b8217b83>@@AEAV<lambda_ab61a845afdef5b7c387490eaf3616ee>@@$$QEAV<lambda_f7f22ab5edc0698d5f6905b0d3f44752>@@@Z 0000000180044704 f   libucrt:fflush.obj
 0001:000437ec       ??$?RV<lambda_c376a267cfb53b6959b3b692ec76b120>@@AEAV<lambda_9a32fed5bf61b6b509b2d3f6003082a1>@@V<lambda_572fbb9fa0ab338edf41edfd4b5fcc8d>@@@?$__crt_seh_guarded_call@H@@QEAAH$$QEAV<lambda_c376a267cfb53b6959b3b692ec76b120>@@AEAV<lambda_9a32fed5bf61b6b509b2d3f6003082a1>@@$$QEAV<lambda_572fbb9fa0ab338edf41edfd4b5fcc8d>@@@Z 00000001800447ec f   libucrt:fflush.obj
 0001:0004382c       ?common_flush_all@@YAH_N@Z 000000018004482c f   libucrt:fflush.obj
 0001:000439c4       ??$?RV<lambda_84ec643ea9557e2f7dc01bb0e9624395>@@AEAV<lambda_ca71763b3c0644891230e4f79ea54fa6>@@V<lambda_439a761618c59b0600e24586724d733b>@@@?$__crt_seh_guarded_call@H@@QEAAH$$QEAV<lambda_84ec643ea9557e2f7dc01bb0e9624395>@@AEAV<lambda_ca71763b3c0644891230e4f79ea54fa6>@@$$QEAV<lambda_439a761618c59b0600e24586724d733b>@@@Z 00000001800449c4 f   libucrt:setvbuf.obj
 0001:00043a04       ??R<lambda_ca71763b3c0644891230e4f79ea54fa6>@@QEBAHXZ 0000000180044a04 f   libucrt:setvbuf.obj
 0001:00043b90       ?<lambda_invoker_cdecl>@<lambda_795c6bd18aed400428efeb9a5f0e1479>@@CAHPEA_W@Z 0000000180044b90 f   libucrt:winapi_thunks.obj
 0001:00043bb8       ??$?RV<lambda_bd00b5aa228bd7e7e5b2b5db5fd2933b>@@AEAV<lambda_777d11615145f89ee95b9466d285deeb>@@V<lambda_6e5e48fbd24f9f8f81b203eb3d877683>@@@?$__crt_seh_guarded_call@H@@QEAAH$$QEAV<lambda_bd00b5aa228bd7e7e5b2b5db5fd2933b>@@AEAV<lambda_777d11615145f89ee95b9466d285deeb>@@$$QEAV<lambda_6e5e48fbd24f9f8f81b203eb3d877683>@@@Z 0000000180044bb8 f   libucrt:winapi_thunks.obj
 0001:00043c50       ?try_get_function@@YAPEAXW4function_id@?A0x391cf84c@@QEBDQEBW4module_id@2@2@Z 0000000180044c50 f   libucrt:winapi_thunks.obj
 0001:0004485c       ?_mbstowcs_l_helper@@YA_KPEA_WPEBD_KPEAU__crt_locale_pointers@@@Z 000000018004585c f   libucrt:mbstowcs.obj
 0001:00044b8c       ?_wcstombs_l_helper@@YA_KPEADPEB_W_KPEAU__crt_locale_pointers@@@Z 0000000180045b8c f   libucrt:wcstombs.obj
 0001:000450ec       ?InternalGetLocaleInfoA@@YAHQEAU__crt_locale_pointers@@QEB_WKQEADH@Z 00000001800460ec f   libucrt:getlocaleinfoa.obj
 0001:00045600       ?__acrt_LCMapStringA_stat@@YAHPEAU__crt_locale_pointers@@PEB_WKPEBDHPEADHHH@Z 0000000180046600 f   libucrt:lcmapstringa.obj
 0001:00046074       ?<lambda_invoker_cdecl>@<lambda_c2303d2482d7c3675ea2e24c4cfb6115>@@CAHPEBX0@Z 0000000180047074 f   libucrt:argv_wildcards.obj
 0001:00046088       ??$common_expand_argv_wildcards@D@@YAHQEAPEADQEAPEAPEAD@Z 0000000180047088 f   libucrt:argv_wildcards.obj
 0001:00046294       ??$copy_and_add_argument_to_buffer@D@@YAHQEBD0_KAEAV?$argument_list@D@?A0x5f5c8891@@@Z 0000000180047294 f   libucrt:argv_wildcards.obj
 0001:0004642c       ??$expand_argument_wildcards@D@@YAHQEAD0AEAV?$argument_list@D@?A0x5f5c8891@@@Z 000000018004742c f   libucrt:argv_wildcards.obj
 0001:000465e0       ??$?RV<lambda_efdfa57d1f175319df784efa44bb7b81>@@AEAV<lambda_5f0a4c1567f8adc6734073e5d1e1b35c>@@V<lambda_2e8a7d3640ea6ccb4c2413664c2db6fd>@@@?$__crt_seh_guarded_call@X@@QEAAX$$QEAV<lambda_efdfa57d1f175319df784efa44bb7b81>@@AEAV<lambda_5f0a4c1567f8adc6734073e5d1e1b35c>@@$$QEAV<lambda_2e8a7d3640ea6ccb4c2413664c2db6fd>@@@Z 00000001800475e0 f   libucrt:mbctype.obj
 0001:000467b4       ?getSystemCP@@YAHH@Z       00000001800477b4 f   libucrt:mbctype.obj
 0001:00046834       ?setSBCS@@YAXPEAU__crt_multibyte_data@@@Z 0000000180047834 f   libucrt:mbctype.obj
 0001:000468c4       ?setSBUpLow@@YAXPEAU__crt_multibyte_data@@@Z 00000001800478c4 f   libucrt:mbctype.obj
 0001:00046aa8       ?setmbcp_internal@@YAHH_NQEAU__acrt_ptd@@QEAPEAU__crt_multibyte_data@@@Z 0000000180047aa8 f   libucrt:mbctype.obj
 0001:00046c6c       ?update_thread_multibyte_data_internal@@YAPEAU__crt_multibyte_data@@QEAU__acrt_ptd@@QEAU1@@Z 0000000180047c6c f   libucrt:mbctype.obj
 0001:00048ae8       ??$write_buffer_nolock@D@@YA_NDV__crt_stdio_stream@@@Z 0000000180049ae8 f   libucrt:_flsbuf.obj
 0001:00048bc8       ??$write_buffer_nolock@_W@@YA_N_WV__crt_stdio_stream@@@Z 0000000180049bc8 f   libucrt:_flsbuf.obj
 0001:00049964       ?free_crt_array_internal@@YAXQEAPEBX_K@Z 000000018004a964 f   libucrt:inittime.obj
 0001:000499bc       ?initialize_lc_time@@YA_NQEAU__crt_lc_time_data@@QEAU__crt_locale_data@@@Z 000000018004a9bc f   libucrt:inittime.obj
 0001:00049ff4       GetLocaleNameFromDefault   000000018004aff4 f   libucrt:get_qualified_locale.obj
 0001:0004a09c       GetLocaleNameFromLangCountry 000000018004b09c f   libucrt:get_qualified_locale.obj
 0001:0004a16c       GetLocaleNameFromLanguage  000000018004b16c f   libucrt:get_qualified_locale.obj
 0001:0004a208       LangCountryEnumProcEx      000000018004b208 f   libucrt:get_qualified_locale.obj
 0001:0004a5bc       LanguageEnumProcEx         000000018004b5bc f   libucrt:get_qualified_locale.obj
 0001:0004a6a8       ProcessCodePage            000000018004b6a8 f   libucrt:get_qualified_locale.obj
 0001:0004a75c       TestDefaultCountry         000000018004b75c f   libucrt:get_qualified_locale.obj
 0001:0004a7c4       TranslateName              000000018004b7c4 f   libucrt:get_qualified_locale.obj
 0001:0004aa80       CountryEnumProc            000000018004ba80 f   libucrt:getqloc_downlevel.obj
 0001:0004ab68       GetLcidFromLangCountry     000000018004bb68 f   libucrt:getqloc_downlevel.obj
 0001:0004ac38       GetLcidFromLanguage        000000018004bc38 f   libucrt:getqloc_downlevel.obj
 0001:0004acd0       LangCountryEnumProc        000000018004bcd0 f   libucrt:getqloc_downlevel.obj
 0001:0004af10       LanguageEnumProc           000000018004bf10 f   libucrt:getqloc_downlevel.obj
 0001:0004b00c       LcidFromHexString          000000018004c00c f   libucrt:getqloc_downlevel.obj
 0001:0004b05c       ProcessCodePage            000000018004c05c f   libucrt:getqloc_downlevel.obj
 0001:0004b10c       TestDefaultLanguage        000000018004c10c f   libucrt:getqloc_downlevel.obj
 0001:0004b1b8       TranslateName              000000018004c1b8 f   libucrt:getqloc_downlevel.obj
 0001:0004b7e0       $$000000                   000000018004c7e0     libucrt:fpsr.obj
 0001:0004b840       ??$?RV<lambda_a37b2b86f63e897a80ea819b0eb08c01>@@AEAV<lambda_38ce7e780aa69e748d6df282ebc68efe>@@V<lambda_99fb1378e971ab6e7edea83e3a7a83a2>@@@?$__crt_seh_guarded_call@H@@QEAAH$$QEAV<lambda_a37b2b86f63e897a80ea819b0eb08c01>@@AEAV<lambda_38ce7e780aa69e748d6df282ebc68efe>@@$$QEAV<lambda_99fb1378e971ab6e7edea83e3a7a83a2>@@@Z 000000018004c840 f   libucrt:commit.obj
 0001:0004b960       ?write_double_translated_ansi_nolock@@YA?AUwrite_result@?A0x17268360@@HQEBDI@Z 000000018004c960 f   libucrt:write.obj
 0001:0004bbc4       ?write_requires_double_translation_nolock@@YA_NH@Z 000000018004cbc4 f   libucrt:write.obj
 0001:0004bc68       ?write_text_ansi_nolock@@YA?AUwrite_result@?A0x17268360@@HQEBDI@Z 000000018004cc68 f   libucrt:write.obj
 0001:0004bd6c       ?write_text_utf16le_nolock@@YA?AUwrite_result@?A0x17268360@@HQEBDI@Z 000000018004cd6c f   libucrt:write.obj
 0001:0004be88       ?write_text_utf8_nolock@@YA?AUwrite_result@?A0x17268360@@HQEBDI@Z 000000018004ce88 f   libucrt:write.obj
 0001:0004c390       ?GetTableIndexFromLocaleName@@YAHPEB_W@Z 000000018004d390 f   libucrt:lcidtoname_downlevel.obj
 0001:0004c978       _call_matherr              000000018004d978 f   libucrt:libm_error.obj
 0001:0004c9e0       _exception_enabled         000000018004d9e0 f   libucrt:libm_error.obj
 0001:0004cdf0       ?shortsort@@YAXPEAD0_KP6AHPEBX2@Z@Z 000000018004ddf0 f   libucrt:qsort.obj
 0001:0004d340       ?initialize_multibyte@@YAHXZ 000000018004e340 f   libucrt:multibyte_initializer.obj
 0001:0004d520       $$000000                   000000018004e520     libucrt:log10.obj
 0001:0004dacc       ??$common_lseek@_J@@YA_JH_JH@Z 000000018004eacc f   libucrt:lseek.obj
 0001:0004dbd0       ??$common_lseek_nolock@_J@@YA_JH_JH@Z 000000018004ebd0 f   libucrt:lseek.obj
 0001:0004e110       _log_special_common        000000018004f110 f   libucrt:log_special.obj
 0001:0004e1a8       ??$?RV<lambda_751a882b2c74d4b022dec766aa51a29a>@@AEAV<lambda_628dfdc04ba53c8bfc02c9951375f3f5>@@V<lambda_f6c7be5f7998530c34de24c7437d6b54>@@@?$__crt_seh_guarded_call@H@@QEAAH$$QEAV<lambda_751a882b2c74d4b022dec766aa51a29a>@@AEAV<lambda_628dfdc04ba53c8bfc02c9951375f3f5>@@$$QEAV<lambda_f6c7be5f7998530c34de24c7437d6b54>@@@Z 000000018004f1a8 f   libucrt:close.obj
 0001:0004ee40       $$000000                   000000018004fe40     LIBCMT:_guard_dispatch_.obj
 0001:0004ee60       ?dtor$0@?0??_Getcat@?$ctype@D@std@@SA_KPEAPEBVfacet@locale@2@PEBV42@@Z@4HA 000000018004fe60 f   njsOracle.obj
 0001:0004ee80       ?dtor$2@?0??_Getcat@?$ctype@D@std@@SA_KPEAPEBVfacet@locale@2@PEBV42@@Z@4HA 000000018004fe80 f   njsOracle.obj
 0001:0004ee8c       ?dtor$3@?0??_Getcat@?$ctype@D@std@@SA_KPEAPEBVfacet@locale@2@PEBV42@@Z@4HA 000000018004fe8c f   njsOracle.obj
 0001:0004ee9c       ?dtor$4@?0??_Getcat@?$ctype@D@std@@SA_KPEAPEBVfacet@locale@2@PEBV42@@Z@4HA 000000018004fe9c f   njsOracle.obj
 0001:0004eeac       ?dtor$5@?0??_Getcat@?$ctype@D@std@@SA_KPEAPEBVfacet@locale@2@PEBV42@@Z@4HA 000000018004feac f   njsOracle.obj
 0001:0004eebc       ?dtor$6@?0??_Getcat@?$ctype@D@std@@SA_KPEAPEBVfacet@locale@2@PEBV42@@Z@4HA 000000018004febc f   njsOracle.obj
 0001:0004eecc       ?dtor$7@?0??_Getcat@?$ctype@D@std@@SA_KPEAPEBVfacet@locale@2@PEBV42@@Z@4HA 000000018004fecc f   njsOracle.obj
 0001:0004eedc       ?dtor$8@?0??_Getcat@?$ctype@D@std@@SA_KPEAPEBVfacet@locale@2@PEBV42@@Z@4HA 000000018004fedc f   njsOracle.obj
 0001:0004eeec       ?dtor$9@?0??_Getcat@?$ctype@D@std@@SA_KPEAPEBVfacet@locale@2@PEBV42@@Z@4HA 000000018004feec f   njsOracle.obj
 0001:0004ef00       ?dtor$0@?0??_Makestr@_System_error@std@@CA?AV?$basic_string@DU?$char_traits@D@std@@V?$allocator@D@2@@2@Verror_code@2@V32@@Z@4HA 000000018004ff00 f   njsOracle.obj
 0001:0004ef0c       ?dtor$1@?0??_Makestr@_System_error@std@@CA?AV?$basic_string@DU?$char_traits@D@std@@V?$allocator@D@2@@2@Verror_code@2@V32@@Z@4HA 000000018004ff0c f   njsOracle.obj
 0001:0004ef20       ?dtor$0@?0??GetFetchAsBuffer@Oracledb@@CAXV?$Local@VString@v8@@@v8@@AEBV?$PropertyCallbackInfo@VValue@v8@@@Nan@@@Z@4HA 000000018004ff20 f   njsOracle.obj
 0001:0004ef20       ?dtor$0@?0??GetFetchAsString@Oracledb@@CAXV?$Local@VString@v8@@@v8@@AEBV?$PropertyCallbackInfo@VValue@v8@@@Nan@@@Z@4HA 000000018004ff20 f   njsOracle.obj
 0001:0004ef20       ?dtor$0@?0???0system_error@std@@QEAA@Verror_code@1@PEBD@Z@4HA 000000018004ff20 f   njsOracle.obj
 0001:0004ef30       ?dtor$0@?0??clear@ios_base@std@@QEAAXH_N@Z@4HA 000000018004ff30 f   njsOracle.obj
 0001:0004ef3c       ?dtor$1@?0??clear@ios_base@std@@QEAAXH_N@Z@4HA 000000018004ff3c f   njsOracle.obj
 0001:0004ef48       ?dtor$2@?0??clear@ios_base@std@@QEAAXH_N@Z@4HA 000000018004ff48 f   njsOracle.obj
 0001:0004ef60       ?dtor$0@?0??_Init@ios_base@std@@IEAAXXZ@4HA 000000018004ff60 f   njsOracle.obj
 0001:0004ef60       ?dtor$0@?0???0?$basic_streambuf@DU?$char_traits@D@std@@@std@@IEAA@XZ@4HA 000000018004ff60 f   njsOracle.obj
 0001:0004ef80       ?dtor$0@?0??New@?$Factory@VDate@v8@@@imp@Nan@@SA?AV?$MaybeLocal@VDate@v8@@@v8@@N@Z@4HA 000000018004ff80 f   njsConnection.obj
 0001:0004ef80       ?dtor$0@?0??NewInstance@Nan@@YA?AV?$MaybeLocal@VObject@v8@@@v8@@V?$Local@VFunction@v8@@@3@@Z@4HA 000000018004ff80 f   njsOracle.obj
 0001:0004ef80       ?dtor$0@?0??GetFunction@Nan@@YA?AV?$MaybeLocal@VFunction@v8@@@v8@@V?$Local@VFunctionTemplate@v8@@@3@@Z@4HA 000000018004ff80 f   njsOracle.obj
 0001:0004ef80       ?dtor$0@?0??NewInstance@Nan@@YA?AV?$MaybeLocal@VObject@v8@@@v8@@V?$Local@VObjectTemplate@v8@@@3@@Z@4HA 000000018004ff80 f   njsOracle.obj
 0001:0004ef80       ?dtor$0@?0??convert@?$ToFactory@VInteger@v8@@@imp@Nan@@SA?AV?$MaybeLocal@VInteger@v8@@@v8@@V?$Local@VValue@v8@@@5@@Z@4HA 000000018004ff80 f   njsOracle.obj
 0001:0004ef90       ?dtor$0@?0??Set@Nan@@YA?AV?$Maybe@_N@v8@@V?$Local@VObject@v8@@@3@IV?$Local@VValue@v8@@@3@@Z@4HA 000000018004ff90 f   njsConnection.obj
 0001:0004ef90       ?dtor$0@?0??ForceSet@Nan@@YA?AV?$Maybe@_N@v8@@V?$Local@VObject@v8@@@3@V?$Local@VValue@v8@@@3@1W4PropertyAttribute@3@@Z@4HA 000000018004ff90 f   njsConnection.obj
 0001:0004ef90       ?dtor$0@?0??Set@Nan@@YA?AV?$Maybe@_N@v8@@V?$Local@VObject@v8@@@3@V?$Local@VValue@v8@@@3@1@Z@4HA 000000018004ff90 f   njsOracle.obj
 0001:0004efa0       ?dtor$0@?0??convert@?$ToFactory@H@imp@Nan@@SA?AV?$Maybe@H@v8@@V?$Local@VValue@v8@@@5@@Z@4HA 000000018004ffa0 f   njsOracle.obj
 0001:0004efa0       ?dtor$0@?0??convert@?$ToFactory@I@imp@Nan@@SA?AV?$Maybe@I@v8@@V?$Local@VValue@v8@@@5@@Z@4HA 000000018004ffa0 f   njsOracle.obj
 0001:0004efb0       ?dtor$0@?0??New@?$Factory@VFunctionTemplate@v8@@@imp@Nan@@SA?AV?$Local@VFunctionTemplate@v8@@@v8@@P6AXAEBV?$FunctionCallbackInfo@VValue@v8@@@3@@ZV?$Local@VValue@v8@@@5@V?$Local@VSignature@v8@@@5@@Z@4HA 000000018004ffb0 f   njsOracle.obj
 0001:0004efc0       ?dtor$0@?0??hasILobInstance@ILob@@SA_NV?$Local@VObject@v8@@@v8@@@Z@4HA 000000018004ffc0 f   njsIntLob.obj
 0001:0004efc0       ?dtor$0@?0??ThrowError@Nan@@YAXPEBD@Z@4HA 000000018004ffc0 f   njsOracle.obj
 0001:0004efc0       ?dtor$0@?0??SetPrototypeMethod@Nan@@YAXV?$Local@VFunctionTemplate@v8@@@v8@@PEBDP6AXAEBV?$FunctionCallbackInfo@VValue@v8@@@1@@Z@Z@4HA 000000018004ffc0 f   njsOracle.obj
 0001:0004efc0       ?dtor$0@?0??RefCursor2V8Value@Connection@@CA?AV?$Local@VValue@v8@@@v8@@PEAUeBaton@@PEAUBind@@PEAUExtBind@@@Z@4HA 000000018004ffc0 f   njsConnection.obj
 0001:0004efd0       ?dtor$0@?0??GetInBindParamsArray@Connection@@CAXV?$Local@VArray@v8@@@v8@@PEAUBind@@PEAUeBaton@@@Z@4HA 000000018004ffd0 f   njsConnection.obj
 0001:0004efd0       ?dtor$0@?0??SetAccessor@Nan@@YAXV?$Local@VObjectTemplate@v8@@@v8@@V?$Local@VString@v8@@@3@P6AX1AEBV?$PropertyCallbackInfo@VValue@v8@@@1@@ZP6AX1V?$Local@VValue@v8@@@3@AEBV?$PropertyCallbackInfo@X@1@@Z4W4AccessControl@3@W4PropertyAttribute@3@V?$Local@VAccessorSignature@v8@@@3@@Z@4HA 000000018004ffd0 f   njsOracle.obj
 0001:0004efe0       ?dtor$0@?0???0connectionBaton@@QEAA@V?$Local@VFunction@v8@@@v8@@V?$Local@VObject@v8@@@2@@Z@4HA 000000018004ffe0 f   njsOracle.obj
 0001:0004eff3       ?dtor$1@?0???0connectionBaton@@QEAA@V?$Local@VFunction@v8@@@v8@@V?$Local@VObject@v8@@@2@@Z@4HA 000000018004fff3 f   njsOracle.obj
 0001:0004f006       ?dtor$2@?0???0connectionBaton@@QEAA@V?$Local@VFunction@v8@@@v8@@V?$Local@VObject@v8@@@2@@Z@4HA 0000000180050006 f   njsOracle.obj
 0001:0004f019       ?dtor$3@?0???0connectionBaton@@QEAA@V?$Local@VFunction@v8@@@v8@@V?$Local@VObject@v8@@@2@@Z@4HA 0000000180050019 f   njsOracle.obj
 0001:0004f02c       ?dtor$4@?0???0connectionBaton@@QEAA@V?$Local@VFunction@v8@@@v8@@V?$Local@VObject@v8@@@2@@Z@4HA 000000018005002c f   njsOracle.obj
 0001:0004f03f       ?dtor$5@?0???0connectionBaton@@QEAA@V?$Local@VFunction@v8@@@v8@@V?$Local@VObject@v8@@@2@@Z@4HA 000000018005003f f   njsOracle.obj
 0001:0004f052       ?dtor$6@?0???0connectionBaton@@QEAA@V?$Local@VFunction@v8@@@v8@@V?$Local@VObject@v8@@@2@@Z@4HA 0000000180050052 f   njsOracle.obj
 0001:0004f070       ?dtor$0@?0???0Oracledb@@AEAA@XZ@4HA 0000000180050070 f   njsOracle.obj
 0001:0004f07c       ?dtor$1@?0???0Oracledb@@AEAA@XZ@4HA 000000018005007c f   njsOracle.obj
 0001:0004f08c       ?dtor$2@?0???0Oracledb@@AEAA@XZ@4HA 000000018005008c f   njsOracle.obj
 0001:0004f09c       ?dtor$3@?0???0Oracledb@@AEAA@XZ@4HA 000000018005009c f   njsOracle.obj
 0001:0004f0a8       ?dtor$4@?0???0Oracledb@@AEAA@XZ@4HA 00000001800500a8 f   njsOracle.obj
 0001:0004f0d0       ?dtor$0@?0??driverName@Oracledb@@AEBA?BV?$basic_string@DU?$char_traits@D@std@@V?$allocator@D@2@@std@@XZ@4HA 00000001800500d0 f   njsOracle.obj
 0001:0004f0e0       ?dtor$0@?0??Init@Connection@@SAXV?$Local@VObject@v8@@@v8@@@Z@4HA 00000001800500e0 f   njsConnection.obj
 0001:0004f0e0       ?dtor$0@?0??Init@ResultSet@@SAXV?$Local@VObject@v8@@@v8@@@Z@4HA 00000001800500e0 f   njsResultSet.obj
 0001:0004f0e0       ?dtor$0@?0??Init@ILob@@SAXV?$Local@VObject@v8@@@v8@@@Z@4HA 00000001800500e0 f   njsIntLob.obj
 0001:0004f0e0       ?dtor$0@?0??Init@Oracledb@@SAXV?$Local@VObject@v8@@@v8@@@Z@4HA 00000001800500e0 f   njsOracle.obj
 0001:0004f0e0       ?dtor$0@?0??Init@Pool@@SAXV?$Local@VObject@v8@@@v8@@@Z@4HA 00000001800500e0 f   njsPool.obj
 0001:0004f0ec       ?dtor$2@?0??Init@ILob@@SAXV?$Local@VObject@v8@@@v8@@@Z@4HA 00000001800500ec f   njsIntLob.obj
 0001:0004f0ec       ?dtor$2@?0??Init@ResultSet@@SAXV?$Local@VObject@v8@@@v8@@@Z@4HA 00000001800500ec f   njsResultSet.obj
 0001:0004f0ec       ?dtor$2@?0??Init@Pool@@SAXV?$Local@VObject@v8@@@v8@@@Z@4HA 00000001800500ec f   njsPool.obj
 0001:0004f0ec       ?dtor$2@?0??Init@Oracledb@@SAXV?$Local@VObject@v8@@@v8@@@Z@4HA 00000001800500ec f   njsOracle.obj
 0001:0004f0ec       ?dtor$2@?0??Init@Connection@@SAXV?$Local@VObject@v8@@@v8@@@Z@4HA 00000001800500ec f   njsConnection.obj
 0001:0004f100       ?dtor$0@?0??New@Oracledb@@CAXAEBV?$FunctionCallbackInfo@VValue@v8@@@Nan@@@Z@4HA 0000000180050100 f   njsOracle.obj
 0001:0004f120       ?dtor$0@?0??GetPoolTimeout@Pool@@CAXV?$Local@VString@v8@@@v8@@AEBV?$PropertyCallbackInfo@VValue@v8@@@Nan@@@Z@4HA 0000000180050120 f   njsPool.obj
 0001:0004f120       ?dtor$0@?0??GetPoolPingInterval@Pool@@CAXV?$Local@VString@v8@@@v8@@AEBV?$PropertyCallbackInfo@VValue@v8@@@Nan@@@Z@4HA 0000000180050120 f   njsPool.obj
 0001:0004f120       ?dtor$0@?0??GetPoolMin@Pool@@CAXV?$Local@VString@v8@@@v8@@AEBV?$PropertyCallbackInfo@VValue@v8@@@Nan@@@Z@4HA 0000000180050120 f   njsPool.obj
 0001:0004f120       ?dtor$0@?0??GetPoolMax@Pool@@CAXV?$Local@VString@v8@@@v8@@AEBV?$PropertyCallbackInfo@VValue@v8@@@Nan@@@Z@4HA 0000000180050120 f   njsPool.obj
 0001:0004f120       ?dtor$0@?0??GetPrefetchRows@Oracledb@@CAXV?$Local@VString@v8@@@v8@@AEBV?$PropertyCallbackInfo@VValue@v8@@@Nan@@@Z@4HA 0000000180050120 f   njsOracle.obj
 0001:0004f120       ?dtor$0@?0??SetOracleServerVersion@Connection@@CAXV?$Local@VString@v8@@@v8@@V?$Local@VValue@v8@@@3@AEBV?$PropertyCallbackInfo@X@Nan@@@Z@4HA 0000000180050120 f   njsConnection.obj
 0001:0004f120       ?dtor$0@?0??SetAutoCommit@Oracledb@@CAXV?$Local@VString@v8@@@v8@@V?$Local@VValue@v8@@@3@AEBV?$PropertyCallbackInfo@X@Nan@@@Z@4HA 0000000180050120 f   njsOracle.obj
 0001:0004f120       ?dtor$0@?0??SetExtendedMetaData@Oracledb@@CAXV?$Local@VString@v8@@@v8@@V?$Local@VValue@v8@@@3@AEBV?$PropertyCallbackInfo@X@Nan@@@Z@4HA 0000000180050120 f   njsOracle.obj
 0001:0004f120       ?dtor$0@?0??GetPoolTimeout@Oracledb@@CAXV?$Local@VString@v8@@@v8@@AEBV?$PropertyCallbackInfo@VValue@v8@@@Nan@@@Z@4HA 0000000180050120 f   njsOracle.obj
 0001:0004f120       ?dtor$0@?0??GetPoolMin@Oracledb@@CAXV?$Local@VString@v8@@@v8@@AEBV?$PropertyCallbackInfo@VValue@v8@@@Nan@@@Z@4HA 0000000180050120 f   njsOracle.obj
 0001:0004f120       ?dtor$0@?0??GetStmtCacheSize@Pool@@CAXV?$Local@VString@v8@@@v8@@AEBV?$PropertyCallbackInfo@VValue@v8@@@Nan@@@Z@4HA 0000000180050120 f   njsPool.obj
 0001:0004f120       ?dtor$0@?0??GetPoolMax@Oracledb@@CAXV?$Local@VString@v8@@@v8@@AEBV?$PropertyCallbackInfo@VValue@v8@@@Nan@@@Z@4HA 0000000180050120 f   njsOracle.obj
 0001:0004f120       ?dtor$0@?0??SetChunkSize@ILob@@CAXV?$Local@VString@v8@@@v8@@V?$Local@VValue@v8@@@3@AEBV?$PropertyCallbackInfo@X@Nan@@@Z@4HA 0000000180050120 f   njsIntLob.obj
 0001:0004f120       ?dtor$0@?0??SetIsAutoCloseLob@ILob@@CAXV?$Local@VString@v8@@@v8@@V?$Local@VValue@v8@@@3@AEBV?$PropertyCallbackInfo@X@Nan@@@Z@4HA 0000000180050120 f   njsIntLob.obj
 0001:0004f120       ?dtor$0@?0??SetIsValid@ILob@@CAXV?$Local@VString@v8@@@v8@@V?$Local@VValue@v8@@@3@AEBV?$PropertyCallbackInfo@X@Nan@@@Z@4HA 0000000180050120 f   njsIntLob.obj
 0001:0004f120       ?dtor$0@?0??SetLength@ILob@@CAXV?$Local@VString@v8@@@v8@@V?$Local@VValue@v8@@@3@AEBV?$PropertyCallbackInfo@X@Nan@@@Z@4HA 0000000180050120 f   njsIntLob.obj
 0001:0004f120       ?dtor$0@?0??GetOutFormat@Oracledb@@CAXV?$Local@VString@v8@@@v8@@AEBV?$PropertyCallbackInfo@VValue@v8@@@Nan@@@Z@4HA 0000000180050120 f   njsOracle.obj
 0001:0004f120       ?dtor$17@?0??cbDynBufferAllocate@Connection@@CAXPEAX_NII@Z@4HA 0000000180050120 f   njsConnection.obj
 0001:0004f120       ?dtor$0@?0??SetType@ILob@@CAXV?$Local@VString@v8@@@v8@@V?$Local@VValue@v8@@@3@AEBV?$PropertyCallbackInfo@X@Nan@@@Z@4HA 0000000180050120 f   njsIntLob.obj
 0001:0004f120       ?dtor$0@?0??SetStmtCacheSize@Connection@@CAXV?$Local@VString@v8@@@v8@@V?$Local@VValue@v8@@@3@AEBV?$PropertyCallbackInfo@X@Nan@@@Z@4HA 0000000180050120 f   njsConnection.obj
 0001:0004f120       ?dtor$0@?0??GetPoolIncrement@Pool@@CAXV?$Local@VString@v8@@@v8@@AEBV?$PropertyCallbackInfo@VValue@v8@@@Nan@@@Z@4HA 0000000180050120 f   njsPool.obj
 0001:0004f120       ?dtor$0@?0??SetExternalAuth@Oracledb@@CAXV?$Local@VString@v8@@@v8@@V?$Local@VValue@v8@@@3@AEBV?$PropertyCallbackInfo@X@Nan@@@Z@4HA 0000000180050120 f   njsOracle.obj
 0001:0004f120       ?dtor$0@?0??GetConnectionClass@Oracledb@@CAXV?$Local@VString@v8@@@v8@@AEBV?$PropertyCallbackInfo@VValue@v8@@@Nan@@@Z@4HA 0000000180050120 f   njsOracle.obj
 0001:0004f130       ?dtor$0@?0??SetPoolTimeout@Oracledb@@CAXV?$Local@VString@v8@@@v8@@V?$Local@VValue@v8@@@3@AEBV?$PropertyCallbackInfo@X@Nan@@@Z@4HA 0000000180050130 f   njsOracle.obj
 0001:0004f130       ?dtor$0@?0??SetPoolIncrement@Oracledb@@CAXV?$Local@VString@v8@@@v8@@V?$Local@VValue@v8@@@3@AEBV?$PropertyCallbackInfo@X@Nan@@@Z@4HA 0000000180050130 f   njsOracle.obj
 0001:0004f130       ?dtor$0@?0??SetPoolMax@Oracledb@@CAXV?$Local@VString@v8@@@v8@@V?$Local@VValue@v8@@@3@AEBV?$PropertyCallbackInfo@X@Nan@@@Z@4HA 0000000180050130 f   njsOracle.obj
 0001:0004f130       ?dtor$0@?0??SetLobPrefetchSize@Oracledb@@CAXV?$Local@VString@v8@@@v8@@V?$Local@VValue@v8@@@3@AEBV?$PropertyCallbackInfo@X@Nan@@@Z@4HA 0000000180050130 f   njsOracle.obj
 0001:0004f130       ?dtor$0@?0??SetPoolMin@Oracledb@@CAXV?$Local@VString@v8@@@v8@@V?$Local@VValue@v8@@@3@AEBV?$PropertyCallbackInfo@X@Nan@@@Z@4HA 0000000180050130 f   njsOracle.obj
 0001:0004f130       ?dtor$0@?0??SetPoolPingInterval@Oracledb@@CAXV?$Local@VString@v8@@@v8@@V?$Local@VValue@v8@@@3@AEBV?$PropertyCallbackInfo@X@Nan@@@Z@4HA 0000000180050130 f   njsOracle.obj
 0001:0004f130       ?dtor$0@?0??SetPrefetchRows@Oracledb@@CAXV?$Local@VString@v8@@@v8@@V?$Local@VValue@v8@@@3@AEBV?$PropertyCallbackInfo@X@Nan@@@Z@4HA 0000000180050130 f   njsOracle.obj
 0001:0004f130       ?dtor$0@?0??SetStmtCacheSize@Oracledb@@CAXV?$Local@VString@v8@@@v8@@V?$Local@VValue@v8@@@3@AEBV?$PropertyCallbackInfo@X@Nan@@@Z@4HA 0000000180050130 f   njsOracle.obj
 0001:0004f130       ?dtor$0@?0??SetOutFormat@Oracledb@@CAXV?$Local@VString@v8@@@v8@@V?$Local@VValue@v8@@@3@AEBV?$PropertyCallbackInfo@X@Nan@@@Z@4HA 0000000180050130 f   njsOracle.obj
 0001:0004f13c       ?dtor$1@?0??SetOutFormat@Oracledb@@CAXV?$Local@VString@v8@@@v8@@V?$Local@VValue@v8@@@3@AEBV?$PropertyCallbackInfo@X@Nan@@@Z@4HA 000000018005013c f   njsOracle.obj
 0001:0004f13c       ?dtor$1@?0??SetPoolIncrement@Oracledb@@CAXV?$Local@VString@v8@@@v8@@V?$Local@VValue@v8@@@3@AEBV?$PropertyCallbackInfo@X@Nan@@@Z@4HA 000000018005013c f   njsOracle.obj
 0001:0004f13c       ?dtor$1@?0??SetStmtCacheSize@Oracledb@@CAXV?$Local@VString@v8@@@v8@@V?$Local@VValue@v8@@@3@AEBV?$PropertyCallbackInfo@X@Nan@@@Z@4HA 000000018005013c f   njsOracle.obj
 0001:0004f13c       ?dtor$1@?0??SetPoolMax@Oracledb@@CAXV?$Local@VString@v8@@@v8@@V?$Local@VValue@v8@@@3@AEBV?$PropertyCallbackInfo@X@Nan@@@Z@4HA 000000018005013c f   njsOracle.obj
 0001:0004f13c       ?dtor$1@?0??SetPoolMin@Oracledb@@CAXV?$Local@VString@v8@@@v8@@V?$Local@VValue@v8@@@3@AEBV?$PropertyCallbackInfo@X@Nan@@@Z@4HA 000000018005013c f   njsOracle.obj
 0001:0004f13c       ?dtor$1@?0??SetPoolPingInterval@Oracledb@@CAXV?$Local@VString@v8@@@v8@@V?$Local@VValue@v8@@@3@AEBV?$PropertyCallbackInfo@X@Nan@@@Z@4HA 000000018005013c f   njsOracle.obj
 0001:0004f13c       ?dtor$1@?0??SetPoolTimeout@Oracledb@@CAXV?$Local@VString@v8@@@v8@@V?$Local@VValue@v8@@@3@AEBV?$PropertyCallbackInfo@X@Nan@@@Z@4HA 000000018005013c f   njsOracle.obj
 0001:0004f13c       ?dtor$1@?0??SetPrefetchRows@Oracledb@@CAXV?$Local@VString@v8@@@v8@@V?$Local@VValue@v8@@@3@AEBV?$PropertyCallbackInfo@X@Nan@@@Z@4HA 000000018005013c f   njsOracle.obj
 0001:0004f13c       ?dtor$1@?0??SetLobPrefetchSize@Oracledb@@CAXV?$Local@VString@v8@@@v8@@V?$Local@VValue@v8@@@3@AEBV?$PropertyCallbackInfo@X@Nan@@@Z@4HA 000000018005013c f   njsOracle.obj
 0001:0004f150       ?dtor$0@?0??GetPoolPingInterval@Oracledb@@CAXV?$Local@VString@v8@@@v8@@AEBV?$PropertyCallbackInfo@VValue@v8@@@Nan@@@Z@4HA 0000000180050150 f   njsOracle.obj
 0001:0004f150       ?dtor$0@?0??GetOracleClientVersion@Oracledb@@CAXV?$Local@VString@v8@@@v8@@AEBV?$PropertyCallbackInfo@VValue@v8@@@Nan@@@Z@4HA 0000000180050150 f   njsOracle.obj
 0001:0004f150       ?dtor$0@?0??GetLobPrefetchSize@Oracledb@@CAXV?$Local@VString@v8@@@v8@@AEBV?$PropertyCallbackInfo@VValue@v8@@@Nan@@@Z@4HA 0000000180050150 f   njsOracle.obj
 0001:0004f150       ?dtor$0@?0??GetPoolIncrement@Oracledb@@CAXV?$Local@VString@v8@@@v8@@AEBV?$PropertyCallbackInfo@VValue@v8@@@Nan@@@Z@4HA 0000000180050150 f   njsOracle.obj
 0001:0004f150       ?dtor$0@?0??GetMaxRows@Oracledb@@CAXV?$Local@VString@v8@@@v8@@AEBV?$PropertyCallbackInfo@VValue@v8@@@Nan@@@Z@4HA 0000000180050150 f   njsOracle.obj
 0001:0004f150       ?dtor$0@?0??GetStmtCacheSize@Oracledb@@CAXV?$Local@VString@v8@@@v8@@AEBV?$PropertyCallbackInfo@VValue@v8@@@Nan@@@Z@4HA 0000000180050150 f   njsOracle.obj
 0001:0004f160       ?dtor$0@?0??SetMaxRows@Oracledb@@CAXV?$Local@VString@v8@@@v8@@V?$Local@VValue@v8@@@3@AEBV?$PropertyCallbackInfo@X@Nan@@@Z@4HA 0000000180050160 f   njsOracle.obj
 0001:0004f16c       ?dtor$1@?0??SetMaxRows@Oracledb@@CAXV?$Local@VString@v8@@@v8@@V?$Local@VValue@v8@@@3@AEBV?$PropertyCallbackInfo@X@Nan@@@Z@4HA 000000018005016c f   njsOracle.obj
 0001:0004f178       ?dtor$3@?0??SetMaxRows@Oracledb@@CAXV?$Local@VString@v8@@@v8@@V?$Local@VValue@v8@@@3@AEBV?$PropertyCallbackInfo@X@Nan@@@Z@4HA 0000000180050178 f   njsOracle.obj
 0001:0004f190       ?dtor$0@?0??GetIsValid@ILob@@CAXV?$Local@VString@v8@@@v8@@AEBV?$PropertyCallbackInfo@VValue@v8@@@Nan@@@Z@4HA 0000000180050190 f   njsIntLob.obj
 0001:0004f190       ?dtor$0@?0??GetIsAutoCloseLob@ILob@@CAXV?$Local@VString@v8@@@v8@@AEBV?$PropertyCallbackInfo@VValue@v8@@@Nan@@@Z@4HA 0000000180050190 f   njsIntLob.obj
 0001:0004f190       ?dtor$1@?0??GetRowsCommon@ResultSet@@CAXPEAUrsBaton@@@Z@4HA 0000000180050190 f   njsResultSet.obj
 0001:0004f190       ?dtor$0@?0??SetVersion@Oracledb@@CAXV?$Local@VString@v8@@@v8@@V?$Local@VValue@v8@@@3@AEBV?$PropertyCallbackInfo@X@Nan@@@Z@4HA 0000000180050190 f   njsOracle.obj
 0001:0004f190       ?dtor$0@?0??GetExternalAuth@Oracledb@@CAXV?$Local@VString@v8@@@v8@@AEBV?$PropertyCallbackInfo@VValue@v8@@@Nan@@@Z@4HA 0000000180050190 f   njsOracle.obj
 0001:0004f190       ?dtor$0@?0??GetAutoCommit@Oracledb@@CAXV?$Local@VString@v8@@@v8@@AEBV?$PropertyCallbackInfo@VValue@v8@@@Nan@@@Z@4HA 0000000180050190 f   njsOracle.obj
 0001:0004f190       ?dtor$0@?0??GetExtendedMetaData@Oracledb@@CAXV?$Local@VString@v8@@@v8@@AEBV?$PropertyCallbackInfo@VValue@v8@@@Nan@@@Z@4HA 0000000180050190 f   njsOracle.obj
 0001:0004f190       ?dtor$0@?0??SetOracleClientVersion@Oracledb@@CAXV?$Local@VString@v8@@@v8@@V?$Local@VValue@v8@@@3@AEBV?$PropertyCallbackInfo@X@Nan@@@Z@4HA 0000000180050190 f   njsOracle.obj
 0001:0004f1a0       ?dtor$0@?0??SetConnectionClass@Oracledb@@CAXV?$Local@VString@v8@@@v8@@V?$Local@VValue@v8@@@3@AEBV?$PropertyCallbackInfo@X@Nan@@@Z@4HA 00000001800501a0 f   njsOracle.obj
 0001:0004f1ac       ?dtor$1@?0??SetConnectionClass@Oracledb@@CAXV?$Local@VString@v8@@@v8@@V?$Local@VValue@v8@@@3@AEBV?$PropertyCallbackInfo@X@Nan@@@Z@4HA 00000001800501ac f   njsOracle.obj
 0001:0004f1c0       ?dtor$0@?0??SetFetchAsBuffer@Oracledb@@CAXV?$Local@VString@v8@@@v8@@V?$Local@VValue@v8@@@3@AEBV?$PropertyCallbackInfo@X@Nan@@@Z@4HA 00000001800501c0 f   njsOracle.obj
 0001:0004f1c0       ?dtor$0@?0??SetFetchAsString@Oracledb@@CAXV?$Local@VString@v8@@@v8@@V?$Local@VValue@v8@@@3@AEBV?$PropertyCallbackInfo@X@Nan@@@Z@4HA 00000001800501c0 f   njsOracle.obj
 0001:0004f1cc       ?dtor$1@?0??SetFetchAsBuffer@Oracledb@@CAXV?$Local@VString@v8@@@v8@@V?$Local@VValue@v8@@@3@AEBV?$PropertyCallbackInfo@X@Nan@@@Z@4HA 00000001800501cc f   njsOracle.obj
 0001:0004f1cc       ?dtor$1@?0??SetFetchAsString@Oracledb@@CAXV?$Local@VString@v8@@@v8@@V?$Local@VValue@v8@@@3@AEBV?$PropertyCallbackInfo@X@Nan@@@Z@4HA 00000001800501cc f   njsOracle.obj
 0001:0004f1e0       ?dtor$0@?0??GetConnection@Oracledb@@CAXAEBV?$FunctionCallbackInfo@VValue@v8@@@Nan@@@Z@4HA 00000001800501e0 f   njsOracle.obj
 0001:0004f1ec       ?dtor$2@?0??GetConnection@Oracledb@@CAXAEBV?$FunctionCallbackInfo@VValue@v8@@@Nan@@@Z@4HA 00000001800501ec f   njsOracle.obj
 0001:0004f209       ?dtor$6@?0??GetConnection@Oracledb@@CAXAEBV?$FunctionCallbackInfo@VValue@v8@@@Nan@@@Z@4HA 0000000180050209 f   njsOracle.obj
 0001:0004f217       ?dtor$9@?0??GetConnection@Oracledb@@CAXAEBV?$FunctionCallbackInfo@VValue@v8@@@Nan@@@Z@4HA 0000000180050217 f   njsOracle.obj
 0001:0004f225       ?dtor$12@?0??GetConnection@Oracledb@@CAXAEBV?$FunctionCallbackInfo@VValue@v8@@@Nan@@@Z@4HA 0000000180050225 f   njsOracle.obj
 0001:0004f233       ?dtor$17@?0??GetConnection@Oracledb@@CAXAEBV?$FunctionCallbackInfo@VValue@v8@@@Nan@@@Z@4HA 0000000180050233 f   njsOracle.obj
 0001:0004f240       ?catch$1@?0??Async_GetConnection@Oracledb@@CAXPEAUuv_work_s@@@Z@4HA 0000000180050240 f   njsOracle.obj
 0001:0004f24d       __catch$?Async_GetConnection@Oracledb@@CAXPEAUuv_work_s@@@Z$1 000000018005024d f   njsOracle.obj
 0001:0004f330       ?dtor$0@?0??Async_AfterRead@ILob@@CAXPEAUuv_work_s@@@Z@4HA 0000000180050330 f   njsIntLob.obj
 0001:0004f330       ?dtor$0@?0??Async_AfterGetConnection@Pool@@CAXPEAUuv_work_s@@@Z@4HA 0000000180050330 f   njsPool.obj
 0001:0004f330       ?dtor$0@?0??Async_AfterGetConnection@Oracledb@@CAXPEAUuv_work_s@@@Z@4HA 0000000180050330 f   njsOracle.obj
 0001:0004f330       ?dtor$0@?0??Async_AfterGetRows@ResultSet@@CAXPEAUuv_work_s@@@Z@4HA 0000000180050330 f   njsResultSet.obj
 0001:0004f33c       ?dtor$1@?0??Async_AfterGetConnection@Pool@@CAXPEAUuv_work_s@@@Z@4HA 000000018005033c f   njsPool.obj
 0001:0004f33c       ?dtor$1@?0??Async_AfterGetRows@ResultSet@@CAXPEAUuv_work_s@@@Z@4HA 000000018005033c f   njsResultSet.obj
 0001:0004f33c       ?dtor$1@?0??Async_AfterGetConnection@Oracledb@@CAXPEAUuv_work_s@@@Z@4HA 000000018005033c f   njsOracle.obj
 0001:0004f33c       ?dtor$1@?0??Async_AfterRead@ILob@@CAXPEAUuv_work_s@@@Z@4HA 000000018005033c f   njsIntLob.obj
 0001:0004f350       ?dtor$0@?0??CreatePool@Oracledb@@CAXAEBV?$FunctionCallbackInfo@VValue@v8@@@Nan@@@Z@4HA 0000000180050350 f   njsOracle.obj
 0001:0004f35c       ?dtor$1@?0??CreatePool@Oracledb@@CAXAEBV?$FunctionCallbackInfo@VValue@v8@@@Nan@@@Z@4HA 000000018005035c f   njsOracle.obj
 0001:0004f368       ?dtor$3@?0??CreatePool@Oracledb@@CAXAEBV?$FunctionCallbackInfo@VValue@v8@@@Nan@@@Z@4HA 0000000180050368 f   njsOracle.obj
 0001:0004f385       ?dtor$7@?0??CreatePool@Oracledb@@CAXAEBV?$FunctionCallbackInfo@VValue@v8@@@Nan@@@Z@4HA 0000000180050385 f   njsOracle.obj
 0001:0004f393       ?dtor$10@?0??CreatePool@Oracledb@@CAXAEBV?$FunctionCallbackInfo@VValue@v8@@@Nan@@@Z@4HA 0000000180050393 f   njsOracle.obj
 0001:0004f3a1       ?dtor$13@?0??CreatePool@Oracledb@@CAXAEBV?$FunctionCallbackInfo@VValue@v8@@@Nan@@@Z@4HA 00000001800503a1 f   njsOracle.obj
 0001:0004f3af       ?dtor$28@?0??CreatePool@Oracledb@@CAXAEBV?$FunctionCallbackInfo@VValue@v8@@@Nan@@@Z@4HA 00000001800503af f   njsOracle.obj
 0001:0004f3c0       ?catch$1@?0??Async_CreatePool@Oracledb@@CAXPEAUuv_work_s@@@Z@4HA 00000001800503c0 f   njsOracle.obj
 0001:0004f3cd       __catch$?Async_CreatePool@Oracledb@@CAXPEAUuv_work_s@@@Z$1 00000001800503cd f   njsOracle.obj
 0001:0004f4c0       ?dtor$0@?0??Async_AfterCreatePool@Oracledb@@CAXPEAUuv_work_s@@@Z@4HA 00000001800504c0 f   njsOracle.obj
 0001:0004f4cc       ?dtor$1@?0??Async_AfterCreatePool@Oracledb@@CAXPEAUuv_work_s@@@Z@4HA 00000001800504cc f   njsOracle.obj
 0001:0004f4e0       ?dtor$0@?0???0?$basic_stringstream@DU?$char_traits@D@std@@V?$allocator@D@2@@std@@QEAA@H@Z@4HA 00000001800504e0 f   njsOracle.obj
 0001:0004f50d       ?dtor$1@?0???0?$basic_stringstream@DU?$char_traits@D@std@@V?$allocator@D@2@@std@@QEAA@H@Z@4HA 000000018005050d f   njsOracle.obj
 0001:0004f51d       ?dtor$3@?0???0?$basic_stringstream@DU?$char_traits@D@std@@V?$allocator@D@2@@std@@QEAA@H@Z@4HA 000000018005051d f   njsOracle.obj
 0001:0004f530       ?dtor$2@?0???6?$basic_ostream@DU?$char_traits@D@std@@@std@@QEAAAEAV01@H@Z@4HA 0000000180050530 f   njsOracle.obj
 0001:0004f53c       ?dtor$0@?0???6?$basic_ostream@DU?$char_traits@D@std@@@std@@QEAAAEAV01@H@Z@4HA 000000018005053c f   njsOracle.obj
 0001:0004f548       ?dtor$1@?0???6?$basic_ostream@DU?$char_traits@D@std@@@std@@QEAAAEAV01@H@Z@4HA 0000000180050548 f   njsOracle.obj
 0001:0004f560       ?dtor$0@?0???0sentry@?$basic_ostream@DU?$char_traits@D@std@@@std@@QEAA@AEAV12@@Z@4HA 0000000180050560 f   njsOracle.obj
 0001:0004f570       ?dtor$0@?0??do_put@?$num_put@DV?$ostreambuf_iterator@DU?$char_traits@D@std@@@std@@@std@@MEBA?AV?$ostreambuf_iterator@DU?$char_traits@D@std@@@2@V32@AEAVios_base@2@DO@Z@4HA 0000000180050570 f   njsOracle.obj
 0001:0004f570       ?dtor$0@?0??do_put@?$num_put@DV?$ostreambuf_iterator@DU?$char_traits@D@std@@@std@@@std@@MEBA?AV?$ostreambuf_iterator@DU?$char_traits@D@std@@@2@V32@AEAVios_base@2@DN@Z@4HA 0000000180050570 f   njsOracle.obj
 0001:0004f580       ?dtor$0@?0??do_put@?$num_put@DV?$ostreambuf_iterator@DU?$char_traits@D@std@@@std@@@std@@MEBA?AV?$ostreambuf_iterator@DU?$char_traits@D@std@@@2@V32@AEAVios_base@2@D_N@Z@4HA 0000000180050580 f   njsOracle.obj
 0001:0004f58c       ?dtor$1@?0??do_put@?$num_put@DV?$ostreambuf_iterator@DU?$char_traits@D@std@@@std@@@std@@MEBA?AV?$ostreambuf_iterator@DU?$char_traits@D@std@@@2@V32@AEAVios_base@2@D_N@Z@4HA 000000018005058c f   njsOracle.obj
 0001:0004f5a0       ?dtor$1@?0???0?$basic_iostream@DU?$char_traits@D@std@@@std@@QEAA@PEAV?$basic_streambuf@DU?$char_traits@D@std@@@1@@Z@4HA 00000001800505a0 f   njsOracle.obj
 0001:0004f5b0       ?dtor$0@?0??_Iput@?$num_put@DV?$ostreambuf_iterator@DU?$char_traits@D@std@@@std@@@std@@AEBA?AV?$ostreambuf_iterator@DU?$char_traits@D@std@@@2@V32@AEAVios_base@2@DPEAD_K@Z@4HA 00000001800505b0 f   njsOracle.obj
 0001:0004f5bc       ?dtor$1@?0??_Iput@?$num_put@DV?$ostreambuf_iterator@DU?$char_traits@D@std@@@std@@@std@@AEBA?AV?$ostreambuf_iterator@DU?$char_traits@D@std@@@2@V32@AEAVios_base@2@DPEAD_K@Z@4HA 00000001800505bc f   njsOracle.obj
 0001:0004f5c8       ?dtor$2@?0??_Iput@?$num_put@DV?$ostreambuf_iterator@DU?$char_traits@D@std@@@std@@@std@@AEBA?AV?$ostreambuf_iterator@DU?$char_traits@D@std@@@2@V32@AEAVios_base@2@DPEAD_K@Z@4HA 00000001800505c8 f   njsOracle.obj
 0001:0004f5d4       ?dtor$3@?0??_Iput@?$num_put@DV?$ostreambuf_iterator@DU?$char_traits@D@std@@@std@@@std@@AEBA?AV?$ostreambuf_iterator@DU?$char_traits@D@std@@@2@V32@AEAVios_base@2@DPEAD_K@Z@4HA 00000001800505d4 f   njsOracle.obj
 0001:0004f5e0       ?dtor$0@?0??_Fput@?$num_put@DV?$ostreambuf_iterator@DU?$char_traits@D@std@@@std@@@std@@AEBA?AV?$ostreambuf_iterator@DU?$char_traits@D@std@@@2@V32@AEAVios_base@2@DPEBD_K@Z@4HA 00000001800505e0 f   njsOracle.obj
 0001:0004f5ec       ?dtor$1@?0??_Fput@?$num_put@DV?$ostreambuf_iterator@DU?$char_traits@D@std@@@std@@@std@@AEBA?AV?$ostreambuf_iterator@DU?$char_traits@D@std@@@2@V32@AEAVios_base@2@DPEBD_K@Z@4HA 00000001800505ec f   njsOracle.obj
 0001:0004f5f8       ?dtor$2@?0??_Fput@?$num_put@DV?$ostreambuf_iterator@DU?$char_traits@D@std@@@std@@@std@@AEBA?AV?$ostreambuf_iterator@DU?$char_traits@D@std@@@2@V32@AEAVios_base@2@DPEBD_K@Z@4HA 00000001800505f8 f   njsOracle.obj
 0001:0004f604       ?dtor$3@?0??_Fput@?$num_put@DV?$ostreambuf_iterator@DU?$char_traits@D@std@@@std@@@std@@AEBA?AV?$ostreambuf_iterator@DU?$char_traits@D@std@@@2@V32@AEAVios_base@2@DPEBD_K@Z@4HA 0000000180050604 f   njsOracle.obj
 0001:0004f610       ?dtor$0@?0??flush@?$basic_ostream@DU?$char_traits@D@std@@@std@@QEAAAEAV12@XZ@4HA 0000000180050610 f   njsOracle.obj
 0001:0004f620       ?dtor$0@?0??init@?$basic_ios@DU?$char_traits@D@std@@@std@@IEAAXPEAV?$basic_streambuf@DU?$char_traits@D@std@@@2@_N@Z@4HA 0000000180050620 f   njsOracle.obj
 0001:0004f630       ?dtor$0@?0???$use_facet@V?$ctype@D@std@@@std@@YAAEBV?$ctype@D@0@AEBVlocale@0@@Z@4HA 0000000180050630 f   njsOracle.obj
 0001:0004f630       ?dtor$0@?0???$use_facet@V?$numpunct@D@std@@@std@@YAAEBV?$numpunct@D@0@AEBVlocale@0@@Z@4HA 0000000180050630 f   njsOracle.obj
 0001:0004f630       ?dtor$0@?0???$use_facet@V?$num_put@DV?$ostreambuf_iterator@DU?$char_traits@D@std@@@std@@@std@@@std@@YAAEBV?$num_put@DV?$ostreambuf_iterator@DU?$char_traits@D@std@@@std@@@0@AEBVlocale@0@@Z@4HA 0000000180050630 f   njsOracle.obj
 0001:0004f640       ?dtor$0@?0???$New@VString@v8@@V?$basic_string@DU?$char_traits@D@std@@V?$allocator@D@2@@std@@@Nan@@YA?AV?$MaybeLocal@VString@v8@@@v8@@V?$basic_string@DU?$char_traits@D@std@@V?$allocator@D@2@@std@@@Z@4HA 0000000180050640 f   njsOracle.obj
 0001:0004f650       ?dtor$1@?0???$_Insert_string@DU?$char_traits@D@std@@_K@std@@YAAEAV?$basic_ostream@DU?$char_traits@D@std@@@0@AEAV10@QEBD_K@Z@4HA 0000000180050650 f   dpiExceptionImpl.obj
 0001:0004f650       ?dtor$1@?0???$?6U?$char_traits@D@std@@@std@@YAAEAV?$basic_ostream@DU?$char_traits@D@std@@@0@AEAV10@PEBD@Z@4HA 0000000180050650 f   njsOracle.obj
 0001:0004f65c       ?dtor$0@?0???$_Insert_string@DU?$char_traits@D@std@@_K@std@@YAAEAV?$basic_ostream@DU?$char_traits@D@std@@@0@AEAV10@QEBD_K@Z@4HA 000000018005065c f   dpiExceptionImpl.obj
 0001:0004f65c       ?dtor$0@?0???$?6U?$char_traits@D@std@@@std@@YAAEAV?$basic_ostream@DU?$char_traits@D@std@@@0@AEAV10@PEBD@Z@4HA 000000018005065c f   njsOracle.obj
 0001:0004f668       ?dtor$2@?0???$?6U?$char_traits@D@std@@@std@@YAAEAV?$basic_ostream@DU?$char_traits@D@std@@@0@AEAV10@PEBD@Z@4HA 0000000180050668 f   njsOracle.obj
 0001:0004f668       ?dtor$2@?0???$_Insert_string@DU?$char_traits@D@std@@_K@std@@YAAEAV?$basic_ostream@DU?$char_traits@D@std@@@0@AEAV10@QEBD_K@Z@4HA 0000000180050668 f   dpiExceptionImpl.obj
 0001:0004f674       ?dtor$3@?0???$?6U?$char_traits@D@std@@@std@@YAAEAV?$basic_ostream@DU?$char_traits@D@std@@@0@AEAV10@PEBD@Z@4HA 0000000180050674 f   njsOracle.obj
 0001:0004f674       ?dtor$3@?0???$_Insert_string@DU?$char_traits@D@std@@_K@std@@YAAEAV?$basic_ostream@DU?$char_traits@D@std@@@0@AEAV10@QEBD_K@Z@4HA 0000000180050674 f   dpiExceptionImpl.obj
 0001:0004f680       ?dtor$4@?0???$?6U?$char_traits@D@std@@@std@@YAAEAV?$basic_ostream@DU?$char_traits@D@std@@@0@AEAV10@PEBD@Z@4HA 0000000180050680 f   njsOracle.obj
 0001:0004f680       ?dtor$4@?0???$_Insert_string@DU?$char_traits@D@std@@_K@std@@YAAEAV?$basic_ostream@DU?$char_traits@D@std@@@0@AEAV10@QEBD_K@Z@4HA 0000000180050680 f   dpiExceptionImpl.obj
 0001:0004f690       ?dtor$0@?0??_Getcat@?$numpunct@D@std@@SA_KPEAPEBVfacet@locale@2@PEBV42@@Z@4HA 0000000180050690 f   njsOracle.obj
 0001:0004f6b0       ?dtor$2@?0??_Getcat@?$numpunct@D@std@@SA_KPEAPEBVfacet@locale@2@PEBV42@@Z@4HA 00000001800506b0 f   njsOracle.obj
 0001:0004f6bc       ?dtor$3@?0??_Getcat@?$numpunct@D@std@@SA_KPEAPEBVfacet@locale@2@PEBV42@@Z@4HA 00000001800506bc f   njsOracle.obj
 0001:0004f6cc       ?dtor$4@?0??_Getcat@?$numpunct@D@std@@SA_KPEAPEBVfacet@locale@2@PEBV42@@Z@4HA 00000001800506cc f   njsOracle.obj
 0001:0004f6dc       ?dtor$5@?0??_Getcat@?$numpunct@D@std@@SA_KPEAPEBVfacet@locale@2@PEBV42@@Z@4HA 00000001800506dc f   njsOracle.obj
 0001:0004f6ec       ?dtor$6@?0??_Getcat@?$numpunct@D@std@@SA_KPEAPEBVfacet@locale@2@PEBV42@@Z@4HA 00000001800506ec f   njsOracle.obj
 0001:0004f6fc       ?dtor$7@?0??_Getcat@?$numpunct@D@std@@SA_KPEAPEBVfacet@locale@2@PEBV42@@Z@4HA 00000001800506fc f   njsOracle.obj
 0001:0004f70c       ?dtor$8@?0??_Getcat@?$numpunct@D@std@@SA_KPEAPEBVfacet@locale@2@PEBV42@@Z@4HA 000000018005070c f   njsOracle.obj
 0001:0004f71c       ?dtor$9@?0??_Getcat@?$numpunct@D@std@@SA_KPEAPEBVfacet@locale@2@PEBV42@@Z@4HA 000000018005071c f   njsOracle.obj
 0001:0004f728       ?dtor$1@?0??_Getcat@?$numpunct@D@std@@SA_KPEAPEBVfacet@locale@2@PEBV42@@Z@4HA 0000000180050728 f   njsOracle.obj
 0001:0004f754       ?dtor$11@?0??_Getcat@?$numpunct@D@std@@SA_KPEAPEBVfacet@locale@2@PEBV42@@Z@4HA 0000000180050754 f   njsOracle.obj
 0001:0004f760       ?dtor$0@?0??_Getcat@?$num_put@DV?$ostreambuf_iterator@DU?$char_traits@D@std@@@std@@@std@@SA_KPEAPEBVfacet@locale@2@PEBV42@@Z@4HA 0000000180050760 f   njsOracle.obj
 0001:0004f780       ?dtor$2@?0??_Getcat@?$num_put@DV?$ostreambuf_iterator@DU?$char_traits@D@std@@@std@@@std@@SA_KPEAPEBVfacet@locale@2@PEBV42@@Z@4HA 0000000180050780 f   njsOracle.obj
 0001:0004f78c       ?dtor$3@?0??_Getcat@?$num_put@DV?$ostreambuf_iterator@DU?$char_traits@D@std@@@std@@@std@@SA_KPEAPEBVfacet@locale@2@PEBV42@@Z@4HA 000000018005078c f   njsOracle.obj
 0001:0004f79c       ?dtor$4@?0??_Getcat@?$num_put@DV?$ostreambuf_iterator@DU?$char_traits@D@std@@@std@@@std@@SA_KPEAPEBVfacet@locale@2@PEBV42@@Z@4HA 000000018005079c f   njsOracle.obj
 0001:0004f7ac       ?dtor$5@?0??_Getcat@?$num_put@DV?$ostreambuf_iterator@DU?$char_traits@D@std@@@std@@@std@@SA_KPEAPEBVfacet@locale@2@PEBV42@@Z@4HA 00000001800507ac f   njsOracle.obj
 0001:0004f7bc       ?dtor$6@?0??_Getcat@?$num_put@DV?$ostreambuf_iterator@DU?$char_traits@D@std@@@std@@@std@@SA_KPEAPEBVfacet@locale@2@PEBV42@@Z@4HA 00000001800507bc f   njsOracle.obj
 0001:0004f7cc       ?dtor$7@?0??_Getcat@?$num_put@DV?$ostreambuf_iterator@DU?$char_traits@D@std@@@std@@@std@@SA_KPEAPEBVfacet@locale@2@PEBV42@@Z@4HA 00000001800507cc f   njsOracle.obj
 0001:0004f7dc       ?dtor$8@?0??_Getcat@?$num_put@DV?$ostreambuf_iterator@DU?$char_traits@D@std@@@std@@@std@@SA_KPEAPEBVfacet@locale@2@PEBV42@@Z@4HA 00000001800507dc f   njsOracle.obj
 0001:0004f7ec       ?dtor$9@?0??_Getcat@?$num_put@DV?$ostreambuf_iterator@DU?$char_traits@D@std@@@std@@@std@@SA_KPEAPEBVfacet@locale@2@PEBV42@@Z@4HA 00000001800507ec f   njsOracle.obj
 0001:0004f800       ?dtor$0@?0???0poolBaton@@QEAA@V?$Local@VFunction@v8@@@v8@@V?$Local@VObject@v8@@@2@@Z@4HA 0000000180050800 f   njsPool.obj
 0001:0004f813       ?dtor$1@?0???0poolBaton@@QEAA@V?$Local@VFunction@v8@@@v8@@V?$Local@VObject@v8@@@2@@Z@4HA 0000000180050813 f   njsPool.obj
 0001:0004f826       ?dtor$2@?0???0poolBaton@@QEAA@V?$Local@VFunction@v8@@@v8@@V?$Local@VObject@v8@@@2@@Z@4HA 0000000180050826 f   njsPool.obj
 0001:0004f839       ?dtor$3@?0???0poolBaton@@QEAA@V?$Local@VFunction@v8@@@v8@@V?$Local@VObject@v8@@@2@@Z@4HA 0000000180050839 f   njsPool.obj
 0001:0004f850       ?dtor$0@?0??getPoolProperty@Pool@@CA?AV?$Local@VPrimitive@v8@@@v8@@PEAV1@I@Z@4HA 0000000180050850 f   njsPool.obj
 0001:0004f850       ?dtor$0@?0??getPoolProperty@Pool@@CA?AV?$Local@VPrimitive@v8@@@v8@@PEAV1@H@Z@4HA 0000000180050850 f   njsPool.obj
 0001:0004f85c       ?dtor$1@?0??getPoolProperty@Pool@@CA?AV?$Local@VPrimitive@v8@@@v8@@PEAV1@I@Z@4HA 000000018005085c f   njsPool.obj
 0001:0004f85c       ?dtor$1@?0??getPoolProperty@Pool@@CA?AV?$Local@VPrimitive@v8@@@v8@@PEAV1@H@Z@4HA 000000018005085c f   njsPool.obj
 0001:0004f870       ?dtor$0@?0??GetConnectionsOpen@Pool@@CAXV?$Local@VString@v8@@@v8@@AEBV?$PropertyCallbackInfo@VValue@v8@@@Nan@@@Z@4HA 0000000180050870 f   njsPool.obj
 0001:0004f87c       ?dtor$1@?0??GetConnectionsOpen@Pool@@CAXV?$Local@VString@v8@@@v8@@AEBV?$PropertyCallbackInfo@VValue@v8@@@Nan@@@Z@4HA 000000018005087c f   njsPool.obj
 0001:0004f888       ?catch$2@?0??GetConnectionsOpen@Pool@@CAXV?$Local@VString@v8@@@v8@@AEBV?$PropertyCallbackInfo@VValue@v8@@@Nan@@@Z@4HA 0000000180050888 f   njsPool.obj
 0001:0004f895       __catch$?GetConnectionsOpen@Pool@@CAXV?$Local@VString@v8@@@v8@@AEBV?$PropertyCallbackInfo@VValue@v8@@@Nan@@@Z$0 0000000180050895 f   njsPool.obj
 0001:0004f8e0       ?dtor$0@?0??GetConnectionsInUse@Pool@@CAXV?$Local@VString@v8@@@v8@@AEBV?$PropertyCallbackInfo@VValue@v8@@@Nan@@@Z@4HA 00000001800508e0 f   njsPool.obj
 0001:0004f8ec       ?dtor$1@?0??GetConnectionsInUse@Pool@@CAXV?$Local@VString@v8@@@v8@@AEBV?$PropertyCallbackInfo@VValue@v8@@@Nan@@@Z@4HA 00000001800508ec f   njsPool.obj
 0001:0004f8f8       ?catch$2@?0??GetConnectionsInUse@Pool@@CAXV?$Local@VString@v8@@@v8@@AEBV?$PropertyCallbackInfo@VValue@v8@@@Nan@@@Z@4HA 00000001800508f8 f   njsPool.obj
 0001:0004f905       __catch$?GetConnectionsInUse@Pool@@CAXV?$Local@VString@v8@@@v8@@AEBV?$PropertyCallbackInfo@VValue@v8@@@Nan@@@Z$0 0000000180050905 f   njsPool.obj
 0001:0004f950       ?dtor$0@?0??setPoolProperty@Pool@@CAXPEAV1@V?$basic_string@DU?$char_traits@D@std@@V?$allocator@D@2@@std@@@Z@4HA 0000000180050950 f   njsPool.obj
 0001:0004f95c       ?dtor$1@?0??setPoolProperty@Pool@@CAXPEAV1@V?$basic_string@DU?$char_traits@D@std@@V?$allocator@D@2@@std@@@Z@4HA 000000018005095c f   njsPool.obj
 0001:0004f968       ?dtor$2@?0??setPoolProperty@Pool@@CAXPEAV1@V?$basic_string@DU?$char_traits@D@std@@V?$allocator@D@2@@std@@@Z@4HA 0000000180050968 f   njsPool.obj
 0001:0004f974       ?dtor$3@?0??setPoolProperty@Pool@@CAXPEAV1@V?$basic_string@DU?$char_traits@D@std@@V?$allocator@D@2@@std@@@Z@4HA 0000000180050974 f   njsPool.obj
 0001:0004f980       ?dtor$0@?0??SetPoolMax@Pool@@CAXV?$Local@VString@v8@@@v8@@V?$Local@VValue@v8@@@3@AEBV?$PropertyCallbackInfo@X@Nan@@@Z@4HA 0000000180050980 f   njsPool.obj
 0001:0004f980       ?dtor$0@?0??SetConnectionsInUse@Pool@@CAXV?$Local@VString@v8@@@v8@@V?$Local@VValue@v8@@@3@AEBV?$PropertyCallbackInfo@X@Nan@@@Z@4HA 0000000180050980 f   njsPool.obj
 0001:0004f980       ?dtor$0@?0??SetConnectionsOpen@Pool@@CAXV?$Local@VString@v8@@@v8@@V?$Local@VValue@v8@@@3@AEBV?$PropertyCallbackInfo@X@Nan@@@Z@4HA 0000000180050980 f   njsPool.obj
 0001:0004f980       ?dtor$0@?0??SetPoolIncrement@Pool@@CAXV?$Local@VString@v8@@@v8@@V?$Local@VValue@v8@@@3@AEBV?$PropertyCallbackInfo@X@Nan@@@Z@4HA 0000000180050980 f   njsPool.obj
 0001:0004f980       ?dtor$0@?0??SetStmtCacheSize@Pool@@CAXV?$Local@VString@v8@@@v8@@V?$Local@VValue@v8@@@3@AEBV?$PropertyCallbackInfo@X@Nan@@@Z@4HA 0000000180050980 f   njsPool.obj
 0001:0004f980       ?dtor$0@?0??SetPoolTimeout@Pool@@CAXV?$Local@VString@v8@@@v8@@V?$Local@VValue@v8@@@3@AEBV?$PropertyCallbackInfo@X@Nan@@@Z@4HA 0000000180050980 f   njsPool.obj
 0001:0004f980       ?dtor$0@?0??SetPoolPingInterval@Pool@@CAXV?$Local@VString@v8@@@v8@@V?$Local@VValue@v8@@@3@AEBV?$PropertyCallbackInfo@X@Nan@@@Z@4HA 0000000180050980 f   njsPool.obj
 0001:0004f980       ?dtor$0@?0??SetPoolMin@Pool@@CAXV?$Local@VString@v8@@@v8@@V?$Local@VValue@v8@@@3@AEBV?$PropertyCallbackInfo@X@Nan@@@Z@4HA 0000000180050980 f   njsPool.obj
 0001:0004f990       ?dtor$0@?0??GetConnection@Pool@@CAXAEBV?$FunctionCallbackInfo@VValue@v8@@@Nan@@@Z@4HA 0000000180050990 f   njsPool.obj
 0001:0004f990       ?dtor$0@?0??Terminate@Pool@@CAXAEBV?$FunctionCallbackInfo@VValue@v8@@@Nan@@@Z@4HA 0000000180050990 f   njsPool.obj
 0001:0004f99c       ?dtor$2@?0??Terminate@Pool@@CAXAEBV?$FunctionCallbackInfo@VValue@v8@@@Nan@@@Z@4HA 000000018005099c f   njsPool.obj
 0001:0004f99c       ?dtor$2@?0??GetConnection@Pool@@CAXAEBV?$FunctionCallbackInfo@VValue@v8@@@Nan@@@Z@4HA 000000018005099c f   njsPool.obj
 0001:0004f9b9       ?dtor$6@?0??GetConnection@Pool@@CAXAEBV?$FunctionCallbackInfo@VValue@v8@@@Nan@@@Z@4HA 00000001800509b9 f   njsPool.obj
 0001:0004f9b9       ?dtor$6@?0??Terminate@Pool@@CAXAEBV?$FunctionCallbackInfo@VValue@v8@@@Nan@@@Z@4HA 00000001800509b9 f   njsPool.obj
 0001:0004f9d0       ?dtor$0@?0??Async_GetConnection@Pool@@CAXPEAUuv_work_s@@@Z@4HA 00000001800509d0 f   njsPool.obj
 0001:0004f9dc       ?dtor$1@?0??Async_GetConnection@Pool@@CAXPEAUuv_work_s@@@Z@4HA 00000001800509dc f   njsPool.obj
 0001:0004f9e8       ?dtor$2@?0??Async_GetConnection@Pool@@CAXPEAUuv_work_s@@@Z@4HA 00000001800509e8 f   njsPool.obj
 0001:0004f9f4       ?catch$4@?0??Async_GetConnection@Pool@@CAXPEAUuv_work_s@@@Z@4HA 00000001800509f4 f   njsPool.obj
 0001:0004fa01       __catch$?Async_GetConnection@Pool@@CAXPEAUuv_work_s@@@Z$1 0000000180050a01 f   njsPool.obj
 0001:0004fae0       ?catch$1@?0??Async_Terminate@Pool@@CAXPEAUuv_work_s@@@Z@4HA 0000000180050ae0 f   njsPool.obj
 0001:0004faed       __catch$?Async_Terminate@Pool@@CAXPEAUuv_work_s@@@Z$1 0000000180050aed f   njsPool.obj
 0001:0004fbd0       ?dtor$0@?0??Async_AfterTerminate@Pool@@CAXPEAUuv_work_s@@@Z@4HA 0000000180050bd0 f   njsPool.obj
 0001:0004fbd0       ?dtor$0@?0??Async_AfterWrite@ILob@@CAXPEAUuv_work_s@@@Z@4HA 0000000180050bd0 f   njsIntLob.obj
 0001:0004fbd0       ?dtor$0@?0??Async_AfterClose@ResultSet@@CAXPEAUuv_work_s@@@Z@4HA 0000000180050bd0 f   njsResultSet.obj
 0001:0004fbd0       ?dtor$0@?0??Async_AfterClose@ILob@@CAXPEAUuv_work_s@@@Z@4HA 0000000180050bd0 f   njsIntLob.obj
 0001:0004fbd0       ?dtor$0@?0??Async_AfterBreak@Connection@@CAXPEAUuv_work_s@@@Z@4HA 0000000180050bd0 f   njsConnection.obj
 0001:0004fbd0       ?dtor$0@?0??Async_AfterRollback@Connection@@CAXPEAUuv_work_s@@@Z@4HA 0000000180050bd0 f   njsConnection.obj
 0001:0004fbd0       ?dtor$0@?0??Async_AfterCommit@Connection@@CAXPEAUuv_work_s@@@Z@4HA 0000000180050bd0 f   njsConnection.obj
 0001:0004fbdc       ?dtor$1@?0??Async_AfterTerminate@Pool@@CAXPEAUuv_work_s@@@Z@4HA 0000000180050bdc f   njsPool.obj
 0001:0004fbdc       ?dtor$1@?0??Async_AfterClose@ILob@@CAXPEAUuv_work_s@@@Z@4HA 0000000180050bdc f   njsIntLob.obj
 0001:0004fbdc       ?dtor$1@?0??Async_AfterClose@ResultSet@@CAXPEAUuv_work_s@@@Z@4HA 0000000180050bdc f   njsResultSet.obj
 0001:0004fbdc       ?dtor$1@?0??Async_AfterRollback@Connection@@CAXPEAUuv_work_s@@@Z@4HA 0000000180050bdc f   njsConnection.obj
 0001:0004fbdc       ?dtor$1@?0??Async_AfterBreak@Connection@@CAXPEAUuv_work_s@@@Z@4HA 0000000180050bdc f   njsConnection.obj
 0001:0004fbdc       ?dtor$1@?0??Async_AfterCommit@Connection@@CAXPEAUuv_work_s@@@Z@4HA 0000000180050bdc f   njsConnection.obj
 0001:0004fbdc       ?dtor$1@?0??Async_AfterWrite@ILob@@CAXPEAUuv_work_s@@@Z@4HA 0000000180050bdc f   njsIntLob.obj
 0001:0004fbf0       ?dtor$0@?0???0eBaton@@QEAA@AEAIV?$Local@VFunction@v8@@@v8@@V?$Local@VObject@v8@@@2@@Z@4HA 0000000180050bf0 f   njsConnection.obj
 0001:0004fc03       ?dtor$1@?0???0eBaton@@QEAA@AEAIV?$Local@VFunction@v8@@@v8@@V?$Local@VObject@v8@@@2@@Z@4HA 0000000180050c03 f   njsConnection.obj
 0001:0004fc16       ?dtor$2@?0???0eBaton@@QEAA@AEAIV?$Local@VFunction@v8@@@v8@@V?$Local@VObject@v8@@@2@@Z@4HA 0000000180050c16 f   njsConnection.obj
 0001:0004fc29       ?dtor$3@?0???0eBaton@@QEAA@AEAIV?$Local@VFunction@v8@@@v8@@V?$Local@VObject@v8@@@2@@Z@4HA 0000000180050c29 f   njsConnection.obj
 0001:0004fc3c       ?dtor$4@?0???0eBaton@@QEAA@AEAIV?$Local@VFunction@v8@@@v8@@V?$Local@VObject@v8@@@2@@Z@4HA 0000000180050c3c f   njsConnection.obj
 0001:0004fc4f       ?dtor$5@?0???0eBaton@@QEAA@AEAIV?$Local@VFunction@v8@@@v8@@V?$Local@VObject@v8@@@2@@Z@4HA 0000000180050c4f f   njsConnection.obj
 0001:0004fc62       ?dtor$6@?0???0eBaton@@QEAA@AEAIV?$Local@VFunction@v8@@@v8@@V?$Local@VObject@v8@@@2@@Z@4HA 0000000180050c62 f   njsConnection.obj
 0001:0004fc75       ?dtor$7@?0???0eBaton@@QEAA@AEAIV?$Local@VFunction@v8@@@v8@@V?$Local@VObject@v8@@@2@@Z@4HA 0000000180050c75 f   njsConnection.obj
 0001:0004fc88       ?dtor$8@?0???0eBaton@@QEAA@AEAIV?$Local@VFunction@v8@@@v8@@V?$Local@VObject@v8@@@2@@Z@4HA 0000000180050c88 f   njsConnection.obj
 0001:0004fca0       ?dtor$0@?0??connectionPropertyException@Connection@@CAXPEAV1@W4NJSErrorType@@V?$basic_string@DU?$char_traits@D@std@@V?$allocator@D@2@@std@@@Z@4HA 0000000180050ca0 f   njsConnection.obj
 0001:0004fca0       ?dtor$0@?0??lobPropertyException@ILob@@CAXPEAV1@W4NJSErrorType@@V?$basic_string@DU?$char_traits@D@std@@V?$allocator@D@2@@std@@@Z@4HA 0000000180050ca0 f   njsIntLob.obj
 0001:0004fcac       ?dtor$1@?0??connectionPropertyException@Connection@@CAXPEAV1@W4NJSErrorType@@V?$basic_string@DU?$char_traits@D@std@@V?$allocator@D@2@@std@@@Z@4HA 0000000180050cac f   njsConnection.obj
 0001:0004fcac       ?dtor$1@?0??lobPropertyException@ILob@@CAXPEAV1@W4NJSErrorType@@V?$basic_string@DU?$char_traits@D@std@@V?$allocator@D@2@@std@@@Z@4HA 0000000180050cac f   njsIntLob.obj
 0001:0004fcb8       ?dtor$2@?0??lobPropertyException@ILob@@CAXPEAV1@W4NJSErrorType@@V?$basic_string@DU?$char_traits@D@std@@V?$allocator@D@2@@std@@@Z@4HA 0000000180050cb8 f   njsIntLob.obj
 0001:0004fcb8       ?dtor$2@?0??connectionPropertyException@Connection@@CAXPEAV1@W4NJSErrorType@@V?$basic_string@DU?$char_traits@D@std@@V?$allocator@D@2@@std@@@Z@4HA 0000000180050cb8 f   njsConnection.obj
 0001:0004fcd0       ?dtor$0@?0??GetStmtCacheSize@Connection@@CAXV?$Local@VString@v8@@@v8@@AEBV?$PropertyCallbackInfo@VValue@v8@@@Nan@@@Z@4HA 0000000180050cd0 f   njsConnection.obj
 0001:0004fcdc       ?dtor$1@?0??GetStmtCacheSize@Connection@@CAXV?$Local@VString@v8@@@v8@@AEBV?$PropertyCallbackInfo@VValue@v8@@@Nan@@@Z@4HA 0000000180050cdc f   njsConnection.obj
 0001:0004fce8       ?catch$2@?0??GetStmtCacheSize@Connection@@CAXV?$Local@VString@v8@@@v8@@AEBV?$PropertyCallbackInfo@VValue@v8@@@Nan@@@Z@4HA 0000000180050ce8 f   njsConnection.obj
 0001:0004fcf7       __catch$?GetStmtCacheSize@Connection@@CAXV?$Local@VString@v8@@@v8@@AEBV?$PropertyCallbackInfo@VValue@v8@@@Nan@@@Z$0 0000000180050cf7 f   njsConnection.obj
 0001:0004fd80       ?dtor$0@?0??SetClientId@Connection@@CAXV?$Local@VString@v8@@@v8@@V?$Local@VValue@v8@@@3@AEBV?$PropertyCallbackInfo@X@Nan@@@Z@4HA 0000000180050d80 f   njsConnection.obj
 0001:0004fd8c       ?dtor$1@?0??SetClientId@Connection@@CAXV?$Local@VString@v8@@@v8@@V?$Local@VValue@v8@@@3@AEBV?$PropertyCallbackInfo@X@Nan@@@Z@4HA 0000000180050d8c f   njsConnection.obj
 0001:0004fd98       ?dtor$2@?0??SetClientId@Connection@@CAXV?$Local@VString@v8@@@v8@@V?$Local@VValue@v8@@@3@AEBV?$PropertyCallbackInfo@X@Nan@@@Z@4HA 0000000180050d98 f   njsConnection.obj
 0001:0004fda4       ?dtor$3@?0??SetClientId@Connection@@CAXV?$Local@VString@v8@@@v8@@V?$Local@VValue@v8@@@3@AEBV?$PropertyCallbackInfo@X@Nan@@@Z@4HA 0000000180050da4 f   njsConnection.obj
 0001:0004fdb0       ?dtor$4@?0??SetClientId@Connection@@CAXV?$Local@VString@v8@@@v8@@V?$Local@VValue@v8@@@3@AEBV?$PropertyCallbackInfo@X@Nan@@@Z@4HA 0000000180050db0 f   njsConnection.obj
 0001:0004fdbe       ?catch$7@?0??SetClientId@Connection@@CAXV?$Local@VString@v8@@@v8@@V?$Local@VValue@v8@@@3@AEBV?$PropertyCallbackInfo@X@Nan@@@Z@4HA 0000000180050dbe f   njsConnection.obj
 0001:0004fdcd       __catch$?SetClientId@Connection@@CAXV?$Local@VString@v8@@@v8@@V?$Local@VValue@v8@@@3@AEBV?$PropertyCallbackInfo@X@Nan@@@Z$0 0000000180050dcd f   njsConnection.obj
 0001:0004fe50       ?dtor$0@?0??SetModule@Connection@@CAXV?$Local@VString@v8@@@v8@@V?$Local@VValue@v8@@@3@AEBV?$PropertyCallbackInfo@X@Nan@@@Z@4HA 0000000180050e50 f   njsConnection.obj
 0001:0004fe5c       ?dtor$1@?0??SetModule@Connection@@CAXV?$Local@VString@v8@@@v8@@V?$Local@VValue@v8@@@3@AEBV?$PropertyCallbackInfo@X@Nan@@@Z@4HA 0000000180050e5c f   njsConnection.obj
 0001:0004fe68       ?dtor$2@?0??SetModule@Connection@@CAXV?$Local@VString@v8@@@v8@@V?$Local@VValue@v8@@@3@AEBV?$PropertyCallbackInfo@X@Nan@@@Z@4HA 0000000180050e68 f   njsConnection.obj
 0001:0004fe74       ?dtor$3@?0??SetModule@Connection@@CAXV?$Local@VString@v8@@@v8@@V?$Local@VValue@v8@@@3@AEBV?$PropertyCallbackInfo@X@Nan@@@Z@4HA 0000000180050e74 f   njsConnection.obj
 0001:0004fe80       ?dtor$4@?0??SetModule@Connection@@CAXV?$Local@VString@v8@@@v8@@V?$Local@VValue@v8@@@3@AEBV?$PropertyCallbackInfo@X@Nan@@@Z@4HA 0000000180050e80 f   njsConnection.obj
 0001:0004fe8e       ?catch$7@?0??SetModule@Connection@@CAXV?$Local@VString@v8@@@v8@@V?$Local@VValue@v8@@@3@AEBV?$PropertyCallbackInfo@X@Nan@@@Z@4HA 0000000180050e8e f   njsConnection.obj
 0001:0004fe9d       __catch$?SetModule@Connection@@CAXV?$Local@VString@v8@@@v8@@V?$Local@VValue@v8@@@3@AEBV?$PropertyCallbackInfo@X@Nan@@@Z$0 0000000180050e9d f   njsConnection.obj
 0001:0004ff20       ?dtor$0@?0??SetAction@Connection@@CAXV?$Local@VString@v8@@@v8@@V?$Local@VValue@v8@@@3@AEBV?$PropertyCallbackInfo@X@Nan@@@Z@4HA 0000000180050f20 f   njsConnection.obj
 0001:0004ff2c       ?dtor$1@?0??SetAction@Connection@@CAXV?$Local@VString@v8@@@v8@@V?$Local@VValue@v8@@@3@AEBV?$PropertyCallbackInfo@X@Nan@@@Z@4HA 0000000180050f2c f   njsConnection.obj
 0001:0004ff38       ?dtor$2@?0??SetAction@Connection@@CAXV?$Local@VString@v8@@@v8@@V?$Local@VValue@v8@@@3@AEBV?$PropertyCallbackInfo@X@Nan@@@Z@4HA 0000000180050f38 f   njsConnection.obj
 0001:0004ff44       ?dtor$3@?0??SetAction@Connection@@CAXV?$Local@VString@v8@@@v8@@V?$Local@VValue@v8@@@3@AEBV?$PropertyCallbackInfo@X@Nan@@@Z@4HA 0000000180050f44 f   njsConnection.obj
 0001:0004ff50       ?dtor$4@?0??SetAction@Connection@@CAXV?$Local@VString@v8@@@v8@@V?$Local@VValue@v8@@@3@AEBV?$PropertyCallbackInfo@X@Nan@@@Z@4HA 0000000180050f50 f   njsConnection.obj
 0001:0004ff5e       ?catch$7@?0??SetAction@Connection@@CAXV?$Local@VString@v8@@@v8@@V?$Local@VValue@v8@@@3@AEBV?$PropertyCallbackInfo@X@Nan@@@Z@4HA 0000000180050f5e f   njsConnection.obj
 0001:0004ff6d       __catch$?SetAction@Connection@@CAXV?$Local@VString@v8@@@v8@@V?$Local@VValue@v8@@@3@AEBV?$PropertyCallbackInfo@X@Nan@@@Z$0 0000000180050f6d f   njsConnection.obj
 0001:0004fff0       ?dtor$0@?0??GetOracleServerVersion@Connection@@CAXV?$Local@VString@v8@@@v8@@AEBV?$PropertyCallbackInfo@VValue@v8@@@Nan@@@Z@4HA 0000000180050ff0 f   njsConnection.obj
 0001:0004fffc       ?dtor$1@?0??GetOracleServerVersion@Connection@@CAXV?$Local@VString@v8@@@v8@@AEBV?$PropertyCallbackInfo@VValue@v8@@@Nan@@@Z@4HA 0000000180050ffc f   njsConnection.obj
 0001:00050008       ?catch$3@?0??GetOracleServerVersion@Connection@@CAXV?$Local@VString@v8@@@v8@@AEBV?$PropertyCallbackInfo@VValue@v8@@@Nan@@@Z@4HA 0000000180051008 f   njsConnection.obj
 0001:00050017       __catch$?GetOracleServerVersion@Connection@@CAXV?$Local@VString@v8@@@v8@@AEBV?$PropertyCallbackInfo@VValue@v8@@@Nan@@@Z$0 0000000180051017 f   njsConnection.obj
 0001:000500b0       ?dtor$0@?0??Execute@Connection@@CAXAEBV?$FunctionCallbackInfo@VValue@v8@@@Nan@@@Z@4HA 00000001800510b0 f   njsConnection.obj
 0001:000500bc       ?dtor$2@?0??Execute@Connection@@CAXAEBV?$FunctionCallbackInfo@VValue@v8@@@Nan@@@Z@4HA 00000001800510bc f   njsConnection.obj
 0001:000500c8       ?dtor$3@?0??Execute@Connection@@CAXAEBV?$FunctionCallbackInfo@VValue@v8@@@Nan@@@Z@4HA 00000001800510c8 f   njsConnection.obj
 0001:000500e5       ?dtor$7@?0??Execute@Connection@@CAXAEBV?$FunctionCallbackInfo@VValue@v8@@@Nan@@@Z@4HA 00000001800510e5 f   njsConnection.obj
 0001:000500f3       ?dtor$10@?0??Execute@Connection@@CAXAEBV?$FunctionCallbackInfo@VValue@v8@@@Nan@@@Z@4HA 00000001800510f3 f   njsConnection.obj
 0001:00050100       ?dtor$0@?0??GetOutBindParams@Connection@@CAXGPEAUBind@@PEAUeBaton@@@Z@4HA 0000000180051100 f   njsConnection.obj
 0001:00050100       ?dtor$0@?0??ProcessBinds@Connection@@CAXAEBV?$FunctionCallbackInfo@VValue@v8@@@Nan@@IPEAUeBaton@@@Z@4HA 0000000180051100 f   njsConnection.obj
 0001:00050110       ?dtor$0@?0??ProcessOptions@Connection@@CAXAEBV?$FunctionCallbackInfo@VValue@v8@@@Nan@@IPEAUeBaton@@@Z@4HA 0000000180051110 f   njsConnection.obj
 0001:0005011c       ?dtor$8@?0??ProcessOptions@Connection@@CAXAEBV?$FunctionCallbackInfo@VValue@v8@@@Nan@@IPEAUeBaton@@@Z@4HA 000000018005111c f   njsConnection.obj
 0001:0005015a       ?dtor$9@?0??ProcessOptions@Connection@@CAXAEBV?$FunctionCallbackInfo@VValue@v8@@@Nan@@IPEAUeBaton@@@Z@4HA 000000018005115a f   njsConnection.obj
 0001:00050170       ?dtor$0@?0??GetBinds@Connection@@CAXV?$Local@VObject@v8@@@v8@@PEAUeBaton@@@Z@4HA 0000000180051170 f   njsConnection.obj
 0001:0005017c       ?dtor$1@?0??GetBinds@Connection@@CAXV?$Local@VObject@v8@@@v8@@PEAUeBaton@@@Z@4HA 000000018005117c f   njsConnection.obj
 0001:00050188       ?dtor$2@?0??GetBinds@Connection@@CAXV?$Local@VObject@v8@@@v8@@PEAUeBaton@@@Z@4HA 0000000180051188 f   njsConnection.obj
 0001:000501a5       ?dtor$3@?0??GetBinds@Connection@@CAXV?$Local@VObject@v8@@@v8@@PEAUeBaton@@@Z@4HA 00000001800511a5 f   njsConnection.obj
 0001:000501b3       ?dtor$5@?0??GetBinds@Connection@@CAXV?$Local@VObject@v8@@@v8@@PEAUeBaton@@@Z@4HA 00000001800511b3 f   njsConnection.obj
 0001:000501c0       ?dtor$0@?0??GetBinds@Connection@@CAXV?$Local@VArray@v8@@@v8@@PEAUeBaton@@@Z@4HA 00000001800511c0 f   njsConnection.obj
 0001:000501cc       ?dtor$1@?0??GetBinds@Connection@@CAXV?$Local@VArray@v8@@@v8@@PEAUeBaton@@@Z@4HA 00000001800511cc f   njsConnection.obj
 0001:000501f0       ?dtor$0@?0??GetBindUnit@Connection@@CAXV?$Local@VValue@v8@@@v8@@PEAUBind@@_NPEAUeBaton@@@Z@4HA 00000001800511f0 f   njsConnection.obj
 0001:000501fc       ?dtor$1@?0??GetBindUnit@Connection@@CAXV?$Local@VValue@v8@@@v8@@PEAUBind@@_NPEAUeBaton@@@Z@4HA 00000001800511fc f   njsConnection.obj
 0001:00050208       ?dtor$2@?0??GetBindUnit@Connection@@CAXV?$Local@VValue@v8@@@v8@@PEAUBind@@_NPEAUeBaton@@@Z@4HA 0000000180051208 f   njsConnection.obj
 0001:00050220       ?dtor$0@?0??Lob2V8Value@Connection@@CA?AV?$Local@VValue@v8@@@v8@@PEAUeBaton@@PEAUBind@@@Z@4HA 0000000180051220 f   njsConnection.obj
 0001:00050220       ?dtor$0@?0??GetOutBinds@Connection@@CA?AV?$Local@VValue@v8@@@v8@@PEAUeBaton@@@Z@4HA 0000000180051220 f   njsConnection.obj
 0001:00050220       ?dtor$0@?0??GetInBindParams@Connection@@CAXV?$Local@VValue@v8@@@v8@@PEAUBind@@PEAUeBaton@@@Z@4HA 0000000180051220 f   njsConnection.obj
 0001:00050220       ?dtor$0@?0??v8Date2OraDate@Connection@@CAXV?$Local@VValue@v8@@@v8@@PEAUBind@@@Z@4HA 0000000180051220 f   njsConnection.obj
 0001:00050230       ?dtor$0@?0??GetInBindParamsScalar@Connection@@CAXV?$Local@VValue@v8@@@v8@@PEAUBind@@PEAUeBaton@@@Z@4HA 0000000180051230 f   njsConnection.obj
 0001:0005023c       ?dtor$2@?0??GetInBindParamsScalar@Connection@@CAXV?$Local@VValue@v8@@@v8@@PEAUBind@@PEAUeBaton@@@Z@4HA 000000018005123c f   njsConnection.obj
 0001:0005024a       ?dtor$18@?0??GetInBindParamsScalar@Connection@@CAXV?$Local@VValue@v8@@@v8@@PEAUBind@@PEAUeBaton@@@Z@4HA 000000018005124a f   njsConnection.obj
 0001:00050270       ?dtor$1@?0??Async_Execute@Connection@@CAXPEAUuv_work_s@@@Z@4HA 0000000180051270 f   njsConnection.obj
 0001:000502ae       ?dtor$8@?0??Async_Execute@Connection@@CAXPEAUuv_work_s@@@Z@4HA 00000001800512ae f   njsConnection.obj
 0001:000502ec       ?catch$12@?0??Async_Execute@Connection@@CAXPEAUuv_work_s@@@Z@4HA 00000001800512ec f   njsConnection.obj
 0001:000502fb       __catch$?Async_Execute@Connection@@CAXPEAUuv_work_s@@@Z$13 00000001800512fb f   njsConnection.obj
 0001:000504e0       ?dtor$3@?0??PrepareAndBind@Connection@@CAXPEAUeBaton@@@Z@4HA 00000001800514e0 f   njsConnection.obj
 0001:00050500       ?dtor$0@?0??Descr2protoILob@Connection@@CAXPEAUeBaton@@II@Z@4HA 0000000180051500 f   njsConnection.obj
 0001:0005051d       ?dtor$1@?0??Descr2protoILob@Connection@@CAXPEAUeBaton@@II@Z@4HA 000000018005151d f   njsConnection.obj
 0001:0005053a       ?dtor$2@?0??Descr2protoILob@Connection@@CAXPEAUeBaton@@II@Z@4HA 000000018005153a f   njsConnection.obj
 0001:00050560       ?dtor$0@?0??Async_AfterExecute@Connection@@CAXPEAUuv_work_s@@@Z@4HA 0000000180051560 f   njsConnection.obj
 0001:0005056c       ?dtor$1@?0??Async_AfterExecute@Connection@@CAXPEAUuv_work_s@@@Z@4HA 000000018005156c f   njsConnection.obj
 0001:00050580       ?dtor$0@?0??GetMetaData@Connection@@SA?AV?$Local@VValue@v8@@@v8@@PEBUMetaInfo@@I_N@Z@4HA 0000000180051580 f   njsConnection.obj
 0001:00050590       ?dtor$0@?0??GetRows@Connection@@SA?AV?$Local@VValue@v8@@@v8@@PEAUeBaton@@@Z@4HA 0000000180051590 f   njsConnection.obj
 0001:000505a0       ?dtor$0@?0??ToV8Value@Connection@@CA?AV?$Local@VValue@v8@@@v8@@PEAUeBaton@@_NII@Z@4HA 00000001800515a0 f   njsConnection.obj
 0001:000505b0       ?dtor$0@?0??Bind2V8Value@Connection@@CA?AV?$Local@VValue@v8@@@v8@@PEAUeBaton@@PEAUBind@@I@Z@4HA 00000001800515b0 f   njsConnection.obj
 0001:000505c0       ?dtor$0@?0??NewLob@Connection@@CA?AV?$Local@VValue@v8@@@v8@@PEAUeBaton@@PEAVProtoILob@@_N@Z@4HA 00000001800515c0 f   njsConnection.obj
 0001:000505c0       ?dtor$0@?0??Define2V8Value@Connection@@CA?AV?$Local@VValue@v8@@@v8@@PEAUeBaton@@IIPEAUDefine@@PEAUExtDefine@@@Z@4HA 00000001800515c0 f   njsConnection.obj
 0001:000505d0       ?dtor$0@?0??ToV8ArrayValue@Connection@@CA?AV?$Local@VValue@v8@@@v8@@PEAUeBaton@@PEAUBind@@K@Z@4HA 00000001800515d0 f   njsConnection.obj
 0001:000505e0       ?dtor$0@?0??GetOutBindArray@Connection@@CA?AV?$Local@VValue@v8@@@v8@@PEAUeBaton@@@Z@4HA 00000001800515e0 f   njsConnection.obj
 0001:000505ec       ?dtor$1@?0??GetOutBindArray@Connection@@CA?AV?$Local@VValue@v8@@@v8@@PEAUeBaton@@@Z@4HA 00000001800515ec f   njsConnection.obj
 0001:00050600       ?dtor$0@?0??GetOutBindObject@Connection@@CA?AV?$Local@VValue@v8@@@v8@@PEAUeBaton@@@Z@4HA 0000000180051600 f   njsConnection.obj
 0001:0005060c       ?dtor$1@?0??GetOutBindObject@Connection@@CA?AV?$Local@VValue@v8@@@v8@@PEAUeBaton@@@Z@4HA 000000018005160c f   njsConnection.obj
 0001:00050620       ?dtor$0@?0??Release@Connection@@CAXAEBV?$FunctionCallbackInfo@VValue@v8@@@Nan@@@Z@4HA 0000000180051620 f   njsConnection.obj
 0001:0005062c       ?dtor$1@?0??Release@Connection@@CAXAEBV?$FunctionCallbackInfo@VValue@v8@@@Nan@@@Z@4HA 000000018005162c f   njsConnection.obj
 0001:00050638       ?dtor$3@?0??Release@Connection@@CAXAEBV?$FunctionCallbackInfo@VValue@v8@@@Nan@@@Z@4HA 0000000180051638 f   njsConnection.obj
 0001:00050644       ?dtor$4@?0??Release@Connection@@CAXAEBV?$FunctionCallbackInfo@VValue@v8@@@Nan@@@Z@4HA 0000000180051644 f   njsConnection.obj
 0001:00050661       ?dtor$10@?0??Release@Connection@@CAXAEBV?$FunctionCallbackInfo@VValue@v8@@@Nan@@@Z@4HA 0000000180051661 f   njsConnection.obj
 0001:00050670       ?dtor$0@?0??Async_Release@Connection@@CAXPEAUuv_work_s@@@Z@4HA 0000000180051670 f   njsConnection.obj
 0001:0005067c       ?catch$2@?0??Async_Release@Connection@@CAXPEAUuv_work_s@@@Z@4HA 000000018005167c f   njsConnection.obj
 0001:0005068b       __catch$?Async_Release@Connection@@CAXPEAUuv_work_s@@@Z$1 000000018005168b f   njsConnection.obj
 0001:000507b0       ?dtor$0@?0??Async_AfterRelease@Connection@@CAXPEAUuv_work_s@@@Z@4HA 00000001800517b0 f   njsConnection.obj
 0001:000507bc       ?dtor$1@?0??Async_AfterRelease@Connection@@CAXPEAUuv_work_s@@@Z@4HA 00000001800517bc f   njsConnection.obj
 0001:000507d0       ?dtor$0@?0??Rollback@Connection@@CAXAEBV?$FunctionCallbackInfo@VValue@v8@@@Nan@@@Z@4HA 00000001800517d0 f   njsConnection.obj
 0001:000507d0       ?dtor$0@?0??Commit@Connection@@CAXAEBV?$FunctionCallbackInfo@VValue@v8@@@Nan@@@Z@4HA 00000001800517d0 f   njsConnection.obj
 0001:000507d0       ?dtor$0@?0??Break@Connection@@CAXAEBV?$FunctionCallbackInfo@VValue@v8@@@Nan@@@Z@4HA 00000001800517d0 f   njsConnection.obj
 0001:000507dc       ?dtor$2@?0??Commit@Connection@@CAXAEBV?$FunctionCallbackInfo@VValue@v8@@@Nan@@@Z@4HA 00000001800517dc f   njsConnection.obj
 0001:000507dc       ?dtor$2@?0??Rollback@Connection@@CAXAEBV?$FunctionCallbackInfo@VValue@v8@@@Nan@@@Z@4HA 00000001800517dc f   njsConnection.obj
 0001:000507dc       ?dtor$2@?0??Break@Connection@@CAXAEBV?$FunctionCallbackInfo@VValue@v8@@@Nan@@@Z@4HA 00000001800517dc f   njsConnection.obj
 0001:000507e8       ?dtor$3@?0??Break@Connection@@CAXAEBV?$FunctionCallbackInfo@VValue@v8@@@Nan@@@Z@4HA 00000001800517e8 f   njsConnection.obj
 0001:000507e8       ?dtor$3@?0??Rollback@Connection@@CAXAEBV?$FunctionCallbackInfo@VValue@v8@@@Nan@@@Z@4HA 00000001800517e8 f   njsConnection.obj
 0001:000507e8       ?dtor$3@?0??Commit@Connection@@CAXAEBV?$FunctionCallbackInfo@VValue@v8@@@Nan@@@Z@4HA 00000001800517e8 f   njsConnection.obj
 0001:00050805       ?dtor$6@?0??Rollback@Connection@@CAXAEBV?$FunctionCallbackInfo@VValue@v8@@@Nan@@@Z@4HA 0000000180051805 f   njsConnection.obj
 0001:00050805       ?dtor$6@?0??Commit@Connection@@CAXAEBV?$FunctionCallbackInfo@VValue@v8@@@Nan@@@Z@4HA 0000000180051805 f   njsConnection.obj
 0001:00050805       ?dtor$6@?0??Break@Connection@@CAXAEBV?$FunctionCallbackInfo@VValue@v8@@@Nan@@@Z@4HA 0000000180051805 f   njsConnection.obj
 0001:00050820       ?catch$1@?0??Async_Commit@Connection@@CAXPEAUuv_work_s@@@Z@4HA 0000000180051820 f   njsConnection.obj
 0001:0005082f       __catch$?Async_Commit@Connection@@CAXPEAUuv_work_s@@@Z$1 000000018005182f f   njsConnection.obj
 0001:00050950       ?catch$1@?0??Async_Rollback@Connection@@CAXPEAUuv_work_s@@@Z@4HA 0000000180051950 f   njsConnection.obj
 0001:0005095f       __catch$?Async_Rollback@Connection@@CAXPEAUuv_work_s@@@Z$1 000000018005195f f   njsConnection.obj
 0001:00050a80       ?catch$1@?0??Async_Break@Connection@@CAXPEAUuv_work_s@@@Z@4HA 0000000180051a80 f   njsConnection.obj
 0001:00050a8f       __catch$?Async_Break@Connection@@CAXPEAUuv_work_s@@@Z$1 0000000180051a8f f   njsConnection.obj
 0001:00050bb0       ?dtor$0@?0??CreateLob@Connection@@CAXAEBV?$FunctionCallbackInfo@VValue@v8@@@Nan@@@Z@4HA 0000000180051bb0 f   njsConnection.obj
 0001:00050bbc       ?dtor$2@?0??CreateLob@Connection@@CAXAEBV?$FunctionCallbackInfo@VValue@v8@@@Nan@@@Z@4HA 0000000180051bbc f   njsConnection.obj
 0001:00050bc8       ?dtor$3@?0??CreateLob@Connection@@CAXAEBV?$FunctionCallbackInfo@VValue@v8@@@Nan@@@Z@4HA 0000000180051bc8 f   njsConnection.obj
 0001:00050be5       ?dtor$10@?0??CreateLob@Connection@@CAXAEBV?$FunctionCallbackInfo@VValue@v8@@@Nan@@@Z@4HA 0000000180051be5 f   njsConnection.obj
 0001:00050c00       ?catch$1@?0??Async_CreateLob@Connection@@CAXPEAUuv_work_s@@@Z@4HA 0000000180051c00 f   njsConnection.obj
 0001:00050c0f       __catch$?Async_CreateLob@Connection@@CAXPEAUuv_work_s@@@Z$1 0000000180051c0f f   njsConnection.obj
 0001:00050d30       ?dtor$0@?0??Async_AfterCreateLob@Connection@@CAXPEAUuv_work_s@@@Z@4HA 0000000180051d30 f   njsConnection.obj
 0001:00050d3c       ?dtor$1@?0??Async_AfterCreateLob@Connection@@CAXPEAUuv_work_s@@@Z@4HA 0000000180051d3c f   njsConnection.obj
 0001:00050d48       ?dtor$3@?0??Async_AfterCreateLob@Connection@@CAXPEAUuv_work_s@@@Z@4HA 0000000180051d48 f   njsConnection.obj
 0001:00050d70       ?dtor$0@?0???0rsBaton@@QEAA@AEAIV?$Local@VFunction@v8@@@v8@@V?$Local@VObject@v8@@@2@2@Z@4HA 0000000180051d70 f   njsResultSet.obj
 0001:00050d83       ?dtor$1@?0???0rsBaton@@QEAA@AEAIV?$Local@VFunction@v8@@@v8@@V?$Local@VObject@v8@@@2@2@Z@4HA 0000000180051d83 f   njsResultSet.obj
 0001:00050d96       ?dtor$2@?0???0rsBaton@@QEAA@AEAIV?$Local@VFunction@v8@@@v8@@V?$Local@VObject@v8@@@2@2@Z@4HA 0000000180051d96 f   njsResultSet.obj
 0001:00050dc0       ?dtor$0@?0??setResultSet@ResultSet@@QEAAXPEAVStmt@dpi@@PEAUeBaton@@IPEBUMetaInfo@@@Z@4HA 0000000180051dc0 f   njsResultSet.obj
 0001:00050e00       ?dtor$0@?0??GetMetaData@ResultSet@@CAXV?$Local@VString@v8@@@v8@@AEBV?$PropertyCallbackInfo@VValue@v8@@@Nan@@@Z@4HA 0000000180051e00 f   njsResultSet.obj
 0001:00050e0c       ?dtor$1@?0??GetMetaData@ResultSet@@CAXV?$Local@VString@v8@@@v8@@AEBV?$PropertyCallbackInfo@VValue@v8@@@Nan@@@Z@4HA 0000000180051e0c f   njsResultSet.obj
 0001:00050e20       ?dtor$0@?0??SetMetaData@ResultSet@@CAXV?$Local@VString@v8@@@v8@@V?$Local@VValue@v8@@@3@AEBV?$PropertyCallbackInfo@X@Nan@@@Z@4HA 0000000180051e20 f   njsResultSet.obj
 0001:00050e20       ?dtor$0@?0??Release@ILob@@CAXAEBV?$FunctionCallbackInfo@VValue@v8@@@Nan@@@Z@4HA 0000000180051e20 f   njsIntLob.obj
 0001:00050e2c       ?dtor$1@?0??SetMetaData@ResultSet@@CAXV?$Local@VString@v8@@@v8@@V?$Local@VValue@v8@@@3@AEBV?$PropertyCallbackInfo@X@Nan@@@Z@4HA 0000000180051e2c f   njsResultSet.obj
 0001:00050e2c       ?dtor$1@?0??Release@ILob@@CAXAEBV?$FunctionCallbackInfo@VValue@v8@@@Nan@@@Z@4HA 0000000180051e2c f   njsIntLob.obj
 0001:00050e40       ?dtor$0@?0??GetRow@ResultSet@@CAXAEBV?$FunctionCallbackInfo@VValue@v8@@@Nan@@@Z@4HA 0000000180051e40 f   njsResultSet.obj
 0001:00050e4c       ?dtor$2@?0??GetRow@ResultSet@@CAXAEBV?$FunctionCallbackInfo@VValue@v8@@@Nan@@@Z@4HA 0000000180051e4c f   njsResultSet.obj
 0001:00050e58       ?dtor$3@?0??GetRow@ResultSet@@CAXAEBV?$FunctionCallbackInfo@VValue@v8@@@Nan@@@Z@4HA 0000000180051e58 f   njsResultSet.obj
 0001:00050e80       ?dtor$0@?0??GetRows@ResultSet@@CAXAEBV?$FunctionCallbackInfo@VValue@v8@@@Nan@@@Z@4HA 0000000180051e80 f   njsResultSet.obj
 0001:00050e8c       ?dtor$2@?0??GetRows@ResultSet@@CAXAEBV?$FunctionCallbackInfo@VValue@v8@@@Nan@@@Z@4HA 0000000180051e8c f   njsResultSet.obj
 0001:00050e98       ?dtor$3@?0??GetRows@ResultSet@@CAXAEBV?$FunctionCallbackInfo@VValue@v8@@@Nan@@@Z@4HA 0000000180051e98 f   njsResultSet.obj
 0001:00050ec0       ?catch$1@?0??Async_GetRows@ResultSet@@CAXPEAUuv_work_s@@@Z@4HA 0000000180051ec0 f   njsResultSet.obj
 0001:00050ecf       __catch$?Async_GetRows@ResultSet@@CAXPEAUuv_work_s@@@Z$4 0000000180051ecf f   njsResultSet.obj
 0001:00051000       ?dtor$0@?0??Close@ResultSet@@CAXAEBV?$FunctionCallbackInfo@VValue@v8@@@Nan@@@Z@4HA 0000000180052000 f   njsResultSet.obj
 0001:0005100c       ?dtor$2@?0??Close@ResultSet@@CAXAEBV?$FunctionCallbackInfo@VValue@v8@@@Nan@@@Z@4HA 000000018005200c f   njsResultSet.obj
 0001:00051018       ?dtor$3@?0??Close@ResultSet@@CAXAEBV?$FunctionCallbackInfo@VValue@v8@@@Nan@@@Z@4HA 0000000180052018 f   njsResultSet.obj
 0001:00051035       ?dtor$8@?0??Close@ResultSet@@CAXAEBV?$FunctionCallbackInfo@VValue@v8@@@Nan@@@Z@4HA 0000000180052035 f   njsResultSet.obj
 0001:00051050       ?catch$1@?0??Async_Close@ResultSet@@CAXPEAUuv_work_s@@@Z@4HA 0000000180052050 f   njsResultSet.obj
 0001:00051060       __catch$?Async_Close@ResultSet@@CAXPEAUuv_work_s@@@Z$1 0000000180052060 f   njsResultSet.obj
 0001:00051190       ?dtor$0@?0??getErrorMsg@NJSMessages@@SA?AV?$basic_string@DU?$char_traits@D@std@@V?$allocator@D@2@@std@@W4NJSErrorType@@ZZ@4HA 0000000180052190 f   njsMessages.obj
 0001:000511c0       ?dtor$0@?0???0LobBaton@@QEAA@AEAIV?$Local@VObject@v8@@@v8@@V?$Local@VFunction@v8@@@2@1@Z@4HA 00000001800521c0 f   njsIntLob.obj
 0001:000511c0       ?dtor$0@?0???0LobBaton@@QEAA@AEAIV?$Local@VFunction@v8@@@v8@@V?$Local@VObject@v8@@@2@@Z@4HA 00000001800521c0 f   njsIntLob.obj
 0001:000511d3       ?dtor$1@?0???0LobBaton@@QEAA@AEAIV?$Local@VFunction@v8@@@v8@@V?$Local@VObject@v8@@@2@@Z@4HA 00000001800521d3 f   njsIntLob.obj
 0001:000511d3       ?dtor$1@?0???0LobBaton@@QEAA@AEAIV?$Local@VObject@v8@@@v8@@V?$Local@VFunction@v8@@@2@1@Z@4HA 00000001800521d3 f   njsIntLob.obj
 0001:000511e6       ?dtor$2@?0???0LobBaton@@QEAA@AEAIV?$Local@VObject@v8@@@v8@@V?$Local@VFunction@v8@@@2@1@Z@4HA 00000001800521e6 f   njsIntLob.obj
 0001:000511e6       ?dtor$2@?0???0LobBaton@@QEAA@AEAIV?$Local@VFunction@v8@@@v8@@V?$Local@VObject@v8@@@2@@Z@4HA 00000001800521e6 f   njsIntLob.obj
 0001:000511f9       ?dtor$3@?0???0LobBaton@@QEAA@AEAIV?$Local@VObject@v8@@@v8@@V?$Local@VFunction@v8@@@2@1@Z@4HA 00000001800521f9 f   njsIntLob.obj
 0001:000511f9       ?dtor$3@?0???0LobBaton@@QEAA@AEAIV?$Local@VFunction@v8@@@v8@@V?$Local@VObject@v8@@@2@@Z@4HA 00000001800521f9 f   njsIntLob.obj
 0001:0005120c       ?dtor$4@?0???0LobBaton@@QEAA@AEAIV?$Local@VFunction@v8@@@v8@@V?$Local@VObject@v8@@@2@@Z@4HA 000000018005220c f   njsIntLob.obj
 0001:0005120c       ?dtor$4@?0???0LobBaton@@QEAA@AEAIV?$Local@VObject@v8@@@v8@@V?$Local@VFunction@v8@@@2@1@Z@4HA 000000018005220c f   njsIntLob.obj
 0001:00051220       ?catch$0@?0??cleanupDPI@ILob@@QEAAXXZ@4HA 0000000180052220 f   njsIntLob.obj
 0001:0005122d       __catch$?cleanupDPI@ILob@@QEAAXXZ$0 000000018005222d f   njsIntLob.obj
 0001:00051240       ?catch$1@?0??setILob@ILob@@QEAAXPEAUeBaton@@PEAVProtoILob@@_N@Z@4HA 0000000180052240 f   njsIntLob.obj
 0001:0005124f       __catch$?setILob@ILob@@QEAAXPEAUeBaton@@PEAVProtoILob@@_N@Z$0 000000018005224f f   njsIntLob.obj
 0001:00051380       ?dtor$0@?0??Close@ILob@@CAXAEBV?$FunctionCallbackInfo@VValue@v8@@@Nan@@@Z@4HA 0000000180052380 f   njsIntLob.obj
 0001:0005138c       ?dtor$1@?0??Close@ILob@@CAXAEBV?$FunctionCallbackInfo@VValue@v8@@@Nan@@@Z@4HA 000000018005238c f   njsIntLob.obj
 0001:00051398       ?dtor$3@?0??Close@ILob@@CAXAEBV?$FunctionCallbackInfo@VValue@v8@@@Nan@@@Z@4HA 0000000180052398 f   njsIntLob.obj
 0001:000513a4       ?dtor$4@?0??Close@ILob@@CAXAEBV?$FunctionCallbackInfo@VValue@v8@@@Nan@@@Z@4HA 00000001800523a4 f   njsIntLob.obj
 0001:000513c1       ?dtor$8@?0??Close@ILob@@CAXAEBV?$FunctionCallbackInfo@VValue@v8@@@Nan@@@Z@4HA 00000001800523c1 f   njsIntLob.obj
 0001:000513d0       ?dtor$0@?0??GetChunkSize@ILob@@CAXV?$Local@VString@v8@@@v8@@AEBV?$PropertyCallbackInfo@VValue@v8@@@Nan@@@Z@4HA 00000001800523d0 f   njsIntLob.obj
 0001:000513dc       ?dtor$1@?0??GetChunkSize@ILob@@CAXV?$Local@VString@v8@@@v8@@AEBV?$PropertyCallbackInfo@VValue@v8@@@Nan@@@Z@4HA 00000001800523dc f   njsIntLob.obj
 0001:000513e8       ?catch$3@?0??GetChunkSize@ILob@@CAXV?$Local@VString@v8@@@v8@@AEBV?$PropertyCallbackInfo@VValue@v8@@@Nan@@@Z@4HA 00000001800523e8 f   njsIntLob.obj
 0001:000513f7       __catch$?GetChunkSize@ILob@@CAXV?$Local@VString@v8@@@v8@@AEBV?$PropertyCallbackInfo@VValue@v8@@@Nan@@@Z$0 00000001800523f7 f   njsIntLob.obj
 0001:00051480       ?dtor$0@?0??GetLength@ILob@@CAXV?$Local@VString@v8@@@v8@@AEBV?$PropertyCallbackInfo@VValue@v8@@@Nan@@@Z@4HA 0000000180052480 f   njsIntLob.obj
 0001:0005148c       ?dtor$1@?0??GetLength@ILob@@CAXV?$Local@VString@v8@@@v8@@AEBV?$PropertyCallbackInfo@VValue@v8@@@Nan@@@Z@4HA 000000018005248c f   njsIntLob.obj
 0001:00051498       ?catch$3@?0??GetLength@ILob@@CAXV?$Local@VString@v8@@@v8@@AEBV?$PropertyCallbackInfo@VValue@v8@@@Nan@@@Z@4HA 0000000180052498 f   njsIntLob.obj
 0001:000514a7       __catch$?GetLength@ILob@@CAXV?$Local@VString@v8@@@v8@@AEBV?$PropertyCallbackInfo@VValue@v8@@@Nan@@@Z$0 00000001800524a7 f   njsIntLob.obj
 0001:00051530       ?dtor$0@?0??GetPieceSize@ILob@@CAXV?$Local@VString@v8@@@v8@@AEBV?$PropertyCallbackInfo@VValue@v8@@@Nan@@@Z@4HA 0000000180052530 f   njsIntLob.obj
 0001:0005153c       ?dtor$1@?0??GetPieceSize@ILob@@CAXV?$Local@VString@v8@@@v8@@AEBV?$PropertyCallbackInfo@VValue@v8@@@Nan@@@Z@4HA 000000018005253c f   njsIntLob.obj
 0001:00051548       ?catch$3@?0??GetPieceSize@ILob@@CAXV?$Local@VString@v8@@@v8@@AEBV?$PropertyCallbackInfo@VValue@v8@@@Nan@@@Z@4HA 0000000180052548 f   njsIntLob.obj
 0001:00051557       __catch$?GetPieceSize@ILob@@CAXV?$Local@VString@v8@@@v8@@AEBV?$PropertyCallbackInfo@VValue@v8@@@Nan@@@Z$0 0000000180052557 f   njsIntLob.obj
 0001:000515e0       ?dtor$0@?0??SetPieceSize@ILob@@CAXV?$Local@VString@v8@@@v8@@V?$Local@VValue@v8@@@3@AEBV?$PropertyCallbackInfo@X@Nan@@@Z@4HA 00000001800525e0 f   njsIntLob.obj
 0001:000515ec       ?dtor$1@?0??SetPieceSize@ILob@@CAXV?$Local@VString@v8@@@v8@@V?$Local@VValue@v8@@@3@AEBV?$PropertyCallbackInfo@X@Nan@@@Z@4HA 00000001800525ec f   njsIntLob.obj
 0001:000515f8       ?dtor$2@?0??SetPieceSize@ILob@@CAXV?$Local@VString@v8@@@v8@@V?$Local@VValue@v8@@@3@AEBV?$PropertyCallbackInfo@X@Nan@@@Z@4HA 00000001800525f8 f   njsIntLob.obj
 0001:00051604       ?catch$7@?0??SetPieceSize@ILob@@CAXV?$Local@VString@v8@@@v8@@V?$Local@VValue@v8@@@3@AEBV?$PropertyCallbackInfo@X@Nan@@@Z@4HA 0000000180052604 f   njsIntLob.obj
 0001:00051613       __catch$?SetPieceSize@ILob@@CAXV?$Local@VString@v8@@@v8@@V?$Local@VValue@v8@@@3@AEBV?$PropertyCallbackInfo@X@Nan@@@Z$0 0000000180052613 f   njsIntLob.obj
 0001:000516a0       ?dtor$0@?0??GetOffset@ILob@@CAXV?$Local@VString@v8@@@v8@@AEBV?$PropertyCallbackInfo@VValue@v8@@@Nan@@@Z@4HA 00000001800526a0 f   njsIntLob.obj
 0001:000516ac       ?dtor$1@?0??GetOffset@ILob@@CAXV?$Local@VString@v8@@@v8@@AEBV?$PropertyCallbackInfo@VValue@v8@@@Nan@@@Z@4HA 00000001800526ac f   njsIntLob.obj
 0001:000516b8       ?catch$3@?0??GetOffset@ILob@@CAXV?$Local@VString@v8@@@v8@@AEBV?$PropertyCallbackInfo@VValue@v8@@@Nan@@@Z@4HA 00000001800526b8 f   njsIntLob.obj
 0001:000516c7       __catch$?GetOffset@ILob@@CAXV?$Local@VString@v8@@@v8@@AEBV?$PropertyCallbackInfo@VValue@v8@@@Nan@@@Z$0 00000001800526c7 f   njsIntLob.obj
 0001:00051750       ?dtor$0@?0??SetOffset@ILob@@CAXV?$Local@VString@v8@@@v8@@V?$Local@VValue@v8@@@3@AEBV?$PropertyCallbackInfo@X@Nan@@@Z@4HA 0000000180052750 f   njsIntLob.obj
 0001:0005175c       ?dtor$1@?0??SetOffset@ILob@@CAXV?$Local@VString@v8@@@v8@@V?$Local@VValue@v8@@@3@AEBV?$PropertyCallbackInfo@X@Nan@@@Z@4HA 000000018005275c f   njsIntLob.obj
 0001:00051768       ?dtor$2@?0??SetOffset@ILob@@CAXV?$Local@VString@v8@@@v8@@V?$Local@VValue@v8@@@3@AEBV?$PropertyCallbackInfo@X@Nan@@@Z@4HA 0000000180052768 f   njsIntLob.obj
 0001:00051774       ?dtor$4@?0??SetOffset@ILob@@CAXV?$Local@VString@v8@@@v8@@V?$Local@VValue@v8@@@3@AEBV?$PropertyCallbackInfo@X@Nan@@@Z@4HA 0000000180052774 f   njsIntLob.obj
 0001:00051780       ?dtor$0@?0??GetType@ILob@@CAXV?$Local@VString@v8@@@v8@@AEBV?$PropertyCallbackInfo@VValue@v8@@@Nan@@@Z@4HA 0000000180052780 f   njsIntLob.obj
 0001:0005178c       ?catch$1@?0??GetType@ILob@@CAXV?$Local@VString@v8@@@v8@@AEBV?$PropertyCallbackInfo@VValue@v8@@@Nan@@@Z@4HA 000000018005278c f   njsIntLob.obj
 0001:00051799       __catch$?GetType@ILob@@CAXV?$Local@VString@v8@@@v8@@AEBV?$PropertyCallbackInfo@VValue@v8@@@Nan@@@Z$0 0000000180052799 f   njsIntLob.obj
 0001:000517e0       ?dtor$0@?0??Read@ILob@@CAXAEBV?$FunctionCallbackInfo@VValue@v8@@@Nan@@@Z@4HA 00000001800527e0 f   njsIntLob.obj
 0001:000517ec       ?dtor$2@?0??Read@ILob@@CAXAEBV?$FunctionCallbackInfo@VValue@v8@@@Nan@@@Z@4HA 00000001800527ec f   njsIntLob.obj
 0001:000517f8       ?dtor$3@?0??Read@ILob@@CAXAEBV?$FunctionCallbackInfo@VValue@v8@@@Nan@@@Z@4HA 00000001800527f8 f   njsIntLob.obj
 0001:00051815       ?dtor$7@?0??Read@ILob@@CAXAEBV?$FunctionCallbackInfo@VValue@v8@@@Nan@@@Z@4HA 0000000180052815 f   njsIntLob.obj
 0001:00051830       ?catch$1@?0??Async_Read@ILob@@CAXPEAUuv_work_s@@@Z@4HA 0000000180052830 f   njsIntLob.obj
 0001:0005183f       __catch$?Async_Read@ILob@@CAXPEAUuv_work_s@@@Z$1 000000018005283f f   njsIntLob.obj
 0001:00051980       ?dtor$0@?0??Write@ILob@@CAXAEBV?$FunctionCallbackInfo@VValue@v8@@@Nan@@@Z@4HA 0000000180052980 f   njsIntLob.obj
 0001:0005198c       ?dtor$2@?0??Write@ILob@@CAXAEBV?$FunctionCallbackInfo@VValue@v8@@@Nan@@@Z@4HA 000000018005298c f   njsIntLob.obj
 0001:00051998       ?dtor$3@?0??Write@ILob@@CAXAEBV?$FunctionCallbackInfo@VValue@v8@@@Nan@@@Z@4HA 0000000180052998 f   njsIntLob.obj
 0001:000519b5       ?dtor$7@?0??Write@ILob@@CAXAEBV?$FunctionCallbackInfo@VValue@v8@@@Nan@@@Z@4HA 00000001800529b5 f   njsIntLob.obj
 0001:000519d0       ?catch$1@?0??Async_Write@ILob@@CAXPEAUuv_work_s@@@Z@4HA 00000001800529d0 f   njsIntLob.obj
 0001:000519df       __catch$?Async_Write@ILob@@CAXPEAUuv_work_s@@@Z$1 00000001800529df f   njsIntLob.obj
 0001:00051b20       ?catch$1@?0???0ProtoILob@@QEAA@PEAUeBaton@@PEAUDescriptor@dpi@@G@Z@4HA 0000000180052b20 f   njsIntLob.obj
 0001:00051b2f       __catch$??0ProtoILob@@QEAA@PEAUeBaton@@PEAUDescriptor@dpi@@G@Z$0 0000000180052b2f f   njsIntLob.obj
 0001:00051bb0       ?dtor$0@?0???0EnvImpl@@QEAA@AEBV?$basic_string@DU?$char_traits@D@std@@V?$allocator@D@2@@std@@II@Z@4HA 0000000180052bb0 f   dpiEnvImpl.obj
 0001:00051bbc       ?dtor$1@?0???0EnvImpl@@QEAA@AEBV?$basic_string@DU?$char_traits@D@std@@V?$allocator@D@2@@std@@II@Z@4HA 0000000180052bbc f   dpiEnvImpl.obj
 0001:00051bcc       ?catch$2@?0???0EnvImpl@@QEAA@AEBV?$basic_string@DU?$char_traits@D@std@@V?$allocator@D@2@@std@@II@Z@4HA 0000000180052bcc f   dpiEnvImpl.obj
 0001:00051bd9       __catch$??0EnvImpl@@QEAA@AEBV?$basic_string@DU?$char_traits@D@std@@V?$allocator@D@2@@std@@II@Z$0 0000000180052bd9 f   dpiEnvImpl.obj
 0001:00051bf0       ?dtor$0@?0???0ExceptionImpl@@QEAA@AEBV0@@Z@4HA 0000000180052bf0 f   dpiEnvImpl.obj
 0001:00051bf0       ?dtor$0@?0???0ExceptionImpl@@QEAA@PEBDH0@Z@4HA 0000000180052bf0 f   dpiExceptionImpl.obj
 0001:00051bfc       ?dtor$1@?0???0ExceptionImpl@@QEAA@AEBV0@@Z@4HA 0000000180052bfc f   dpiEnvImpl.obj
 0001:00051bfc       ?dtor$1@?0???0ExceptionImpl@@QEAA@PEBDH0@Z@4HA 0000000180052bfc f   dpiExceptionImpl.obj
 0001:00051c10       ?dtor$0@?0??createPool@EnvImpl@@UEAAPEAVSPool@dpi@@AEBV?$basic_string@DU?$char_traits@D@std@@V?$allocator@D@2@@std@@00HHHHH_N1H@Z@4HA 0000000180052c10 f   dpiEnvImpl.obj
 0001:00051c30       ?dtor$0@?0??getConnection@EnvImpl@@UEAAPEAVConn@dpi@@AEBV?$basic_string@DU?$char_traits@D@std@@V?$allocator@D@2@@std@@00H0_NW4DBPrivileges@3@@Z@4HA 0000000180052c30 f   dpiEnvImpl.obj
 0001:00051c50       ?dtor$0@?0???0ExceptionImpl@@QEAA@W4DpiError@dpi@@@Z@4HA 0000000180052c50 f   dpiExceptionImpl.obj
 0001:00051c5c       ?dtor$1@?0???0ExceptionImpl@@QEAA@W4DpiError@dpi@@@Z@4HA 0000000180052c5c f   dpiExceptionImpl.obj
 0001:00051c6c       ?dtor$2@?0???0ExceptionImpl@@QEAA@W4DpiError@dpi@@@Z@4HA 0000000180052c6c f   dpiExceptionImpl.obj
 0001:00051c7c       ?dtor$3@?0???0ExceptionImpl@@QEAA@W4DpiError@dpi@@@Z@4HA 0000000180052c7c f   dpiExceptionImpl.obj
 0001:00051c90       ?dtor$0@?0???0ConnImpl@@QEAA@PEAVEnvImpl@@PEAUOCIEnv@@_NIAEBV?$basic_string@DU?$char_traits@D@std@@V?$allocator@D@2@@std@@333W4DBPrivileges@dpi@@@Z@4HA 0000000180052c90 f   dpiConnImpl.obj
 0001:00051c9c       ?dtor$1@?0???0ConnImpl@@QEAA@PEAVEnvImpl@@PEAUOCIEnv@@_NIAEBV?$basic_string@DU?$char_traits@D@std@@V?$allocator@D@2@@std@@333W4DBPrivileges@dpi@@@Z@4HA 0000000180052c9c f   dpiConnImpl.obj
 0001:00051cac       ?dtor$2@?0???0ConnImpl@@QEAA@PEAVEnvImpl@@PEAUOCIEnv@@_NIAEBV?$basic_string@DU?$char_traits@D@std@@V?$allocator@D@2@@std@@333W4DBPrivileges@dpi@@@Z@4HA 0000000180052cac f   dpiConnImpl.obj
 0001:00051cbf       ?dtor$3@?0???0ConnImpl@@QEAA@PEAVEnvImpl@@PEAUOCIEnv@@_NIAEBV?$basic_string@DU?$char_traits@D@std@@V?$allocator@D@2@@std@@333W4DBPrivileges@dpi@@@Z@4HA 0000000180052cbf f   dpiConnImpl.obj
 0001:00051cd2       ?dtor$4@?0???0ConnImpl@@QEAA@PEAVEnvImpl@@PEAUOCIEnv@@_NIAEBV?$basic_string@DU?$char_traits@D@std@@V?$allocator@D@2@@std@@333W4DBPrivileges@dpi@@@Z@4HA 0000000180052cd2 f   dpiConnImpl.obj
 0001:00051cde       ?catch$5@?0???0ConnImpl@@QEAA@PEAVEnvImpl@@PEAUOCIEnv@@_NIAEBV?$basic_string@DU?$char_traits@D@std@@V?$allocator@D@2@@std@@333W4DBPrivileges@dpi@@@Z@4HA 0000000180052cde f   dpiConnImpl.obj
 0001:00051ceb       __catch$??0ConnImpl@@QEAA@PEAVEnvImpl@@PEAUOCIEnv@@_NIAEBV?$basic_string@DU?$char_traits@D@std@@V?$allocator@D@2@@std@@333W4DBPrivileges@dpi@@@Z$0 0000000180052ceb f   dpiConnImpl.obj
 0001:00051d00       ?dtor$0@?0???0ConnImpl@@QEAA@PEAVPoolImpl@@PEAUOCIEnv@@_NPEAEIAEBV?$basic_string@DU?$char_traits@D@std@@V?$allocator@D@2@@std@@444HW4DBPrivileges@dpi@@H@Z@4HA 0000000180052d00 f   dpiConnImpl.obj
 0001:00051d0c       ?dtor$1@?0???0ConnImpl@@QEAA@PEAVPoolImpl@@PEAUOCIEnv@@_NPEAEIAEBV?$basic_string@DU?$char_traits@D@std@@V?$allocator@D@2@@std@@444HW4DBPrivileges@dpi@@H@Z@4HA 0000000180052d0c f   dpiConnImpl.obj
 0001:00051d1c       ?dtor$2@?0???0ConnImpl@@QEAA@PEAVPoolImpl@@PEAUOCIEnv@@_NPEAEIAEBV?$basic_string@DU?$char_traits@D@std@@V?$allocator@D@2@@std@@444HW4DBPrivileges@dpi@@H@Z@4HA 0000000180052d1c f   dpiConnImpl.obj
 0001:00051d2f       ?dtor$3@?0???0ConnImpl@@QEAA@PEAVPoolImpl@@PEAUOCIEnv@@_NPEAEIAEBV?$basic_string@DU?$char_traits@D@std@@V?$allocator@D@2@@std@@444HW4DBPrivileges@dpi@@H@Z@4HA 0000000180052d2f f   dpiConnImpl.obj
 0001:00051d42       ?catch$4@?0???0ConnImpl@@QEAA@PEAVPoolImpl@@PEAUOCIEnv@@_NPEAEIAEBV?$basic_string@DU?$char_traits@D@std@@V?$allocator@D@2@@std@@444HW4DBPrivileges@dpi@@H@Z@4HA 0000000180052d42 f   dpiConnImpl.obj
 0001:00051d4f       __catch$??0ConnImpl@@QEAA@PEAVPoolImpl@@PEAUOCIEnv@@_NPEAEIAEBV?$basic_string@DU?$char_traits@D@std@@V?$allocator@D@2@@std@@444HW4DBPrivileges@dpi@@H@Z$0 0000000180052d4f f   dpiConnImpl.obj
 0001:00051d70       ?dtor$0@?0??getStmt@ConnImpl@@UEAAPEAVStmt@dpi@@AEBV?$basic_string@DU?$char_traits@D@std@@V?$allocator@D@2@@std@@@Z@4HA 0000000180052d70 f   dpiConnImpl.obj
 0001:00051d90       ?dtor$0@?0???0PoolImpl@@QEAA@PEAVEnvImpl@@PEAUOCIEnv@@AEBV?$basic_string@DU?$char_traits@D@std@@V?$allocator@D@2@@std@@22HHHH_NH3H@Z@4HA 0000000180052d90 f   dpiPoolImpl.obj
 0001:00051d9c       ?catch$1@?0???0PoolImpl@@QEAA@PEAVEnvImpl@@PEAUOCIEnv@@AEBV?$basic_string@DU?$char_traits@D@std@@V?$allocator@D@2@@std@@22HHHH_NH3H@Z@4HA 0000000180052d9c f   dpiPoolImpl.obj
 0001:00051dac       __catch$??0PoolImpl@@QEAA@PEAVEnvImpl@@PEAUOCIEnv@@AEBV?$basic_string@DU?$char_traits@D@std@@V?$allocator@D@2@@std@@22HHHH_NH3H@Z$0 0000000180052dac f   dpiPoolImpl.obj
 0001:00051dd0       ?dtor$0@?0??getConnection@PoolImpl@@UEAAPEAVConn@dpi@@AEBV?$basic_string@DU?$char_traits@D@std@@V?$allocator@D@2@@std@@000HW4DBPrivileges@3@@Z@4HA 0000000180052dd0 f   dpiPoolImpl.obj
 0001:00051df0       ?dtor$0@?0???0StmtImpl@@QEAA@PEAUOCIEnv@@PEAVConnImpl@@PEAUOCISvcCtx@@AEBV?$basic_string@DU?$char_traits@D@std@@V?$allocator@D@2@@std@@@Z@4HA 0000000180052df0 f   dpiStmtImpl.obj
 0001:00051dfc       ?catch$1@?0???0StmtImpl@@QEAA@PEAUOCIEnv@@PEAVConnImpl@@PEAUOCISvcCtx@@AEBV?$basic_string@DU?$char_traits@D@std@@V?$allocator@D@2@@std@@@Z@4HA 0000000180052dfc f   dpiStmtImpl.obj
 0001:00051e09       __catch$??0StmtImpl@@QEAA@PEAUOCIEnv@@PEAVConnImpl@@PEAUOCISvcCtx@@AEBV?$basic_string@DU?$char_traits@D@std@@V?$allocator@D@2@@std@@@Z$0 0000000180052e09 f   dpiStmtImpl.obj
 0001:00051e1f       ?dtor$0@?0??_Locimp_dtor@_Locimp@locale@std@@CAXPEAV123@@Z@4HA 0000000180052e1f f   libcpmt:locale0.obj
 0001:00051e1f       ?dtor$0@?0??_Init@locale@std@@CAPEAV_Locimp@12@_N@Z@4HA 0000000180052e1f f   libcpmt:locale0.obj
 0001:00051e2b       __scrt_is_nonwritable_in_current_image$filt$0 0000000180052e2b f   LIBCMT:utility.obj
 0001:00051e43       ?fin$0@?0???_M@YAXPEAX_K1P6AX0@Z@Z@4HA 0000000180052e43 f   LIBCMT:ehvecdtr.obj
 0001:00051e6f       ?filt$0@?0??__ArrayUnwind@@YAXPEAX_K1P6AX0@Z@Z@4HA 0000000180052e6f f   LIBCMT:ehvecdtr.obj
 0001:00051eb0       ?fin$0@?0???_L@YAXPEAX_K1P6AX0@Z2@Z@4HA 0000000180052eb0 f   LIBCMT:ehvecctr.obj
 0001:00051edc       ?fin$0@?0??dllmain_crt_process_attach@@YAHQEAUHINSTANCE__@@QEAX@Z@4HA 0000000180052edc f   LIBCMT:dll_dllmain.obj
 0001:00051ef3       ?fin$0@?0??dllmain_crt_process_detach@@YAH_N@Z@4HA 0000000180052ef3 f   LIBCMT:dll_dllmain.obj
 0001:00051f0f       ?filt$0@?0??dllmain_dispatch@@YAHQEAUHINSTANCE__@@KQEAX@Z@4HA 0000000180052f0f f   LIBCMT:dll_dllmain.obj
 0001:00051f45       _CallSETranslator$filt$0   0000000180052f45 f   libvcruntime:trnsctrl.obj
 0001:00051f91       __CxxCallCatchBlock$filt$0 0000000180052f91 f   libvcruntime:frame.obj
 0001:00051fb6       __CxxCallCatchBlock$fin$1  0000000180052fb6 f   libvcruntime:frame.obj
 0001:0005202e       __DestructExceptionObject$filt$0 000000018005302e f   libvcruntime:frame.obj
 0001:00052046       __FrameUnwindToState$filt$0 0000000180053046 f   libvcruntime:frame.obj
 0001:0005205c       __FrameUnwindToState$fin$1 000000018005305c f   libvcruntime:frame.obj
 0001:0005207f       ?fin$0@?0???$?RV<lambda_0d412022a4b28cc8a401ea49574e8ae6>@@AEAV<lambda_a775ed57af18ba8e4d5dc780aa9068fe>@@V<lambda_975a71a6baa488a08f4e15f6b0339b9e>@@@?$__crt_seh_guarded_call@H@@QEAAH$$QEAV<lambda_0d412022a4b28cc8a401ea49574e8ae6>@@AEAV<lambda_a775ed57af18ba8e4d5dc780aa9068fe>@@$$QEAV<lambda_975a71a6baa488a08f4e15f6b0339b9e>@@@Z@4HA 000000018005307f f   libucrt:output.obj
 0001:0005207f       ?fin$0@?0???$?RV<lambda_842d9ff0dc9ef11c61343bbaebe7f885>@@AEAV<lambda_c5860995281e5c4ce005b3de8f5874ee>@@V<lambda_d90129c13df834fdcbf8d2b88dafcf2d>@@@?$__crt_seh_guarded_call@X@@QEAAX$$QEAV<lambda_842d9ff0dc9ef11c61343bbaebe7f885>@@AEAV<lambda_c5860995281e5c4ce005b3de8f5874ee>@@$$QEAV<lambda_d90129c13df834fdcbf8d2b88dafcf2d>@@@Z@4HA 000000018005307f f   libucrt:fflush.obj
 0001:0005207f       ?fin$0@?0???$?RV<lambda_c376a267cfb53b6959b3b692ec76b120>@@AEAV<lambda_9a32fed5bf61b6b509b2d3f6003082a1>@@V<lambda_572fbb9fa0ab338edf41edfd4b5fcc8d>@@@?$__crt_seh_guarded_call@H@@QEAAH$$QEAV<lambda_c376a267cfb53b6959b3b692ec76b120>@@AEAV<lambda_9a32fed5bf61b6b509b2d3f6003082a1>@@$$QEAV<lambda_572fbb9fa0ab338edf41edfd4b5fcc8d>@@@Z@4HA 000000018005307f f   libucrt:fflush.obj
 0001:0005207f       ?fin$0@?0???$?RV<lambda_84ec643ea9557e2f7dc01bb0e9624395>@@AEAV<lambda_ca71763b3c0644891230e4f79ea54fa6>@@V<lambda_439a761618c59b0600e24586724d733b>@@@?$__crt_seh_guarded_call@H@@QEAAH$$QEAV<lambda_84ec643ea9557e2f7dc01bb0e9624395>@@AEAV<lambda_ca71763b3c0644891230e4f79ea54fa6>@@$$QEAV<lambda_439a761618c59b0600e24586724d733b>@@@Z@4HA 000000018005307f f   libucrt:setvbuf.obj
 0001:0005209a       _query_new_handler$fin$0   000000018005309a f   libucrt:new_handler.obj
 0001:000520b0       ?filt$0@?0???R<lambda_6e4b09c48022b2350581041d5f6b0c4c>@@QEBA@XZ@4HA 00000001800530b0 f   libucrt:exit.obj
 0001:000520cb       ?fin$0@?0???$?RV<lambda_efdfa57d1f175319df784efa44bb7b81>@@AEAV<lambda_5f0a4c1567f8adc6734073e5d1e1b35c>@@V<lambda_2e8a7d3640ea6ccb4c2413664c2db6fd>@@@?$__crt_seh_guarded_call@X@@QEAAX$$QEAV<lambda_efdfa57d1f175319df784efa44bb7b81>@@AEAV<lambda_5f0a4c1567f8adc6734073e5d1e1b35c>@@$$QEAV<lambda_2e8a7d3640ea6ccb4c2413664c2db6fd>@@@Z@4HA 00000001800530cb f   libucrt:mbctype.obj
 0001:000520cb       ?fin$0@?0???$?RV<lambda_2d41944a1d46af3157314b8a01080d33>@@AEAV<lambda_8f455de75cd7d7f24b4096f044d8b9e6>@@V<lambda_aa500f224e6afead328df44964fe2772>@@@?$__crt_seh_guarded_call@X@@QEAAX$$QEAV<lambda_2d41944a1d46af3157314b8a01080d33>@@AEAV<lambda_8f455de75cd7d7f24b4096f044d8b9e6>@@$$QEAV<lambda_aa500f224e6afead328df44964fe2772>@@@Z@4HA 00000001800530cb f   libucrt:per_thread_data.obj
 0001:000520cb       ?fin$0@?0???$?RV<lambda_bd00b5aa228bd7e7e5b2b5db5fd2933b>@@AEAV<lambda_777d11615145f89ee95b9466d285deeb>@@V<lambda_6e5e48fbd24f9f8f81b203eb3d877683>@@@?$__crt_seh_guarded_call@H@@QEAAH$$QEAV<lambda_bd00b5aa228bd7e7e5b2b5db5fd2933b>@@AEAV<lambda_777d11615145f89ee95b9466d285deeb>@@$$QEAV<lambda_6e5e48fbd24f9f8f81b203eb3d877683>@@@Z@4HA 00000001800530cb f   libucrt:winapi_thunks.obj
 0001:000520cb       ?fin$0@?0???$?RV<lambda_7777bce6b2f8c936911f934f8298dc43>@@AEAV<lambda_f03950bc5685219e0bcd2087efbe011e>@@V<lambda_3883c3dff614d5e0c5f61bb1ac94921c>@@@?$__crt_seh_guarded_call@H@@QEAAH$$QEAV<lambda_7777bce6b2f8c936911f934f8298dc43>@@AEAV<lambda_f03950bc5685219e0bcd2087efbe011e>@@$$QEAV<lambda_3883c3dff614d5e0c5f61bb1ac94921c>@@@Z@4HA 00000001800530cb f   libucrt:onexit.obj
 0001:000520cb       ?fin$0@?0???$?RV<lambda_d80eeec6fff315bfe5c115232f3240e3>@@AEAV<lambda_6e4b09c48022b2350581041d5f6b0c4c>@@V<lambda_2358e3775559c9db80273638284d5e45>@@@?$__crt_seh_guarded_call@X@@QEAAX$$QEAV<lambda_d80eeec6fff315bfe5c115232f3240e3>@@AEAV<lambda_6e4b09c48022b2350581041d5f6b0c4c>@@$$QEAV<lambda_2358e3775559c9db80273638284d5e45>@@@Z@4HA 00000001800530cb f   libucrt:exit.obj
 0001:000520cb       ?fin$0@?0???$?RV<lambda_8369fcb7c4df1e85de37618bd2b85f07>@@AEAV<lambda_a10e4b102d4a2c3aac6f4f48bbdf488f>@@V<lambda_5b7707bd6d7a0c4713179f36c7fd995d>@@@?$__crt_seh_guarded_call@H@@QEAAH$$QEAV<lambda_8369fcb7c4df1e85de37618bd2b85f07>@@AEAV<lambda_a10e4b102d4a2c3aac6f4f48bbdf488f>@@$$QEAV<lambda_5b7707bd6d7a0c4713179f36c7fd995d>@@@Z@4HA 00000001800530cb f   libucrt:onexit.obj
 0001:000520cb       ?fin$0@?0???$?RV<lambda_0ae27a3a962d80f24befdcbee591983d>@@AEAV<lambda_8d0ee55de4b1038c4002e0adecdf1839>@@V<lambda_dc504788e8f1664fe9b84e20bfb512f2>@@@?$__crt_seh_guarded_call@X@@QEAAX$$QEAV<lambda_0ae27a3a962d80f24befdcbee591983d>@@AEAV<lambda_8d0ee55de4b1038c4002e0adecdf1839>@@$$QEAV<lambda_dc504788e8f1664fe9b84e20bfb512f2>@@@Z@4HA 00000001800530cb f   libucrt:per_thread_data.obj
 0001:000520cb       ?fin$0@?0???$?RV<lambda_aa87e3671a710a21b5dc78c0bdf72e11>@@AEAV<lambda_92619d2358a28f41a33ba319515a20b9>@@V<lambda_6992ecaafeb10aed2b74cb1fae11a551>@@@?$__crt_seh_guarded_call@X@@QEAAX$$QEAV<lambda_aa87e3671a710a21b5dc78c0bdf72e11>@@AEAV<lambda_92619d2358a28f41a33ba319515a20b9>@@$$QEAV<lambda_6992ecaafeb10aed2b74cb1fae11a551>@@@Z@4HA 00000001800530cb f   libucrt:per_thread_data.obj
 0001:000520cb       ?fin$0@?0???$?RV<lambda_9529fede68560d7205a1271ab16b352e>@@AEAV<lambda_ebf8c556deb379764da826e7bb46e993>@@V<lambda_db92443d3c9ace7c8a20b950bb983b5a>@@@?$__crt_seh_guarded_call@X@@QEAAX$$QEAV<lambda_9529fede68560d7205a1271ab16b352e>@@AEAV<lambda_ebf8c556deb379764da826e7bb46e993>@@$$QEAV<lambda_db92443d3c9ace7c8a20b950bb983b5a>@@@Z@4HA 00000001800530cb f   libucrt:wsetlocale.obj
 0001:000520cb       ?fin$0@?0???$?RV<lambda_9bd929c17696992ce54f1d748594fc62>@@AEAV<lambda_082c17da81b0962e08c0587ee0fac50c>@@V<lambda_9c08ac857f4975304d44e9f601d9b878>@@@?$__crt_seh_guarded_call@PEAD@@QEAAPEAD$$QEAV<lambda_9bd929c17696992ce54f1d748594fc62>@@AEAV<lambda_082c17da81b0962e08c0587ee0fac50c>@@$$QEAV<lambda_9c08ac857f4975304d44e9f601d9b878>@@@Z@4HA 00000001800530cb f   libucrt:setlocale.obj
 0001:000520cb       ?fin$0@?0???$?RV<lambda_450d765d439847d4c735a33c368b5fc0>@@AEAV<lambda_44731a7d0e6d81c3e6aa82d741081786>@@V<lambda_601a2a7da3b7a96e9554ac7215c4b07c>@@@?$__crt_seh_guarded_call@P6AXH@Z@@QEAAP6AXH@Z$$QEAV<lambda_450d765d439847d4c735a33c368b5fc0>@@AEAV<lambda_44731a7d0e6d81c3e6aa82d741081786>@@$$QEAV<lambda_601a2a7da3b7a96e9554ac7215c4b07c>@@@Z@4HA 00000001800530cb f   libucrt:signal.obj
 0001:000520cb       ?fin$0@?0???$?RV<lambda_f2e299630e499de9f9a165e60fcd3db5>@@AEAV<lambda_2ae9d31cdba2644fcbeaf08da7c24588>@@V<lambda_40d01ff24d0e7b3814fdbdcee8eab3c7>@@@?$__crt_seh_guarded_call@X@@QEAAX$$QEAV<lambda_f2e299630e499de9f9a165e60fcd3db5>@@AEAV<lambda_2ae9d31cdba2644fcbeaf08da7c24588>@@$$QEAV<lambda_40d01ff24d0e7b3814fdbdcee8eab3c7>@@@Z@4HA 00000001800530cb f   libucrt:per_thread_data.obj
 0001:000520e5       raise$fin$0                00000001800530e5 f   libucrt:signal.obj
 0001:00052106       ?fin$0@?0???$?RV<lambda_410d79af7f07d98d83a3f525b3859a53>@@AEAV<lambda_3e16ef9562a7dcce91392c22ab16ea36>@@V<lambda_38119f0e861e05405d8a144b9b982f0a>@@@?$__crt_seh_guarded_call@X@@QEAAX$$QEAV<lambda_410d79af7f07d98d83a3f525b3859a53>@@AEAV<lambda_3e16ef9562a7dcce91392c22ab16ea36>@@$$QEAV<lambda_38119f0e861e05405d8a144b9b982f0a>@@@Z@4HA 0000000180053106 f   libucrt:wsetlocale.obj
 0001:00052120       ?fin$0@?0???$?RV<lambda_d8a01803c7231904df012bb083be9e3a>@@AEAV<lambda_b163b37eafe0a13f2c371fafeb0365c9>@@AEAV<lambda_8dff2cf36a5417162780cd64fa2883ef>@@@?$__crt_seh_guarded_call@X@@QEAAX$$QEAV<lambda_d8a01803c7231904df012bb083be9e3a>@@AEAV<lambda_b163b37eafe0a13f2c371fafeb0365c9>@@AEAV<lambda_8dff2cf36a5417162780cd64fa2883ef>@@@Z@4HA 0000000180053120 f   libucrt:wsetlocale.obj
 0001:00052141       _ctrlfp$filt$0             0000000180053141 f   libucrt:fpctrl.obj
 0001:0005216d       ?fin$0@?0???$?RV<lambda_886d6c58226a84441f68b9f2b8217b83>@@AEAV<lambda_ab61a845afdef5b7c387490eaf3616ee>@@V<lambda_f7f22ab5edc0698d5f6905b0d3f44752>@@@?$__crt_seh_guarded_call@X@@QEAAX$$QEAV<lambda_886d6c58226a84441f68b9f2b8217b83>@@AEAV<lambda_ab61a845afdef5b7c387490eaf3616ee>@@$$QEAV<lambda_f7f22ab5edc0698d5f6905b0d3f44752>@@@Z@4HA 000000018005316d f   libucrt:fflush.obj
 0001:0005218a       ?fin$0@?0??update_thread_multibyte_data_internal@@YAPEAU__crt_multibyte_data@@QEAU__acrt_ptd@@QEAU1@@Z@4HA 000000018005318a f   libucrt:mbctype.obj
 0001:000521a3       __acrt_update_thread_locale_data$fin$0 00000001800531a3 f   libucrt:locale_refcounting.obj
 0001:000521bc       _fcloseall$fin$0           00000001800531bc f   libucrt:closeall.obj
 0001:000521d5       __acrt_lowio_ensure_fh_exists$fin$0 00000001800531d5 f   libucrt:osfinfo.obj
 0001:000521d5       __acrt_initialize_lowio$fin$0 00000001800531d5 f   libucrt:ioinit.obj
 0001:000521ee       _write$fin$0               00000001800531ee f   libucrt:write.obj
 0001:000521ee       ?fin$0@?0???$common_lseek@_J@@YA_JH_JH@Z@4HA 00000001800531ee f   libucrt:lseek.obj
 0001:00052205       fclose$fin$0               0000000180053205 f   libucrt:fclose.obj
 0001:0005221d       ?fin$0@?0???$?RV<lambda_a37b2b86f63e897a80ea819b0eb08c01>@@AEAV<lambda_38ce7e780aa69e748d6df282ebc68efe>@@V<lambda_99fb1378e971ab6e7edea83e3a7a83a2>@@@?$__crt_seh_guarded_call@H@@QEAAH$$QEAV<lambda_a37b2b86f63e897a80ea819b0eb08c01>@@AEAV<lambda_38ce7e780aa69e748d6df282ebc68efe>@@$$QEAV<lambda_99fb1378e971ab6e7edea83e3a7a83a2>@@@Z@4HA 000000018005321d f   libucrt:commit.obj
 0001:0005221d       ?fin$0@?0???$?RV<lambda_751a882b2c74d4b022dec766aa51a29a>@@AEAV<lambda_628dfdc04ba53c8bfc02c9951375f3f5>@@V<lambda_f6c7be5f7998530c34de24c7437d6b54>@@@?$__crt_seh_guarded_call@H@@QEAAH$$QEAV<lambda_751a882b2c74d4b022dec766aa51a29a>@@AEAV<lambda_628dfdc04ba53c8bfc02c9951375f3f5>@@$$QEAV<lambda_f6c7be5f7998530c34de24c7437d6b54>@@@Z@4HA 000000018005321d f   libucrt:close.obj
 0001:00052240       _IsNonwritableInCurrentImage$filt$0 0000000180053240 f   LIBCMT:pesect.obj
 0001:00052260       ??__F?oracledbTemplate_s@Oracledb@@0V?$Persistent@VFunctionTemplate@v8@@V?$NonCopyablePersistentTraits@VFunctionTemplate@v8@@@2@@Nan@@A@@YAXXZ 0000000180053260 f   njsOracle.obj
 0001:00052290       ??__F?poolTemplate_s@Pool@@2V?$Persistent@VFunctionTemplate@v8@@V?$NonCopyablePersistentTraits@VFunctionTemplate@v8@@@2@@Nan@@A@@YAXXZ 0000000180053290 f   njsPool.obj
 0001:000522b0       ??__F?connectionTemplate_s@Connection@@2V?$Persistent@VFunctionTemplate@v8@@V?$NonCopyablePersistentTraits@VFunctionTemplate@v8@@@2@@Nan@@A@@YAXXZ 00000001800532b0 f   njsConnection.obj
 0001:000522d0       ??__F?resultSetTemplate_s@ResultSet@@2V?$Persistent@VFunctionTemplate@v8@@V?$NonCopyablePersistentTraits@VFunctionTemplate@v8@@@2@@Nan@@A@@YAXXZ 00000001800532d0 f   njsResultSet.obj
 0001:000522f0       ??__F?iLobTemplate_s@ILob@@2V?$Persistent@VFunctionTemplate@v8@@V?$NonCopyablePersistentTraits@VFunctionTemplate@v8@@@2@@Nan@@A@@YAXXZ 00000001800532f0 f   njsIntLob.obj
 0001:00052310       ??__F?s_propPingName_@ConnImpl@@0V?$basic_string@DU?$char_traits@D@std@@V?$allocator@D@2@@std@@A@@YAXXZ 0000000180053310 f   dpiConnImpl.obj
 0001:000523c8       ??__Finitlocks@std@@YAXXZ  00000001800533c8 f   libcpmt:xlock.obj
 0001:000523d4       ??__F_Fac_tidy_reg@std@@YAXXZ 00000001800533d4 f   libcpmt:locale0.obj
 0001:00052400       ??__Fclassic_locale@std@@YAXXZ 0000000180053400 f   libcpmt:locale0.obj
 0001:00052460       ??__Finit_atexit@@YAXXZ    0000000180053460 f   libcpmt:iosptrs.obj
 0001:000524b4       ??__Finitlocks@std@@YAXXZ  00000001800534b4 f   libcpmt:iosptrs.obj
 0002:00000418       ?initlocks$initializer$@std@@3P6AXXZEA 0000000180054418     libcpmt:xlock.obj
 0002:00000420       ?initlocks$initializer$@std@@3P6AXXZEA 0000000180054420     libcpmt:iosptrs.obj
 0002:00000428       ?init_atexit$initializer$@@3P6AXXZEA 0000000180054428     libcpmt:iosptrs.obj
 0002:00000430       ?_Fac_tidy_reg$initializer$@std@@3P6AXXZEA 0000000180054430     libcpmt:locale0.obj
 0002:00000438       ?classic_locale$initializer$@std@@3P6AXXZEA 0000000180054438     libcpmt:locale0.obj
 0002:00000448       ??oracledbTemplate_s$initializer$@Oracledb@@0P6AXXZEA@@3P6AXXZEA 0000000180054448     njsOracle.obj
 0002:00000450       ??poolTemplate_s$initializer$@Pool@@2P6AXXZEA@@3P6AXXZEA 0000000180054450     njsPool.obj
 0002:00000458       ??connectionTemplate_s$initializer$@Connection@@2P6AXXZEA@@3P6AXXZEA 0000000180054458     njsConnection.obj
 0002:00000460       ??resultSetTemplate_s$initializer$@ResultSet@@2P6AXXZEA@@3P6AXXZEA 0000000180054460     njsResultSet.obj
 0002:00000468       ??iLobTemplate_s$initializer$@ILob@@2P6AXXZEA@@3P6AXXZEA 0000000180054468     njsIntLob.obj
 0002:00000470       ??s_propPingName_$initializer$@ConnImpl@@0P6AXXZEA@@3P6AXXZEA 0000000180054470     dpiConnImpl.obj
 0002:00000488       ?pinit@@3P6AHXZEA          0000000180054488     libcpmt:winapisupp.obj
 0002:00000490       ?__scrt_initialize_tss_var@@3P6AHXZEA 0000000180054490     LIBCMT:thread_safe_statics.obj
 0002:00000520       $cppxdata$??_G_Fac_node@std@@QEAAPEAXI@Z 0000000180054520     libcpmt:locale0.obj
 0002:00000548       $cppxdata$?_Locimp_dtor@_Locimp@locale@std@@CAXPEAV123@@Z 0000000180054548     libcpmt:locale0.obj
 0002:00000570       $cppxdata$??_G_Locimp@locale@std@@MEAAPEAXI@Z 0000000180054570     libcpmt:locale0.obj
 0002:00000598       $cppxdata$?_Init@locale@std@@CAPEAV_Locimp@12@_N@Z 0000000180054598     libcpmt:locale0.obj
 0002:000005c0       $cppxdata$??__Fclassic_locale@std@@YAXXZ 00000001800545c0     libcpmt:locale0.obj
 0002:000006f0       ?_Win_errtab@std@@3QBU_Win_errtab_t@1@B 00000001800546f0     libcpmt:syserror.obj
 0002:00000940       ?_Sys_errtab@std@@3QBU_Sys_errtab_t@1@B 0000000180054940     libcpmt:syserror.obj
 0002:000014e0       $cppxdata$??__Finit_atexit@@YAXXZ 00000001800554e0     libcpmt:iosptrs.obj
 0002:00001a20       digits                     0000000180055a20     libcpmt:xstoul.obj
 0002:00001a48       ndigs                      0000000180055a48     libcpmt:xstoul.obj
 0002:00001a70       digits                     0000000180055a70     libcpmt:xstoull.obj
 0002:00001a98       ndigs                      0000000180055a98     libcpmt:xstoull.obj
 0002:00001ac0       ?LcidToLocaleNameTable@@3QBULcidToLocaleName@@B 0000000180055ac0     libcpmt:winapinls.obj
 0002:00002900       ?LocaleNameToIndexTable@@3QBULocaleNameIndex@@B 0000000180056900     libcpmt:winapinls.obj
 0002:00004e58       GS_ExceptionPointers       0000000180058e58     LIBCMT:gs_report.obj
 0002:00004ea0       ?ExceptionTemplate@?1??_UnwindNestedFrames@@9@4U_EXCEPTION_RECORD@@B 0000000180058ea0     libvcruntime:trnsctrl.obj
 0002:00004f70       ?ExceptionTemplate@?1??_CxxThrowException@@9@4UEHExceptionRecord@@B 0000000180058f70     libvcruntime:throw.obj
 0002:00004fb0       ?module_names@?A0x37284e77@@3QBQEB_WB 0000000180058fb0     libvcruntime:winapi_downlevel.obj
 0002:00005080       ?candidate_modules@?1??try_get_FlsAlloc@@YAP6AKP6AXPEAX@Z@ZXZ@4QBW4module_id@?A0x37284e77@@B 0000000180059080     libvcruntime:winapi_downlevel.obj
 0002:00005088       ?candidate_modules@?1??try_get_FlsFree@@YAP6AHK@ZXZ@4QBW4module_id@?A0x37284e77@@B 0000000180059088     libvcruntime:winapi_downlevel.obj
 0002:00005090       ?candidate_modules@?1??try_get_FlsGetValue@@YAP6APEAXK@ZXZ@4QBW4module_id@?A0x37284e77@@B 0000000180059090     libvcruntime:winapi_downlevel.obj
 0002:00005098       ?candidate_modules@?1??try_get_FlsSetValue@@YAP6AHKPEAX@ZXZ@4QBW4module_id@?A0x37284e77@@B 0000000180059098     libvcruntime:winapi_downlevel.obj
 0002:000050a0       ?candidate_modules@?1??try_get_InitializeCriticalSectionEx@@YAP6AHPEAU_RTL_CRITICAL_SECTION@@KK@ZXZ@4QBW4module_id@?A0x37284e77@@B 00000001800590a0     libvcruntime:winapi_downlevel.obj
 0002:00005120       ?tokenTable@@3QBQEBDB      0000000180059120     libvcruntime:undname.obj
 0002:00005190       ?nameTable@@3QBQEBDB       0000000180059190     libvcruntime:undname.obj
 0002:00005420       ?rttiTable@@3QBQEBDB       0000000180059420     libvcruntime:undname.obj
 0002:00006620       ?errtable@@3QBUerrentry@?A0x31fdb9ec@@B 000000018005a620     libucrt:errno.obj
 0002:00007150       __flag_x_one_y_snan        000000018005b150     libucrt:pow.obj
 0002:00007154       __flag_x_zero_z_inf        000000018005b154     libucrt:pow.obj
 0002:00007158       __flag_x_nan               000000018005b158     libucrt:pow.obj
 0002:0000715c       __flag_y_nan               000000018005b15c     libucrt:pow.obj
 0002:00007160       __flag_x_nan_y_nan         000000018005b160     libucrt:pow.obj
 0002:00007164       __flag_x_neg_y_notint      000000018005b164     libucrt:pow.obj
 0002:00007168       __flag_z_zero              000000018005b168     libucrt:pow.obj
 0002:0000716c       __flag_z_denormal          000000018005b16c     libucrt:pow.obj
 0002:00007170       __flag_z_inf               000000018005b170     libucrt:pow.obj
 0002:00007180       __ay_max_bound             000000018005b180     libucrt:pow.obj
 0002:00007188       __ay_min_bound             000000018005b188     libucrt:pow.obj
 0002:00007190       __sign_mask                000000018005b190     libucrt:pow.obj
 0002:00007198       __sign_and_exp_mask        000000018005b198     libucrt:pow.obj
 0002:000071a0       __exp_mask                 000000018005b1a0     libucrt:pow.obj
 0002:000071a8       __neg_inf                  000000018005b1a8     libucrt:pow.obj
 0002:000071b0       __pos_inf                  000000018005b1b0     libucrt:pow.obj
 0002:000071b8       __pos_one                  000000018005b1b8     libucrt:pow.obj
 0002:000071c0       __pos_zero                 000000018005b1c0     libucrt:pow.obj
 0002:000071c8       __exp_mant_mask            000000018005b1c8     libucrt:pow.obj
 0002:000071d0       __mant_mask                000000018005b1d0     libucrt:pow.obj
 0002:000071d8       __ind_pattern              000000018005b1d8     libucrt:pow.obj
 0002:000071e0       __neg_qnan                 000000018005b1e0     libucrt:pow.obj
 0002:000071e8       __qnan                     000000018005b1e8     libucrt:pow.obj
 0002:000071f0       __qnan_set                 000000018005b1f0     libucrt:pow.obj
 0002:000071f8       __neg_one                  000000018005b1f8     libucrt:pow.obj
 0002:00007200       __neg_zero                 000000018005b200     libucrt:pow.obj
 0002:00007208       __exp_shift                000000018005b208     libucrt:pow.obj
 0002:00007210       __exp_bias                 000000018005b210     libucrt:pow.obj
 0002:00007218       __exp_bias_m1              000000018005b218     libucrt:pow.obj
 0002:00007220       __yexp_53                  000000018005b220     libucrt:pow.obj
 0002:00007228       __mant_full                000000018005b228     libucrt:pow.obj
 0002:00007230       __1_before_mant            000000018005b230     libucrt:pow.obj
 0002:00007238       __mask_mant_all8           000000018005b238     libucrt:pow.obj
 0002:00007240       __mask_mant9               000000018005b240     libucrt:pow.obj
 0002:00007250       __real_fffffffff8000000    000000018005b250     libucrt:pow.obj
 0002:00007260       __mask_8000000000000000    000000018005b260     libucrt:pow.obj
 0002:00007270       __real_4090040000000000    000000018005b270     libucrt:pow.obj
 0002:00007280       __real_C090C80000000000    000000018005b280     libucrt:pow.obj
 0002:00007290       __real_ninf                000000018005b290     libucrt:pow.obj
 0002:000072a0       __real_inf                 000000018005b2a0     libucrt:pow.obj
 0002:000072b0       __real_nan                 000000018005b2b0     libucrt:pow.obj
 0002:000072c0       __real_mant                000000018005b2c0     libucrt:pow.obj
 0002:000072d0       __mask_1023                000000018005b2d0     libucrt:pow.obj
 0002:000072e0       __mask_001                 000000018005b2e0     libucrt:pow.obj
 0002:000072f0       __real_log2_lead           000000018005b2f0     libucrt:pow.obj
 0002:00007300       __real_log2_tail           000000018005b300     libucrt:pow.obj
 0002:00007310       __real_two                 000000018005b310     libucrt:pow.obj
 0002:00007320       __real_one                 000000018005b320     libucrt:pow.obj
 0002:00007330       __real_half                000000018005b330     libucrt:pow.obj
 0002:00007340       __mask_100                 000000018005b340     libucrt:pow.obj
 0002:00007350       __real_1_over_2            000000018005b350     libucrt:pow.obj
 0002:00007360       __real_1_over_3            000000018005b360     libucrt:pow.obj
 0002:00007370       __real_1_over_4            000000018005b370     libucrt:pow.obj
 0002:00007380       __real_1_over_5            000000018005b380     libucrt:pow.obj
 0002:00007390       __real_1_over_6            000000018005b390     libucrt:pow.obj
 0002:000073a0       __real_1_over_7            000000018005b3a0     libucrt:pow.obj
 0002:000073b0       __mask_1023_f              000000018005b3b0     libucrt:pow.obj
 0002:000073c0       __mask_2045                000000018005b3c0     libucrt:pow.obj
 0002:000073d0       __real_threshold           000000018005b3d0     libucrt:pow.obj
 0002:000073e0       __real_notsign             000000018005b3e0     libucrt:pow.obj
 0002:000073f0       __log_F_inv_head           000000018005b3f0     libucrt:pow.obj
 0002:00007c00       __log_F_inv_tail           000000018005bc00     libucrt:pow.obj
 0002:00008410       __denormal_threshold       000000018005c410     libucrt:pow.obj
 0002:00008420       __enable_almost_inf        000000018005c420     libucrt:pow.obj
 0002:00008430       __real_zero                000000018005c430     libucrt:pow.obj
 0002:00008440       __real_smallest_denormal   000000018005c440     libucrt:pow.obj
 0002:00008450       __denormal_tiny_threshold  000000018005c450     libucrt:pow.obj
 0002:00008460       __real_p65536              000000018005c460     libucrt:pow.obj
 0002:00008470       __real_m68800              000000018005c470     libucrt:pow.obj
